
LED3264.elf:     file format elf32-avr

Sections:
Idx Name          Size      VMA       LMA       File off  Algn
  0 .text         00002ace  00000000  00000000  00000094  2**0
                  CONTENTS, ALLOC, LOAD, READONLY, CODE
  1 .data         00000024  00800060  00002ace  00002b62  2**0
                  CONTENTS, ALLOC, LOAD, DATA
  2 .bss          0000021d  00800084  00800084  00002b86  2**0
                  ALLOC
  3 .noinit       00000000  008002a1  008002a1  00002b86  2**0
                  CONTENTS
  4 .eeprom       00000000  00810000  00810000  00002b86  2**0
                  CONTENTS
  5 .stab         0000036c  00000000  00000000  00002b88  2**2
                  CONTENTS, READONLY, DEBUGGING
  6 .stabstr      00000084  00000000  00000000  00002ef4  2**0
                  CONTENTS, READONLY, DEBUGGING
  7 .debug_aranges 00000014  00000000  00000000  00002f78  2**0
                  CONTENTS, READONLY, DEBUGGING
  8 .debug_pubnames 00000652  00000000  00000000  00002f8c  2**0
                  CONTENTS, READONLY, DEBUGGING
  9 .debug_info   00001470  00000000  00000000  000035de  2**0
                  CONTENTS, READONLY, DEBUGGING
 10 .debug_abbrev 00000297  00000000  00000000  00004a4e  2**0
                  CONTENTS, READONLY, DEBUGGING
 11 .debug_line   00001577  00000000  00000000  00004ce5  2**0
                  CONTENTS, READONLY, DEBUGGING
 12 .debug_str    000006b2  00000000  00000000  0000625c  2**0
                  CONTENTS, READONLY, DEBUGGING
Disassembly of section .text:

00000000 <__vectors>:
       0:	0c 94 ef 07 	jmp	0xfde <__init>
       4:	0c 94 0a 08 	jmp	0x1014 <__bad_interrupt>
       8:	0c 94 0a 08 	jmp	0x1014 <__bad_interrupt>
       c:	0c 94 0a 08 	jmp	0x1014 <__bad_interrupt>
      10:	0c 94 44 14 	jmp	0x2888 <__vector_4>
      14:	0c 94 0a 08 	jmp	0x1014 <__bad_interrupt>
      18:	0c 94 0a 08 	jmp	0x1014 <__bad_interrupt>
      1c:	0c 94 0a 08 	jmp	0x1014 <__bad_interrupt>
      20:	0c 94 0a 08 	jmp	0x1014 <__bad_interrupt>
      24:	0c 94 0a 08 	jmp	0x1014 <__bad_interrupt>
      28:	0c 94 0a 08 	jmp	0x1014 <__bad_interrupt>
      2c:	0c 94 0a 08 	jmp	0x1014 <__bad_interrupt>
      30:	0c 94 0a 08 	jmp	0x1014 <__bad_interrupt>
      34:	0c 94 0a 08 	jmp	0x1014 <__bad_interrupt>
      38:	0c 94 0a 08 	jmp	0x1014 <__bad_interrupt>
      3c:	0c 94 0a 08 	jmp	0x1014 <__bad_interrupt>
      40:	0c 94 0a 08 	jmp	0x1014 <__bad_interrupt>
      44:	0c 94 0a 08 	jmp	0x1014 <__bad_interrupt>
      48:	0c 94 0a 08 	jmp	0x1014 <__bad_interrupt>
      4c:	0c 94 0a 08 	jmp	0x1014 <__bad_interrupt>
      50:	0c 94 0a 08 	jmp	0x1014 <__bad_interrupt>

00000054 <CHINESE>:
      54:	08 40 49 40 2a 40 08 84 ff fe 19 08 2c 88 4a 88     .@I@*@......,.J.
      64:	10 88 fe 90 22 50 22 20 14 50 18 88 25 0e 42 04     ...."P" .P..%.B.
      74:	02 00 01 00 3f fc 20 04 40 08 1f e0 00 40 00 80     ....?. .@....@..
      84:	01 04 ff fe 01 00 01 00 01 00 01 00 05 00 02 00     ................
      94:	00 08 04 08 7e 08 44 08 47 fe 44 08 44 08 7c 88     ....~.D.G.D.D.|.
      a4:	44 48 44 48 44 08 44 08 7c 08 44 48 00 28 00 10     DHDHD.D.|.DH.(..
      b4:	10 20 10 20 10 20 1c 24 21 fe 21 24 7d 24 91 24     . . . .$!.!$}$.$
      c4:	11 24 fd fc 11 24 10 20 14 20 18 20 10 20 00 20     .$...$. . . . . 
      d4:	00 04 7f fe 44 08 48 08 48 28 51 f8 49 28 49 28     ....D.H.H(Q.I(I(
      e4:	45 28 45 28 45 28 69 e8 51 28 40 08 40 28 40 10     E(E(E(i.Q(@.@(@.
      f4:	02 00 02 00 02 08 ff fc 04 00 09 00 11 08 3f fc     ..............?.
     104:	51 08 91 08 11 08 11 08 11 28 11 10 01 00 01 00     Q........(......
     114:	02 00 02 00 02 10 7f f8 42 10 42 10 7f f0 42 10     ........B.B...B.
     124:	42 10 7f f0 42 10 02 00 02 04 02 04 01 fc 00 00     B...B...........
     134:	00 00 3f f0 00 10 00 20 00 40 01 80 01 04 ff fe     ..?.... .@......
     144:	01 00 01 00 01 00 01 00 01 00 01 00 05 00 02 00     ................
     154:	01 f0 21 10 11 10 11 10 01 10 02 0e f4 00 13 f8     ..!.............
     164:	11 08 11 10 10 90 10 a0 14 40 18 b0 13 0e 0c 04     .........@......
     174:	3f f8 24 48 3f f8 01 00 7f fc 01 00 1f f0 10 10     ?.$H?...........
     184:	1f f0 10 10 1f f0 10 10 1f f0 10 14 ff fe 00 00     ................
     194:	00 40 40 44 37 fe 10 40 07 fc 04 44 f4 44 17 fc     .@@D7..@...D.D..
     1a4:	14 44 10 e0 11 58 12 48 14 40 28 46 47 fc 00 00     .D...X.H.@(FG...
     1b4:	01 00 00 84 3f fe 22 20 22 28 3f fc 22 20 23 e0     ....?." "(?." #.
     1c4:	20 00 2f f0 22 20 21 40 20 80 43 60 8c 1e 30 04      ./." !@ .C`..0.
     1d4:	01 08 7f fc 00 10 1f f8 10 10 10 10 1f f0 00 00     ................
     1e4:	7f fe 40 22 8f f4 08 20 08 20 08 22 10 22 60 1e     ..@"... . ."."`.
     1f4:	00 08 04 08 7e 08 44 08 47 fe 44 08 44 08 7c 88     ....~.D.G.D.D.|.
     204:	44 48 44 48 44 08 44 08 7c 08 44 48 00 28 00 10     DHDHD.D.|.DH.(..
     214:	20 04 1b fe 08 04 40 24 4f f4 48 24 48 24 48 24      .....@$O.H$H$H$
     224:	4f e4 48 24 48 24 48 24 4f e4 48 24 40 14 40 08     O.H$H$H$O.H$@.@.
     234:	08 00 08 08 1f fc 11 00 21 00 41 10 1f f8 11 00     ........!.A.....
     244:	11 00 11 04 ff fe 01 00 01 00 01 00 01 00 01 00     ................
     254:	00 10 0f f8 08 10 08 10 08 10 0f f0 08 10 08 10     ................
     264:	08 10 0f f0 08 10 08 10 10 10 10 10 20 50 40 20     ............ P@ 
     274:	00 10 1f f8 10 10 10 10 10 10 10 10 10 10 1f f0     ................
     284:	10 10 10 10 10 10 10 10 10 10 1f f0 10 10 00 00     ................
     294:	00 80 04 80 04 40 08 40 08 20 10 10 20 08 4f ee     .....@.@. .. .O.
     2a4:	84 24 04 20 04 20 04 20 04 20 08 20 11 40 20 80     .$. . . . . .@ .
     2b4:	04 20 0e 20 78 20 08 20 08 a8 fe a6 08 a2 1d 20     . . x . ....... 
     2c4:	1a 24 28 24 28 28 48 10 88 20 08 40 08 80 0b 00     .$($((H.. .@....
     2d4:	08 20 09 20 09 20 11 10 12 10 32 0e 54 04 9b f0     . . . ....2.T...
     2e4:	11 10 11 10 11 10 11 10 12 10 12 10 14 a0 10 40     ...............@
     2f4:	00 08 3f fc 20 08 3f f8 20 08 3f f8 01 00 21 08     ..?. .?. .?...!.
     304:	3f fc 21 00 41 10 bf f8 01 00 01 04 ff fe 00 00     ?.!.A...........
     314:	22 04 22 7e 22 44 7f 44 22 44 3e 7c 22 44 3e 44     "."~"D.D"D>|"D>D
     324:	22 44 22 7c ff c4 00 44 24 44 22 84 41 14 82 08     "D"|...D$D".A...
     334:	00 08 3f fc 21 08 21 48 2f e8 21 08 21 28 3f f8     ..?.!.!H/.!.!(?.
     344:	20 48 27 e8 24 48 24 48 24 48 47 c8 84 28 00 10      H'.$H$H$HG..(..
     354:	01 00 02 00 04 10 1f f8 10 10 10 10 1f f0 10 10     ................
     364:	10 10 10 10 1f f0 10 10 10 10 10 10 1f f0 10 10     ................
     374:	00 10 00 f8 7f 00 01 00 01 10 3f f8 01 00 01 00     ..........?.....
     384:	01 04 ff fe 01 00 01 00 01 00 01 00 05 00 02 00     ................
     394:	00 40 08 40 7c 40 00 44 05 fe fe 44 10 44 10 44     .@.@|@.D...D.D.D
     3a4:	20 44 24 44 42 84 fe 84 41 04 01 04 02 28 04 10      D$DB...A....(..
     3b4:	02 00 01 00 3f fc 20 04 40 08 1f e0 00 40 00 80     ....?. .@....@..
     3c4:	01 04 ff fe 01 00 01 00 01 00 01 00 05 00 02 00     ................
     3d4:	10 80 10 80 10 80 20 88 2f fc 62 a0 a2 a0 24 90     ...... ./.b...$.
     3e4:	24 90 28 88 2b ee 30 84 20 80 20 80 20 80 20 80     $.(.+.0. . . . .
     3f4:	10 40 10 20 10 04 13 fe fc 00 10 88 31 06 3a 8a     .@. ........1.:.
     404:	54 88 50 50 90 50 10 20 10 50 10 88 13 0e 1c 04     T.PP.P. .P......
     414:	10 00 10 00 10 04 12 7e ff 44 12 44 12 44 12 44     .......~.D.D.D.D
     424:	12 44 22 44 22 44 22 44 22 44 4a 7c 84 44 00 00     .D"D"D"D"DJ|.D..
     434:	00 10 40 18 30 14 17 fe 04 10 04 10 0d d0 14 14     ..@.0...........
     444:	25 d4 e5 54 25 54 25 58 25 d0 25 2a 08 46 10 82     %..T%T%X%.%*.F..
     454:	10 00 10 08 1f fc 20 10 5f f8 12 10 11 10 10 14     ...... ._.......
     464:	ff fe 12 10 21 10 20 10 3f f8 00 20 00 a0 00 40     ....!. .?.. ...@
     474:	10 04 09 fe 7f 20 22 44 14 fe 7f 84 44 94 48 94     ..... "D....D.H.
     484:	52 94 44 a4 48 a4 52 a4 44 a4 48 48 90 86 21 02     R.D.H.R.D.HH..!.
     494:	04 00 04 00 07 f0 08 20 08 48 1f fc 28 88 48 88     ....... .H..(.H.
     4a4:	08 88 0f f8 08 08 08 00 08 02 08 02 07 fe 00 00     ................
     4b4:	10 10 08 20 04 48 3f fc 21 08 21 08 3f f8 21 08     ... .H?.!.!.?.!.
     4c4:	21 08 3f f8 21 00 01 04 ff fe 01 00 01 00 01 00     !.?.!...........
     4d4:	10 00 10 08 23 fc 20 20 44 20 f8 20 10 20 20 20     ....#.  D . .   
     4e4:	40 20 fc 20 40 20 00 20 1c 20 e0 24 47 fe 00 00     @ . @ . . .$G...
     4f4:	10 08 13 fc 20 08 21 f8 44 08 ff fe 10 40 22 44     .... .!.D....@"D
     504:	41 4c f9 50 00 e0 01 50 1a 48 e4 4e 41 44 00 80     AL.P...P.H.NAD..
     514:	04 40 04 50 3f f8 04 40 04 44 ff fe 01 10 1f f8     .@.P?..@.D......
     524:	11 10 1f f0 11 10 1f f0 10 00 04 60 18 18 60 04     ...........`..`.
     534:	02 00 01 04 3f fe 20 00 20 70 2f 80 28 80 28 88     ....?. . p/.(.(.
     544:	2f fc 28 80 28 80 28 40 4a 40 4d a4 88 94 00 0c     /.(.(.(@J@M.....
     554:	00 08 4f fc 21 00 21 10 07 f8 02 10 e2 14 3f fe     ..O.!.!.......?.
     564:	20 00 20 08 27 fc 24 08 2c 08 34 08 27 f8 04 08      . .'.$.,.4.'...
     574:	02 00 01 10 3f f8 08 20 04 20 04 44 ff fe 00 10     ....?.. . .D....
     584:	1f f8 10 10 10 10 1f f0 10 10 10 10 1f f0 10 10     ................
     594:	10 08 11 fc 11 08 11 08 fd 28 11 10 15 00 19 f8     .........(......
     5a4:	31 08 d1 90 11 50 11 20 11 50 11 8e 51 04 21 00     1....P. .P..Q.!.
     5b4:	00 08 7f fc 01 00 01 00 01 00 01 00 11 10 11 f8     ................
     5c4:	11 00 11 00 11 00 11 00 11 00 11 04 ff fe 00 00     ................
     5d4:	01 00 11 10 09 20 7f fe 40 02 8f e4 08 20 0f e0     ..... ..@.... ..
     5e4:	01 10 1f f8 11 10 11 10 11 10 11 50 01 20 01 00     ...........P. ..
     5f4:	10 00 10 00 10 04 1f fe 24 44 44 44 84 44 08 44     ........$DDD.D.D
     604:	08 84 08 84 10 84 11 04 21 04 42 04 04 28 08 10     ........!.B..(..
     614:	10 40 10 50 10 48 10 40 fc 44 13 fe 14 40 18 60     .@.P.H.@.D...@.`
     624:	30 a0 d0 a0 10 a0 10 a0 11 22 11 22 52 1e 24 00     0........"."R.$.
     634:	10 10 08 18 04 20 04 48 7f fc 01 00 01 00 01 04     ..... .H........
     644:	ff fe 01 00 02 80 02 80 04 40 08 30 30 0e c0 04     .........@.00...
     654:	20 04 1b fe 08 04 40 84 40 a4 5f f4 40 84 41 84      .....@.@._.@.A.
     664:	42 84 44 84 48 84 50 84 40 84 42 84 41 14 40 08     B.D.H.P.@.B.A.@.

00000674 <SCROLL_STYLE3>:
     674:	7c 82 82 82 82 82 82 82 82 7c 10 30 50 10 10 10     |........|.0P...
     684:	10 10 10 fe 7c 82 02 02 02 7c 80 80 80 fe 7c 82     ....|....|....|.
     694:	02 02 02 7c 02 02 82 7c 88 88 88 88 88 fe 08 08     ...|...|........
     6a4:	08 08 fe 80 80 80 80 fc 02 02 82 7c 80 80 80 80     ...........|....
     6b4:	80 fc 82 82 82 7c fe 02 02 02 02 02 02 02 02 02     .....|..........
     6c4:	7c 82 82 82 82 fe 82 82 82 7c 7c 82 82 82 82 7e     |........||....~
     6d4:	02 02 02 02 40 7e 88 7e 48 48 fe 08 08 08 7e 42     ....@~.~HH....~B
     6e4:	42 7e 42 42 7e 42 46 82 7e 92 ba 92 ba 82 ba aa     B~BB~BF.~.......
     6f4:	ba 86 bc 42 40 40 40 40 40 40 42 3c 00 00 00 00     ...B@@@@@@B<....
     704:	fe 00 00 00 00 00 00 00 00 7e 00 00 00 ff 00 00     .........~......
     714:	00 7e 00 00 00 3c 00 00 00 ff ff a9 a9 a9 a9 a9     .~...<..........
     724:	c7 81 ff 81 7e 10 10 10 7c 14 14 14 14 ff 20 10     ....~...|..... .
     734:	fe 00 44 44 44 44 44 82 7e 42 42 42 7e 42 42 42     ..DDDDD.~BBB~BBB
     744:	42 7e 00 00 00 00 00 00 00 00 18 18 00 00 00 00     B~..............
     754:	00 00 00 00 00 00                                   ......

0000075a <SCROLL_STYLE2>:
     75a:	fe 82 82 82 82 82 82 82 82 fe 10 10 10 10 10 10     ................
     76a:	10 10 10 10 fe 02 02 02 02 fe 80 80 80 fe fe 02     ................
     77a:	02 02 02 fe 02 02 02 fe 82 82 82 82 82 fe 02 02     ................
     78a:	02 02 fe 80 80 80 80 fe 02 02 02 fe fe 80 80 80     ................
     79a:	80 fe 82 82 82 fe fe 02 02 02 02 02 02 02 02 02     ................
     7aa:	fe 82 82 82 82 fe 82 82 82 fe fe 82 82 82 82 fe     ................
     7ba:	02 02 02 fe 80 fe 88 7e 48 48 fe 08 08 08 7e 42     .......~HH....~B
     7ca:	42 7e 42 42 7e 42 42 46 fe 92 ba 92 ba 82 ba aa     B~BB~BBF........
     7da:	ba 86 df d0 10 10 10 10 10 10 10 1f 00 00 00 00     ................
     7ea:	fe 00 00 00 00 00 00 7c 00 00 00 00 00 00 00 fe     .......|........
     7fa:	fe 00 00 00 7c 00 00 00 00 fe fe aa aa aa aa ee     ....|...........
     80a:	82 82 82 fe fe 20 20 20 fc 24 24 24 24 fe 20 10     .....   .$$$$. .
     81a:	10 fe 44 44 44 44 44 44 7e 42 42 42 7e 42 42 42     ..DDDDDD~BBB~BBB
     82a:	42 7e 00 00 00 00 00 00 00 00 18 18 00 00 00 00     B~..............
     83a:	00 00 00 00 00 00                                   ......

00000840 <SCROLL_STYLE1>:
     840:	7c 82 82 82 82 82 82 82 82 7c 10 30 50 10 10 10     |........|.0P...
     850:	10 10 10 fe 38 44 82 82 04 08 10 20 40 fe 7c 82     ....8D..... @.|.
     860:	02 02 3c 02 02 82 82 7c 06 0c 14 24 44 84 fe 04     ..<....|...$D...
     870:	04 04 fe 80 80 fc 02 02 02 82 82 7c 7c 82 80 80     ...........||...
     880:	fc 82 82 82 82 7c 7e 82 02 04 08 10 20 20 20 20     .....|~.....    
     890:	7c 82 82 82 7c 82 82 82 82 7c 7c 82 82 82 82 7e     |...|....||....~
     8a0:	02 02 82 7c 40 7e 88 7e 48 48 fe 08 08 08 7e 42     ...|@~.~HH....~B
     8b0:	42 7e 42 42 7e 42 46 82 7e 92 ba 92 ba 82 ba aa     B~BB~BF.~.......
     8c0:	ba 86 08 7e 54 7e 5c 40 5c 54 48 96 00 00 00 00     ...~T~\@\TH.....
     8d0:	fe 00 00 00 00 00 00 00 00 7e 00 00 00 ff 00 00     .........~......
     8e0:	00 7e 00 00 00 3c 00 00 00 ff ff a9 a9 a9 a9 a9     .~...<..........
     8f0:	c7 81 ff 81 7e 10 10 10 7c 14 14 14 14 ff 30 18     ....~...|.....0.
     900:	08 ff 00 24 24 66 66 c2 7f 41 41 41 7f 41 41 41     ...$$ff..AAA.AAA
     910:	41 7f 00 00 00 00 00 00 00 00 18 18 00 00 00 00     A...............
     920:	00 00 00 00 00 00                                   ......

00000926 <SCROLL>:
     926:	7c 82 82 82 82 82 82 82 82 7c 10 30 50 10 10 10     |........|.0P...
     936:	10 10 10 fe 38 44 82 82 04 08 10 20 40 fe 7c 82     ....8D..... @.|.
     946:	02 02 3c 02 02 82 82 7c 06 0c 14 24 44 84 fe 04     ..<....|...$D...
     956:	04 04 fe 80 80 fc 02 02 02 82 82 7c 7c 82 80 80     ...........||...
     966:	fc 82 82 82 82 7c 7e 82 02 04 08 10 20 20 20 20     .....|~.....    
     976:	7c 82 82 82 7c 82 82 82 82 7c 7c 82 82 82 82 7e     |...|....||....~
     986:	02 02 82 7c 40 7e 88 7e 48 48 fe 08 08 08 7e 42     ...|@~.~HH....~B
     996:	42 7e 42 42 7e 42 46 82 7e 92 ba 92 ba 82 ba aa     B~BB~BF.~.......
     9a6:	ba 86 08 7e 54 7e 5c 40 5c 54 48 96 00 00 00 00     ...~T~\@\TH.....
     9b6:	fe 00 00 00 00 00 00 00 00 7e 00 00 00 ff 00 00     .........~......
     9c6:	00 7e 00 00 00 3c 00 00 00 ff ff a9 a9 a9 a9 a9     .~...<..........
     9d6:	c7 81 ff 81 7e 10 10 10 7c 14 14 14 14 ff 30 18     ....~...|.....0.
     9e6:	08 ff 00 24 24 66 66 c2 7f 41 41 41 7f 41 41 41     ...$$ff..AAA.AAA
     9f6:	41 7f 00 00 00 00 00 00 00 00 18 18 00 00 00 00     A...............
     a06:	00 00 00 00 00 00 02 e2 bf a2 ea aa a2 aa e6 02     ................
     a16:	38 24 24 42 bd 24 24 24 44 8c 10 ff 3c 24 3c ff     8$$B.$$$D...<$<.
     a26:	81 3c 24 47 20 3e 40 be 2a ff 32 7e 02 04 40 40     .<$G >@.*.2~..@@
     a36:	40 f7 55 55 55 57 50 b0 5c 14 d4 76 40 5c 54 54     @.UUUWP.\..v@\TT
     a46:	68 56 7e 5a 7e ff 7e 42 7e 7e 42 ff 00 00 00 00     hV~Z~.~B~~B.....
     a56:	00 60 60 00 60 60 10 10 7e 42 7e 42 7e 42 7e 42     .``.``..~B~B~B~B
     a66:	04 7e 08 7e 08 ff 08 08 28 18 02 02 bf 62 3a 22     .~.~....(....b:"
     a76:	7a bb 22 45 48 48 7e d4 62 54 d4 48 54 62 10 fe     z."EHH~.bT.HTb..
     a86:	92 fe 92 92 fe 10 12 1e fe 04 08 10 fe 10 10 10     ................
     a96:	50 30 fe 40 50 7e 52 52 52 52 52 a4 00 00 00 00     P0.@P~RRRRR.....
     aa6:	7e 7e 00 00 00 00 7e 41 41 41 7e 41 41 41 41 7e     ~~....~AAA~AAAA~
     ab6:	41 41 22 14 08 14 22 22 41 41 41 41 41 22 14 08     AA"...""AAAAA"..
     ac6:	08 08 08 08 fe 82 82 82 fe 82 82 82 82 fe 84 5f     ..............._
     ad6:	c4 5f 55 5f 44 4e 55 bf 08 ff 81 7e 04 ff 08 08     ._U_DNU....~....
     ae6:	38 08 24 44 ff 4e 55 55 5f 65 44 44                 8.$D.NUU_eDD

00000af2 <BIG_NUMBER_STYLE3>:
     af2:	3f e0 7f f0 ff f8 e0 38 e0 38 e0 38 e0 38 e0 38     ?......8.8.8.8.8
     b02:	e0 38 e0 38 e0 38 e0 38 e0 38 e0 38 e0 38 e0 38     .8.8.8.8.8.8.8.8
     b12:	e0 38 e0 38 ff f8 7f f0 3f e0 07 00 0f 00 1f 00     .8.8....?.......
     b22:	1f 00 1f 00 07 00 07 00 07 00 07 00 07 00 07 00     ................
     b32:	07 00 07 00 07 00 07 00 07 00 07 00 07 00 ff f8     ................
     b42:	ff f8 ff f8 3f e0 7f f0 ff f8 e0 38 00 38 00 38     ....?......8.8.8
     b52:	00 38 00 38 00 38 3f f8 7f f0 ff e0 e0 00 e0 00     .8.8.8?.........
     b62:	e0 00 e0 00 e0 00 e0 00 ff f8 ff f8 ff f8 3f e0     ..............?.
     b72:	7f f0 ff f8 e0 38 00 38 00 38 00 38 00 38 00 38     .....8.8.8.8.8.8
     b82:	1f f0 1f e0 1f f0 00 38 00 38 00 38 00 38 00 38     .......8.8.8.8.8
     b92:	e0 38 ff f8 7f f0 3f e0 e1 c0 e1 c0 e1 c0 e1 c0     .8....?.........
     ba2:	e1 c0 e1 c0 e1 c0 e1 c0 e1 c0 ff f8 ff f8 ff f8     ................
     bb2:	01 c0 01 c0 01 c0 01 c0 01 c0 01 c0 01 c0 01 c0     ................
     bc2:	01 c0 ff f8 ff f8 ff f8 e0 00 e0 00 e0 00 e0 00     ................
     bd2:	e0 00 e0 00 ff e0 ff f0 ff f8 00 38 00 38 00 38     ...........8.8.8
     be2:	00 38 00 38 e0 38 ff f8 7f f0 3f e0 e0 00 e0 00     .8.8.8....?.....
     bf2:	e0 00 e0 00 e0 00 e0 00 e0 00 e0 00 e0 00 ff e0     ................
     c02:	ff f0 ff f8 e0 38 e0 38 e0 38 e0 38 e0 38 e0 38     .....8.8.8.8.8.8
     c12:	ff f8 7f f0 3f e0 ff f8 ff f8 ff f8 00 38 00 38     ....?........8.8
     c22:	00 38 00 38 00 38 00 38 00 38 00 38 00 38 00 38     .8.8.8.8.8.8.8.8
     c32:	00 38 00 38 00 38 00 38 00 38 00 38 00 38 00 38     .8.8.8.8.8.8.8.8
     c42:	3f e0 7f f0 ff f8 e0 38 e0 38 e0 38 e0 38 e0 38     ?......8.8.8.8.8
     c52:	70 70 3f e0 1f c0 3f e0 70 70 e0 38 e0 38 e0 38     pp?...?.pp.8.8.8
     c62:	e0 38 e0 38 ff f8 7f f0 3f e0 3f e0 7f f0 ff f8     .8.8....?.?.....
     c72:	e0 38 e0 38 e0 38 e0 38 e0 38 e0 38 ff f8 7f f8     .8.8.8.8.8.8....
     c82:	3f f8 00 38 00 38 00 38 00 38 00 38 00 38 00 38     ?..8.8.8.8.8.8.8
     c92:	00 38 00 38                                         .8.8

00000c96 <BIG_NUMBER_STYLE2>:
     c96:	ff f8 ff f8 ff f8 e0 38 e0 38 e0 38 e0 38 e0 38     .......8.8.8.8.8
     ca6:	e0 38 e0 38 e0 38 e0 38 e0 38 e0 38 e0 38 e0 38     .8.8.8.8.8.8.8.8
     cb6:	e0 38 e0 38 ff f8 ff f8 ff f8 07 00 07 00 07 00     .8.8............
     cc6:	07 00 07 00 07 00 07 00 07 00 07 00 07 00 07 00     ................
     cd6:	07 00 07 00 07 00 07 00 07 00 07 00 07 00 07 00     ................
     ce6:	07 00 07 00 ff f8 ff f8 ff f8 00 38 00 38 00 38     ...........8.8.8
     cf6:	00 38 00 38 00 38 ff f8 ff f8 ff f8 e0 00 e0 00     .8.8.8..........
     d06:	e0 00 e0 00 e0 00 e0 00 ff f8 ff f8 ff f8 ff f8     ................
     d16:	ff f8 ff f8 00 38 00 38 00 38 00 38 00 38 00 38     .....8.8.8.8.8.8
     d26:	ff f8 ff f8 ff f8 00 38 00 38 00 38 00 38 00 38     .......8.8.8.8.8
     d36:	00 38 ff f8 ff f8 ff f8 e0 38 e0 38 e0 38 e0 38     .8.......8.8.8.8
     d46:	e0 38 e0 38 e0 38 e0 38 e0 38 ff f8 ff f8 ff f8     .8.8.8.8.8......
     d56:	00 38 00 38 00 38 00 38 00 38 00 38 00 38 00 38     .8.8.8.8.8.8.8.8
     d66:	00 38 ff f8 ff f8 ff f8 e0 00 e0 00 e0 00 e0 00     .8..............
     d76:	e0 00 e0 00 ff f8 ff f8 ff f8 00 38 00 38 00 38     ...........8.8.8
     d86:	00 38 00 38 00 38 ff f8 ff f8 ff f8 ff f8 ff f8     .8.8.8..........
     d96:	ff f8 e0 00 e0 00 e0 00 e0 00 e0 00 e0 00 ff f8     ................
     da6:	ff f8 ff f8 e0 38 e0 38 e0 38 e0 38 e0 38 e0 38     .....8.8.8.8.8.8
     db6:	ff f8 ff f8 ff f8 ff f8 ff f8 ff f8 00 38 00 38     .............8.8
     dc6:	00 38 00 38 00 38 00 38 00 38 00 38 00 38 00 38     .8.8.8.8.8.8.8.8
     dd6:	00 38 00 38 00 38 00 38 00 38 00 38 00 38 00 38     .8.8.8.8.8.8.8.8
     de6:	ff f8 ff f8 ff f8 e0 38 e0 38 e0 38 e0 38 e0 38     .......8.8.8.8.8
     df6:	e0 38 ff f8 ff f8 ff f8 e0 38 e0 38 e0 38 e0 38     .8.......8.8.8.8
     e06:	e0 38 e0 38 ff f8 ff f8 ff f8 ff f8 ff f8 ff f8     .8.8............
     e16:	e0 38 e0 38 e0 38 e0 38 e0 38 e0 38 ff f8 ff f8     .8.8.8.8.8.8....
     e26:	ff f8 00 38 00 38 00 38 00 38 00 38 00 38 ff f8     ...8.8.8.8.8.8..
     e36:	ff f8 ff f8                                         ....

00000e3a <BIG_NUMBER_STYLE1>:
     e3a:	07 80 0f c0 3f e0 38 70 70 70 70 38 70 38 60 38     ....?.8pppp8p8`8
     e4a:	e0 38 e0 38 e0 38 e0 38 e0 38 60 38 70 38 70 30     .8.8.8.8.8`8p8p0
     e5a:	70 70 3c e0 1f e0 0f 80 06 00 03 00 1f 00 ff 00     pp<.............
     e6a:	ff 00 c7 00 07 00 07 00 07 00 07 00 07 00 07 00     ................
     e7a:	07 00 07 00 07 00 07 00 07 00 07 00 07 00 07 00     ................
     e8a:	7f f8 7f f8 0f c0 3f f0 3f f8 30 38 00 38 00 18     ......?.?.08.8..
     e9a:	00 18 00 38 00 38 00 38 00 70 00 e0 01 c0 03 80     ...8.8.8.p......
     eaa:	07 00 0e 00 1c 00 38 00 70 00 7f f8 7f f8 1f 80     ......8.p.......
     eba:	3f e0 3f f0 20 78 00 38 00 38 00 70 00 e0 1f c0     ?.?. x.8.8.p....
     eca:	1f c0 1f f0 00 38 00 38 00 38 00 38 00 38 00 38     .....8.8.8.8.8.8
     eda:	60 f0 7f f0 7f c0 0e 00 01 e0 01 e0 03 e0 03 e0     `...............
     eea:	06 e0 0e e0 1c e0 18 e0 30 e0 70 e0 60 e0 e0 e0     ........0.p.`...
     efa:	c0 e0 ff f8 ff f8 ff f8 00 e0 00 e0 00 e0 00 e0     ................
     f0a:	00 e0 3f f8 3f f8 3f f8 38 00 38 00 38 00 38 00     ..?.?.?.8.8.8.8.
     f1a:	3f 80 3f e0 3f f0 00 78 00 38 00 38 00 18 00 18     ?.?.?..x.8.8....
     f2a:	00 18 00 38 70 f0 7f f0 3f c0 0e 00 03 c0 0f e0     ...8p...?.......
     f3a:	1f f0 3c 00 70 00 70 00 e0 00 e7 c0 ff e0 ff f0     ..<.p.p.........
     f4a:	f0 78 e0 38 e0 38 e0 38 e0 38 e0 38 70 78 78 70     .x.8.8.8.8.8pxxp
     f5a:	3f e0 1f c0 07 00 ff f8 ff f8 ff f0 00 70 00 70     ?............p.p
     f6a:	00 60 00 e0 00 c0 01 c0 01 c0 03 80 03 80 03 00     .`..............
     f7a:	07 00 07 00 0e 00 0e 00 1c 00 1c 00 1c 00 38 00     ..............8.
     f8a:	0f 80 3f e0 7f f0 70 70 e0 70 e0 70 70 70 79 e0     ..?...pp.p.pppy.
     f9a:	1f c0 1f 80 3f e0 70 f0 e0 70 e0 38 c0 38 e0 38     ....?.p..p.8.8.8
     faa:	e0 38 f0 f0 7f f0 3f c0 06 00 1f 80 3f c0 7f e0     .8....?.....?...
     fba:	e0 70 e0 70 c0 30 c0 38 e0 38 e0 78 f0 f8 7f f8     .p.p.0.8.8.x....
     fca:	3f b8 00 30 00 30 00 70 00 70 00 e0 43 e0 7f c0     ?..0.0.p.p..C...
     fda:	7f 00 1c 00                                         ....

00000fde <__init>:
     fde:	11 24       	eor	r1, r1
     fe0:	1f be       	out	0x3f, r1	; 63
     fe2:	cf e5       	ldi	r28, 0x5F	; 95
     fe4:	d4 e0       	ldi	r29, 0x04	; 4
     fe6:	de bf       	out	0x3e, r29	; 62
     fe8:	cd bf       	out	0x3d, r28	; 61

00000fea <__do_copy_data>:
     fea:	10 e0       	ldi	r17, 0x00	; 0
     fec:	a0 e6       	ldi	r26, 0x60	; 96
     fee:	b0 e0       	ldi	r27, 0x00	; 0
     ff0:	ee ec       	ldi	r30, 0xCE	; 206
     ff2:	fa e2       	ldi	r31, 0x2A	; 42
     ff4:	02 c0       	rjmp	.+4      	; 0xffa <.do_copy_data_start>

00000ff6 <.do_copy_data_loop>:
     ff6:	05 90       	lpm	r0, Z+
     ff8:	0d 92       	st	X+, r0

00000ffa <.do_copy_data_start>:
     ffa:	a4 38       	cpi	r26, 0x84	; 132
     ffc:	b1 07       	cpc	r27, r17
     ffe:	d9 f7       	brne	.-10     	; 0xff6 <.do_copy_data_loop>

00001000 <__do_clear_bss>:
    1000:	12 e0       	ldi	r17, 0x02	; 2
    1002:	a4 e8       	ldi	r26, 0x84	; 132
    1004:	b0 e0       	ldi	r27, 0x00	; 0
    1006:	01 c0       	rjmp	.+2      	; 0x100a <.do_clear_bss_start>

00001008 <.do_clear_bss_loop>:
    1008:	1d 92       	st	X+, r1

0000100a <.do_clear_bss_start>:
    100a:	a1 3a       	cpi	r26, 0xA1	; 161
    100c:	b1 07       	cpc	r27, r17
    100e:	e1 f7       	brne	.-8      	; 0x1008 <.do_clear_bss_loop>
    1010:	0c 94 d6 14 	jmp	0x29ac <main>

00001014 <__bad_interrupt>:
    1014:	0c 94 00 00 	jmp	0x0 <__vectors>

00001018 <s_10us>:
//延时函数
void s_10us(unsigned int _10us)
{
	unsigned int aa;
	for(;_10us>=1;_10us--)
    1018:	00 97       	sbiw	r24, 0x00	; 0
    101a:	41 f0       	breq	.+16     	; 0x102c <s_10us+0x14>
	{
		for(aa=0;aa<=66;aa++)
    101c:	2f e3       	ldi	r18, 0x3F	; 63
    101e:	30 e0       	ldi	r19, 0x00	; 0
    1020:	24 50       	subi	r18, 0x04	; 4
    1022:	30 40       	sbci	r19, 0x00	; 0
    1024:	37 ff       	sbrs	r19, 7
    1026:	fc cf       	rjmp	.-8      	; 0x1020 <s_10us+0x8>
    1028:	01 97       	sbiw	r24, 0x01	; 1
    102a:	f6 cf       	rjmp	.-20     	; 0x1018 <s_10us>
    102c:	08 95       	ret

0000102e <_delay_100ms>:
		{;}
	}
}	

void _delay_100ms(unsigned int _100ms)
{
    102e:	cf 93       	push	r28
    1030:	df 93       	push	r29
    1032:	ec 01       	movw	r28, r24
	for(;_100ms>=1;_100ms--)
    1034:	89 2b       	or	r24, r25
    1036:	31 f0       	breq	.+12     	; 0x1044 <_delay_100ms+0x16>
	{
		s_10us(10000);
    1038:	80 e1       	ldi	r24, 0x10	; 16
    103a:	97 e2       	ldi	r25, 0x27	; 39
    103c:	0e 94 0c 08 	call	0x1018 <s_10us>
    1040:	21 97       	sbiw	r28, 0x01	; 1
    1042:	d1 f7       	brne	.-12     	; 0x1038 <_delay_100ms+0xa>
    1044:	df 91       	pop	r29
    1046:	cf 91       	pop	r28
    1048:	08 95       	ret

0000104a <ds1820_reset>:
	}
}

//DS18B20复位
void ds1820_reset(void) 
{
	unsigned char i;
	//中断保护
	init_f = SREG;    
    104a:	8f b7       	in	r24, 0x3f	; 63
    104c:	80 93 90 00 	sts	0x0090, r24
	//关中断
	cli();      
    1050:	f8 94       	cli
	DQ_OUT;
    1052:	8f 9a       	sbi	0x11, 7	; 17
	DQ_LO;
    1054:	97 98       	cbi	0x12, 7	; 18
	s_10us(60);    //延时600us
    1056:	8c e3       	ldi	r24, 0x3C	; 60
    1058:	90 e0       	ldi	r25, 0x00	; 0
    105a:	0e 94 0c 08 	call	0x1018 <s_10us>
	DQ_HI;
    105e:	97 9a       	sbi	0x12, 7	; 18
	DQ_INPUT;
    1060:	8f 98       	cbi	0x11, 7	; 17
	s_10us(5);     //延时50us
    1062:	85 e0       	ldi	r24, 0x05	; 5
    1064:	90 e0       	ldi	r25, 0x00	; 0
    1066:	0e 94 0c 08 	call	0x1018 <s_10us>
	i = DQ_R;
    106a:	80 b3       	in	r24, 0x10	; 16
	s_10us(50);    //延时500us
    106c:	82 e3       	ldi	r24, 0x32	; 50
    106e:	90 e0       	ldi	r25, 0x00	; 0
    1070:	0e 94 0c 08 	call	0x1018 <s_10us>
	if (init_f & 0x80)  //恢复中断状态
    1074:	80 91 90 00 	lds	r24, 0x0090
    1078:	87 ff       	sbrs	r24, 7
    107a:	01 c0       	rjmp	.+2      	; 0x107e <ds1820_reset+0x34>
	{   
		sei();        
    107c:	78 94       	sei
    107e:	08 95       	ret

00001080 <ds1820_read_byte>:
	}
}

//DS18B20字节读取
unsigned char ds1820_read_byte(void) 
{
    1080:	1f 93       	push	r17
    1082:	cf 93       	push	r28
	unsigned char i;
	unsigned char value = 0;
    1084:	10 e0       	ldi	r17, 0x00	; 0
	//中断保护
	init_f = SREG;
    1086:	8f b7       	in	r24, 0x3f	; 63
    1088:	80 93 90 00 	sts	0x0090, r24
	//关中断    
	cli();      
    108c:	f8 94       	cli
	for (i = 8; i != 0; i--) 
    108e:	c8 e0       	ldi	r28, 0x08	; 8
	{
		value >>= 1;
    1090:	16 95       	lsr	r17
		DQ_OUT;
    1092:	8f 9a       	sbi	0x11, 7	; 17
		DQ_LO;
    1094:	97 98       	cbi	0x12, 7	; 18
		s_10us(1);
    1096:	81 e0       	ldi	r24, 0x01	; 1
    1098:	90 e0       	ldi	r25, 0x00	; 0
    109a:	0e 94 0c 08 	call	0x1018 <s_10us>
		DQ_HI;
    109e:	97 9a       	sbi	0x12, 7	; 18
		DQ_INPUT;
    10a0:	8f 98       	cbi	0x11, 7	; 17
		s_10us(1);
    10a2:	81 e0       	ldi	r24, 0x01	; 1
    10a4:	90 e0       	ldi	r25, 0x00	; 0
    10a6:	0e 94 0c 08 	call	0x1018 <s_10us>
		if (DQ_R) 
    10aa:	87 99       	sbic	0x10, 7	; 16
		{
			value|=0x80;
    10ac:	10 68       	ori	r17, 0x80	; 128
		}
		s_10us(3);   //延时30us
    10ae:	83 e0       	ldi	r24, 0x03	; 3
    10b0:	90 e0       	ldi	r25, 0x00	; 0
    10b2:	0e 94 0c 08 	call	0x1018 <s_10us>
    10b6:	c1 50       	subi	r28, 0x01	; 1
    10b8:	59 f7       	brne	.-42     	; 0x1090 <ds1820_read_byte+0x10>
	}
	if (init_f & 0x80) //恢复中断状态
    10ba:	80 91 90 00 	lds	r24, 0x0090
    10be:	87 ff       	sbrs	r24, 7
    10c0:	01 c0       	rjmp	.+2      	; 0x10c4 <ds1820_read_byte+0x44>
	{   
		sei();
    10c2:	78 94       	sei
	}
	return(value);
}
    10c4:	81 2f       	mov	r24, r17
    10c6:	99 27       	eor	r25, r25
    10c8:	cf 91       	pop	r28
    10ca:	1f 91       	pop	r17
    10cc:	08 95       	ret

000010ce <ds1820_write_byte>:

//DS18B20字节写入
void ds1820_write_byte(unsigned char value) 
{
    10ce:	1f 93       	push	r17
    10d0:	cf 93       	push	r28
    10d2:	c8 2f       	mov	r28, r24
	unsigned char i;
	//中断保护
	init_f = SREG;   
    10d4:	8f b7       	in	r24, 0x3f	; 63
    10d6:	80 93 90 00 	sts	0x0090, r24
	//关中断 
	cli();      
    10da:	f8 94       	cli
	for (i = 8; i != 0; i--) 
    10dc:	18 e0       	ldi	r17, 0x08	; 8
	{
		DQ_OUT;
    10de:	8f 9a       	sbi	0x11, 7	; 17
		DQ_LO;
    10e0:	97 98       	cbi	0x12, 7	; 18
		s_10us(1); //延时10us
    10e2:	81 e0       	ldi	r24, 0x01	; 1
    10e4:	90 e0       	ldi	r25, 0x00	; 0
    10e6:	0e 94 0c 08 	call	0x1018 <s_10us>
		if (value & 0x01) 
    10ea:	c0 fd       	sbrc	r28, 0
		{
			DQ_HI;
    10ec:	97 9a       	sbi	0x12, 7	; 18
		}
		s_10us(4);   //延时40us
    10ee:	84 e0       	ldi	r24, 0x04	; 4
    10f0:	90 e0       	ldi	r25, 0x00	; 0
    10f2:	0e 94 0c 08 	call	0x1018 <s_10us>
		DQ_HI;     
    10f6:	97 9a       	sbi	0x12, 7	; 18
		value >>= 1;
    10f8:	c6 95       	lsr	r28
    10fa:	11 50       	subi	r17, 0x01	; 1
    10fc:	81 f7       	brne	.-32     	; 0x10de <ds1820_write_byte+0x10>
	}
	if (init_f & 0x80)//恢复中断状态
    10fe:	80 91 90 00 	lds	r24, 0x0090
    1102:	87 ff       	sbrs	r24, 7
    1104:	01 c0       	rjmp	.+2      	; 0x1108 <ds1820_write_byte+0x3a>
	{   
		sei();
    1106:	78 94       	sei
    1108:	cf 91       	pop	r28
    110a:	1f 91       	pop	r17
    110c:	08 95       	ret

0000110e <ds1820_start>:
	}
}

//启动ds1820转换
void ds1820_start(void) 
{
	ds1820_reset();
    110e:	0e 94 25 08 	call	0x104a <ds1820_reset>
	ds1820_write_byte(0xCC); //勿略ROM
    1112:	8c ec       	ldi	r24, 0xCC	; 204
    1114:	0e 94 67 08 	call	0x10ce <ds1820_write_byte>
	ds1820_write_byte(0x44); //启动转换
    1118:	84 e4       	ldi	r24, 0x44	; 68
    111a:	0e 94 67 08 	call	0x10ce <ds1820_write_byte>
    111e:	08 95       	ret

00001120 <ReadTemputer>:
}

//读温度
void ReadTemputer(void)
 {
    1120:	cf 92       	push	r12
    1122:	df 92       	push	r13
    1124:	ef 92       	push	r14
    1126:	ff 92       	push	r15
    1128:	0f 93       	push	r16
    112a:	1f 93       	push	r17
    112c:	cf 93       	push	r28
    112e:	df 93       	push	r29
    1130:	cd b7       	in	r28, 0x3d	; 61
    1132:	de b7       	in	r29, 0x3e	; 62
    1134:	22 97       	sbiw	r28, 0x02	; 2
    1136:	0f b6       	in	r0, 0x3f	; 63
    1138:	f8 94       	cli
    113a:	de bf       	out	0x3e, r29	; 62
    113c:	0f be       	out	0x3f, r0	; 63
    113e:	cd bf       	out	0x3d, r28	; 61
	unsigned int i,tem3,tem2,tem1;
	unsigned char buf[2], NegativeTem;
	ds1820_reset();
    1140:	0e 94 25 08 	call	0x104a <ds1820_reset>
	ds1820_write_byte(0xCC); //勿略ROM
    1144:	8c ec       	ldi	r24, 0xCC	; 204
    1146:	0e 94 67 08 	call	0x10ce <ds1820_write_byte>
	ds1820_write_byte(0xBE); //读温度
    114a:	8e eb       	ldi	r24, 0xBE	; 190
    114c:	0e 94 67 08 	call	0x10ce <ds1820_write_byte>
	for (i = 0; i < 2; i++) {
    1150:	ee 24       	eor	r14, r14
    1152:	ff 24       	eor	r15, r15
		buf[i] = ds1820_read_byte();
    1154:	6e 01       	movw	r12, r28
    1156:	08 94       	sec
    1158:	c1 1c       	adc	r12, r1
    115a:	d1 1c       	adc	r13, r1
    115c:	87 01       	movw	r16, r14
    115e:	0c 0d       	add	r16, r12
    1160:	1d 1d       	adc	r17, r13
    1162:	0e 94 40 08 	call	0x1080 <ds1820_read_byte>
    1166:	f8 01       	movw	r30, r16
    1168:	80 83       	st	Z, r24
    116a:	08 94       	sec
    116c:	e1 1c       	adc	r14, r1
    116e:	f1 1c       	adc	r15, r1
    1170:	f2 e0       	ldi	r31, 0x02	; 2
    1172:	ef 16       	cp	r14, r31
    1174:	f1 04       	cpc	r15, r1
    1176:	70 f3       	brcs	.-36     	; 0x1154 <ReadTemputer+0x34>
	}
	//uart_send_char(buf[0]);
	//uart_send_char(buf[1]);
	//uart_send_char(0XAA);
	i = buf[1];
    1178:	f6 01       	movw	r30, r12
    117a:	81 81       	ldd	r24, Z+1	; 0x01
    117c:	e8 2e       	mov	r14, r24
    117e:	ff 24       	eor	r15, r15
	i <<= 8;
    1180:	fe 2c       	mov	r15, r14
    1182:	ee 24       	eor	r14, r14
	i |= buf[0];
    1184:	89 81       	ldd	r24, Y+1	; 0x01
    1186:	99 27       	eor	r25, r25
    1188:	e8 2a       	or	r14, r24
    118a:	f9 2a       	or	r15, r25
	if((i & 0xF000) == 0xF000) //负温度
    118c:	c7 01       	movw	r24, r14
    118e:	80 70       	andi	r24, 0x00	; 0
    1190:	90 7f       	andi	r25, 0xF0	; 240
    1192:	80 50       	subi	r24, 0x00	; 0
    1194:	90 4f       	sbci	r25, 0xF0	; 240
    1196:	31 f4       	brne	.+12     	; 0x11a4 <ReadTemputer+0x84>
	{
		NegativeTem = 1;
    1198:	41 e0       	ldi	r20, 0x01	; 1
		i = ~i;
		i = i + 1;
    119a:	f0 94       	com	r15
    119c:	e1 94       	neg	r14
    119e:	f1 08       	sbc	r15, r1
    11a0:	f3 94       	inc	r15
    11a2:	01 c0       	rjmp	.+2      	; 0x11a6 <ReadTemputer+0x86>
	}
	else
	{
		NegativeTem = 0;
    11a4:	40 e0       	ldi	r20, 0x00	; 0
	}
	tem1 = i & 0x000f;
    11a6:	97 01       	movw	r18, r14
    11a8:	2f 70       	andi	r18, 0x0F	; 15
    11aa:	30 70       	andi	r19, 0x00	; 0
	tem1 = (tem1*625)/1000;
    11ac:	81 e7       	ldi	r24, 0x71	; 113
    11ae:	92 e0       	ldi	r25, 0x02	; 2
    11b0:	28 9f       	mul	r18, r24
    11b2:	b0 01       	movw	r22, r0
    11b4:	29 9f       	mul	r18, r25
    11b6:	70 0d       	add	r23, r0
    11b8:	38 9f       	mul	r19, r24
    11ba:	70 0d       	add	r23, r0
    11bc:	11 24       	eor	r1, r1
    11be:	cb 01       	movw	r24, r22
    11c0:	68 ee       	ldi	r22, 0xE8	; 232
    11c2:	73 e0       	ldi	r23, 0x03	; 3
    11c4:	0e 94 3f 15 	call	0x2a7e <__udivmodhi4>
    11c8:	9b 01       	movw	r18, r22
	i = (i * 10) / 16;        //数值处理  
    11ca:	c7 01       	movw	r24, r14
    11cc:	53 e0       	ldi	r21, 0x03	; 3
    11ce:	88 0f       	add	r24, r24
    11d0:	99 1f       	adc	r25, r25
    11d2:	5a 95       	dec	r21
    11d4:	e1 f7       	brne	.-8      	; 0x11ce <ReadTemputer+0xae>
    11d6:	8e 0d       	add	r24, r14
    11d8:	9f 1d       	adc	r25, r15
    11da:	8e 0d       	add	r24, r14
    11dc:	9f 1d       	adc	r25, r15
	//第3位没有显示
	i = i % 1000;  
    11de:	34 e0       	ldi	r19, 0x04	; 4
    11e0:	96 95       	lsr	r25
    11e2:	87 95       	ror	r24
    11e4:	3a 95       	dec	r19
    11e6:	e1 f7       	brne	.-8      	; 0x11e0 <ReadTemputer+0xc0>
    11e8:	68 ee       	ldi	r22, 0xE8	; 232
    11ea:	73 e0       	ldi	r23, 0x03	; 3
    11ec:	0e 94 3f 15 	call	0x2a7e <__udivmodhi4>
    11f0:	7c 01       	movw	r14, r24
	//显示第2位
	tem3= i / 100;
    11f2:	64 e6       	ldi	r22, 0x64	; 100
    11f4:	70 e0       	ldi	r23, 0x00	; 0
    11f6:	0e 94 3f 15 	call	0x2a7e <__udivmodhi4>
	if(NegativeTem == 1)
    11fa:	41 30       	cpi	r20, 0x01	; 1
    11fc:	21 f4       	brne	.+8      	; 0x1206 <ReadTemputer+0xe6>
	{
		TemperatureTen = 14; // - 符号
    11fe:	8e e0       	ldi	r24, 0x0E	; 14
    1200:	80 93 76 00 	sts	0x0076, r24
    1204:	02 c0       	rjmp	.+4      	; 0x120a <ReadTemputer+0xea>
	}
	else
	{
		TemperatureTen = tem3;
    1206:	60 93 76 00 	sts	0x0076, r22
	}
	i = i % 100;  
    120a:	c7 01       	movw	r24, r14
    120c:	64 e6       	ldi	r22, 0x64	; 100
    120e:	70 e0       	ldi	r23, 0x00	; 0
    1210:	0e 94 3f 15 	call	0x2a7e <__udivmodhi4>
	//显示第1位
	tem2= i / 10;
    1214:	6a e0       	ldi	r22, 0x0A	; 10
    1216:	70 e0       	ldi	r23, 0x00	; 0
    1218:	0e 94 3f 15 	call	0x2a7e <__udivmodhi4>
	TemperatureOne = tem2;
    121c:	60 93 77 00 	sts	0x0077, r22
	TemperatureDecimal = tem1;
    1220:	20 93 78 00 	sts	0x0078, r18
    1224:	22 96       	adiw	r28, 0x02	; 2
    1226:	0f b6       	in	r0, 0x3f	; 63
    1228:	f8 94       	cli
    122a:	de bf       	out	0x3e, r29	; 62
    122c:	0f be       	out	0x3f, r0	; 63
    122e:	cd bf       	out	0x3d, r28	; 61
    1230:	df 91       	pop	r29
    1232:	cf 91       	pop	r28
    1234:	1f 91       	pop	r17
    1236:	0f 91       	pop	r16
    1238:	ff 90       	pop	r15
    123a:	ef 90       	pop	r14
    123c:	df 90       	pop	r13
    123e:	cf 90       	pop	r12
    1240:	08 95       	ret

00001242 <SaveRunParameter>:
#define _EEPROM_SELF_H_

void SaveRunParameter()
{
	cli(); //关闭所有中断
    1242:	f8 94       	cli
	if(eeprom_is_ready())
    1244:	8c b3       	in	r24, 0x1c	; 28
    1246:	99 27       	eor	r25, r25
    1248:	dc 01       	movw	r26, r24
    124a:	a2 70       	andi	r26, 0x02	; 2
    124c:	b0 70       	andi	r27, 0x00	; 0
    124e:	81 fd       	sbrc	r24, 1
    1250:	43 c0       	rjmp	.+134    	; 0x12d8 <SaveRunParameter+0x96>
    Write a byte \c value to EEPROM address \c addr. */

void 
eeprom_write_byte (uint8_t *addr,uint8_t value)
{
    1252:	8c ec       	ldi	r24, 0xCC	; 204
  asm volatile (
    1254:	08 2e       	mov	r0, r24
    1256:	0e 94 5b 15 	call	0x2ab6 <__eeprom_write_byte_1C1D1E>
    125a:	a1 e0       	ldi	r26, 0x01	; 1
    125c:	b0 e0       	ldi	r27, 0x00	; 0
    125e:	80 91 79 00 	lds	r24, 0x0079
    1262:	08 2e       	mov	r0, r24
    1264:	0e 94 5b 15 	call	0x2ab6 <__eeprom_write_byte_1C1D1E>
    1268:	a2 e0       	ldi	r26, 0x02	; 2
    126a:	b0 e0       	ldi	r27, 0x00	; 0
    126c:	80 91 7a 00 	lds	r24, 0x007A
    1270:	08 2e       	mov	r0, r24
    1272:	0e 94 5b 15 	call	0x2ab6 <__eeprom_write_byte_1C1D1E>
    1276:	a3 e0       	ldi	r26, 0x03	; 3
    1278:	b0 e0       	ldi	r27, 0x00	; 0
    127a:	80 91 7b 00 	lds	r24, 0x007B
    127e:	08 2e       	mov	r0, r24
    1280:	0e 94 5b 15 	call	0x2ab6 <__eeprom_write_byte_1C1D1E>
    1284:	a4 e0       	ldi	r26, 0x04	; 4
    1286:	b0 e0       	ldi	r27, 0x00	; 0
    1288:	80 91 7c 00 	lds	r24, 0x007C
    128c:	08 2e       	mov	r0, r24
    128e:	0e 94 5b 15 	call	0x2ab6 <__eeprom_write_byte_1C1D1E>
    1292:	a5 e0       	ldi	r26, 0x05	; 5
    1294:	b0 e0       	ldi	r27, 0x00	; 0
    1296:	80 91 7d 00 	lds	r24, 0x007D
    129a:	08 2e       	mov	r0, r24
    129c:	0e 94 5b 15 	call	0x2ab6 <__eeprom_write_byte_1C1D1E>
    12a0:	a6 e0       	ldi	r26, 0x06	; 6
    12a2:	b0 e0       	ldi	r27, 0x00	; 0
    12a4:	80 91 7e 00 	lds	r24, 0x007E
    12a8:	08 2e       	mov	r0, r24
    12aa:	0e 94 5b 15 	call	0x2ab6 <__eeprom_write_byte_1C1D1E>
    12ae:	a7 e0       	ldi	r26, 0x07	; 7
    12b0:	b0 e0       	ldi	r27, 0x00	; 0
    12b2:	80 91 7f 00 	lds	r24, 0x007F
    12b6:	08 2e       	mov	r0, r24
    12b8:	0e 94 5b 15 	call	0x2ab6 <__eeprom_write_byte_1C1D1E>
    12bc:	a8 e0       	ldi	r26, 0x08	; 8
    12be:	b0 e0       	ldi	r27, 0x00	; 0
    12c0:	80 91 81 00 	lds	r24, 0x0081
    12c4:	08 2e       	mov	r0, r24
    12c6:	0e 94 5b 15 	call	0x2ab6 <__eeprom_write_byte_1C1D1E>
    12ca:	a9 e0       	ldi	r26, 0x09	; 9
    12cc:	b0 e0       	ldi	r27, 0x00	; 0
    12ce:	80 91 82 00 	lds	r24, 0x0082
    12d2:	08 2e       	mov	r0, r24
    12d4:	0e 94 5b 15 	call	0x2ab6 <__eeprom_write_byte_1C1D1E>
		eeprom_write_byte(0x07, AjustTimeOne);
		eeprom_write_byte(0x08, Display_color);
		eeprom_write_byte(0x09, Display_BigNumber_Font);
	}
	sei(); //使能中断
    12d8:	78 94       	sei
    12da:	08 95       	ret

000012dc <ReadRunParameter>:
}

void ReadRunParameter()
{
	cli(); //关闭所有中断
    12dc:	f8 94       	cli
	if(eeprom_is_ready())
    12de:	8c b3       	in	r24, 0x1c	; 28
    12e0:	99 27       	eor	r25, r25
    12e2:	dc 01       	movw	r26, r24
    12e4:	a2 70       	andi	r26, 0x02	; 2
    12e6:	b0 70       	andi	r27, 0x00	; 0
    12e8:	81 fd       	sbrc	r24, 1
    12ea:	46 c0       	rjmp	.+140    	; 0x1378 <ReadRunParameter+0x9c>
uint8_t 
eeprom_read_byte (const uint8_t *addr) 
{
  uint8_t result;
  asm volatile
    12ec:	0e 94 53 15 	call	0x2aa6 <__eeprom_read_byte_1C1D1E>
    12f0:	80 2d       	mov	r24, r0
    12f2:	8c 3c       	cpi	r24, 0xCC	; 204
    12f4:	09 f0       	breq	.+2      	; 0x12f8 <ReadRunParameter+0x1c>
    12f6:	38 c0       	rjmp	.+112    	; 0x1368 <ReadRunParameter+0x8c>
    12f8:	a1 e0       	ldi	r26, 0x01	; 1
    12fa:	b0 e0       	ldi	r27, 0x00	; 0
    12fc:	0e 94 53 15 	call	0x2aa6 <__eeprom_read_byte_1C1D1E>
    1300:	80 2d       	mov	r24, r0
    1302:	80 93 79 00 	sts	0x0079, r24
    1306:	a2 e0       	ldi	r26, 0x02	; 2
    1308:	b0 e0       	ldi	r27, 0x00	; 0
    130a:	0e 94 53 15 	call	0x2aa6 <__eeprom_read_byte_1C1D1E>
    130e:	80 2d       	mov	r24, r0
    1310:	80 93 7a 00 	sts	0x007A, r24
    1314:	a3 e0       	ldi	r26, 0x03	; 3
    1316:	b0 e0       	ldi	r27, 0x00	; 0
    1318:	0e 94 53 15 	call	0x2aa6 <__eeprom_read_byte_1C1D1E>
    131c:	80 2d       	mov	r24, r0
    131e:	80 93 7b 00 	sts	0x007B, r24
    1322:	a5 e0       	ldi	r26, 0x05	; 5
    1324:	b0 e0       	ldi	r27, 0x00	; 0
    1326:	0e 94 53 15 	call	0x2aa6 <__eeprom_read_byte_1C1D1E>
    132a:	80 2d       	mov	r24, r0
    132c:	80 93 7d 00 	sts	0x007D, r24
    1330:	a6 e0       	ldi	r26, 0x06	; 6
    1332:	b0 e0       	ldi	r27, 0x00	; 0
    1334:	0e 94 53 15 	call	0x2aa6 <__eeprom_read_byte_1C1D1E>
    1338:	80 2d       	mov	r24, r0
    133a:	80 93 7e 00 	sts	0x007E, r24
    133e:	a7 e0       	ldi	r26, 0x07	; 7
    1340:	b0 e0       	ldi	r27, 0x00	; 0
    1342:	0e 94 53 15 	call	0x2aa6 <__eeprom_read_byte_1C1D1E>
    1346:	80 2d       	mov	r24, r0
    1348:	80 93 7f 00 	sts	0x007F, r24
    134c:	a8 e0       	ldi	r26, 0x08	; 8
    134e:	b0 e0       	ldi	r27, 0x00	; 0
    1350:	0e 94 53 15 	call	0x2aa6 <__eeprom_read_byte_1C1D1E>
    1354:	80 2d       	mov	r24, r0
    1356:	80 93 81 00 	sts	0x0081, r24
    135a:	a9 e0       	ldi	r26, 0x09	; 9
    135c:	b0 e0       	ldi	r27, 0x00	; 0
    135e:	0e 94 53 15 	call	0x2aa6 <__eeprom_read_byte_1C1D1E>
    1362:	80 2d       	mov	r24, r0
    1364:	80 93 82 00 	sts	0x0082, r24
			AjustTimeOne = 			eeprom_read_byte(0x07);	
			Display_color = 		eeprom_read_byte(0x08);
			Display_BigNumber_Font = eeprom_read_byte(0x09);
		}
		SET_DISPLAY_LIGHT;
    1368:	90 91 7a 00 	lds	r25, 0x007A
    136c:	89 e1       	ldi	r24, 0x19	; 25
    136e:	98 9f       	mul	r25, r24
    1370:	c0 01       	movw	r24, r0
    1372:	11 24       	eor	r1, r1
    1374:	88 51       	subi	r24, 0x18	; 24
    1376:	8c bf       	out	0x3c, r24	; 60
	}
	sei(); //使能中断
    1378:	78 94       	sei
    137a:	08 95       	ret

0000137c <LED_SCREEN_INI>:
uint16 FreshDisplayBufferCount; /*刷新显示缓存时间计数器*/

void LED_SCREEN_INI()
{
	LS138_E_DDR |= 1<<LS138_E_BIT;
    137c:	bb 9a       	sbi	0x17, 3	; 23
	LS138_A_DDR |= 1<<LS138_A_BIT;
    137e:	b8 9a       	sbi	0x17, 0	; 23
	LS138_B_DDR |= 1<<LS138_B_BIT;
    1380:	b9 9a       	sbi	0x17, 1	; 23
	LS138_C_DDR |= 1<<LS138_C_BIT;
    1382:	ba 9a       	sbi	0x17, 2	; 23
	LS138_D_DDR |= 1<<LS138_D_BIT;
    1384:	bc 9a       	sbi	0x17, 4	; 23
	HC595_D0_DDR |= 1<<HC595_D0_BIT;
    1386:	8c 9a       	sbi	0x11, 4	; 17
	HC595_D1_DDR |= 1<<HC595_D1_BIT;
    1388:	8d 9a       	sbi	0x11, 5	; 17
	HC595_D2_DDR |= 1<<HC595_D2_BIT;
    138a:	d1 9a       	sbi	0x1a, 1	; 26
	HC595_D3_DDR |= 1<<HC595_D3_BIT;
    138c:	d2 9a       	sbi	0x1a, 2	; 26
	HC595_LAT_DDR |= 1<<HC595_LAT_BIT;
    138e:	8a 9a       	sbi	0x11, 2	; 17
	HC595_SCK_DDR |= 1<<HC595_SCK_BIT;
    1390:	8b 9a       	sbi	0x11, 3	; 17

	display_cnt = 0;
    1392:	10 92 88 02 	sts	0x0288, r1
	halfSecondCount = 0;
    1396:	10 92 86 02 	sts	0x0286, r1
    139a:	10 92 85 02 	sts	0x0285, r1
	isSecondCountShow = 0;
    139e:	10 92 87 02 	sts	0x0287, r1
	currentMoveLeft = 0;
    13a2:	10 92 8b 02 	sts	0x028B, r1
	moveSpeedTimerCount = 0;
    13a6:	10 92 8f 00 	sts	0x008F, r1
    13aa:	10 92 8e 00 	sts	0x008E, r1
	FreshDisplayBufferCount = 0;
    13ae:	10 92 96 02 	sts	0x0296, r1
    13b2:	10 92 95 02 	sts	0x0295, r1
    13b6:	08 95       	ret

000013b8 <clearScreen>:
}

void clearScreen()
{
	memset(display_buffer,0x00,256);
    13b8:	80 e0       	ldi	r24, 0x00	; 0
    13ba:	91 e0       	ldi	r25, 0x01	; 1
    13bc:	e1 e9       	ldi	r30, 0x91	; 145
    13be:	f0 e0       	ldi	r31, 0x00	; 0
    13c0:	11 92       	st	Z+, r1
    13c2:	01 97       	sbiw	r24, 0x01	; 1
    13c4:	e9 f7       	brne	.-6      	; 0x13c0 <clearScreen+0x8>
    13c6:	08 95       	ret

000013c8 <fullScreen>:
}

void fullScreen()
{
	memset(display_buffer,0xFF,256);
    13c8:	40 e0       	ldi	r20, 0x00	; 0
    13ca:	51 e0       	ldi	r21, 0x01	; 1
    13cc:	6f ef       	ldi	r22, 0xFF	; 255
    13ce:	70 e0       	ldi	r23, 0x00	; 0
    13d0:	81 e9       	ldi	r24, 0x91	; 145
    13d2:	90 e0       	ldi	r25, 0x00	; 0
    13d4:	0e 94 29 15 	call	0x2a52 <memset>
    13d8:	08 95       	ret

000013da <writeCloclColon>:
}

void writeCloclColon(uint8 isSecondCountShow)
{
    13da:	cf 93       	push	r28
    13dc:	90 91 b5 00 	lds	r25, 0x00B5
    13e0:	20 91 bd 00 	lds	r18, 0x00BD
    13e4:	30 91 c5 00 	lds	r19, 0x00C5
    13e8:	40 91 b4 00 	lds	r20, 0x00B4
    13ec:	50 91 bc 00 	lds	r21, 0x00BC
    13f0:	60 91 c4 00 	lds	r22, 0x00C4
    13f4:	70 91 fd 00 	lds	r23, 0x00FD
    13f8:	e0 91 05 01 	lds	r30, 0x0105
    13fc:	f0 91 0d 01 	lds	r31, 0x010D
    1400:	a0 91 fc 00 	lds	r26, 0x00FC
    1404:	b0 91 04 01 	lds	r27, 0x0104
    1408:	c0 91 0c 01 	lds	r28, 0x010C
	if(isSecondCountShow)
    140c:	88 23       	and	r24, r24
    140e:	19 f1       	breq	.+70     	; 0x1456 <writeCloclColon+0x7c>
	{
		display_buffer[36] |= 0xC0;
    1410:	90 6c       	ori	r25, 0xC0	; 192
    1412:	90 93 b5 00 	sts	0x00B5, r25
		display_buffer[44] |= 0xC0;
    1416:	20 6c       	ori	r18, 0xC0	; 192
    1418:	20 93 bd 00 	sts	0x00BD, r18
		display_buffer[52] |= 0xC0;
    141c:	30 6c       	ori	r19, 0xC0	; 192
    141e:	30 93 c5 00 	sts	0x00C5, r19
		display_buffer[35] |= 0x01;
    1422:	41 60       	ori	r20, 0x01	; 1
    1424:	40 93 b4 00 	sts	0x00B4, r20
		display_buffer[43] |= 0x01;
    1428:	51 60       	ori	r21, 0x01	; 1
    142a:	50 93 bc 00 	sts	0x00BC, r21
		display_buffer[51] |= 0x01;
    142e:	61 60       	ori	r22, 0x01	; 1
    1430:	60 93 c4 00 	sts	0x00C4, r22
	
		display_buffer[108] |= 0xC0;
    1434:	70 6c       	ori	r23, 0xC0	; 192
    1436:	70 93 fd 00 	sts	0x00FD, r23
		display_buffer[116] |= 0xC0;
    143a:	e0 6c       	ori	r30, 0xC0	; 192
    143c:	e0 93 05 01 	sts	0x0105, r30
		display_buffer[124] |= 0xC0;
    1440:	f0 6c       	ori	r31, 0xC0	; 192
    1442:	f0 93 0d 01 	sts	0x010D, r31
		display_buffer[107] |= 0x01;
    1446:	a1 60       	ori	r26, 0x01	; 1
    1448:	a0 93 fc 00 	sts	0x00FC, r26
		display_buffer[115] |= 0x01;
    144c:	b1 60       	ori	r27, 0x01	; 1
    144e:	b0 93 04 01 	sts	0x0104, r27
		display_buffer[123] |= 0x01;
    1452:	c1 60       	ori	r28, 0x01	; 1
    1454:	22 c0       	rjmp	.+68     	; 0x149a <writeCloclColon+0xc0>
	}
	else
	{
		display_buffer[36] &= 0x3F;
    1456:	9f 73       	andi	r25, 0x3F	; 63
    1458:	90 93 b5 00 	sts	0x00B5, r25
		display_buffer[44] &= 0x3F;
    145c:	2f 73       	andi	r18, 0x3F	; 63
    145e:	20 93 bd 00 	sts	0x00BD, r18
		display_buffer[52] &= 0x3F;
    1462:	3f 73       	andi	r19, 0x3F	; 63
    1464:	30 93 c5 00 	sts	0x00C5, r19
		display_buffer[35] &= 0xFE;
    1468:	4e 7f       	andi	r20, 0xFE	; 254
    146a:	40 93 b4 00 	sts	0x00B4, r20
		display_buffer[43] &= 0xFE;
    146e:	5e 7f       	andi	r21, 0xFE	; 254
    1470:	50 93 bc 00 	sts	0x00BC, r21
		display_buffer[51] &= 0xFE;
    1474:	6e 7f       	andi	r22, 0xFE	; 254
    1476:	60 93 c4 00 	sts	0x00C4, r22
	
		display_buffer[108] &= 0x3F;
    147a:	7f 73       	andi	r23, 0x3F	; 63
    147c:	70 93 fd 00 	sts	0x00FD, r23
		display_buffer[116] &= 0x3F;
    1480:	ef 73       	andi	r30, 0x3F	; 63
    1482:	e0 93 05 01 	sts	0x0105, r30
		display_buffer[124] &= 0x3F;
    1486:	ff 73       	andi	r31, 0x3F	; 63
    1488:	f0 93 0d 01 	sts	0x010D, r31
		display_buffer[107] &= 0xFE;
    148c:	ae 7f       	andi	r26, 0xFE	; 254
    148e:	a0 93 fc 00 	sts	0x00FC, r26
		display_buffer[115] &= 0xFE;
    1492:	be 7f       	andi	r27, 0xFE	; 254
    1494:	b0 93 04 01 	sts	0x0104, r27
		display_buffer[123] &= 0xFE;
    1498:	ce 7f       	andi	r28, 0xFE	; 254
    149a:	c0 93 0c 01 	sts	0x010C, r28
    149e:	cf 91       	pop	r28
    14a0:	08 95       	ret

000014a2 <writeOneChinese>:
	}
}

void writeOneChinese(uint8 x, uint8 y,uint8 index)
{
    14a2:	24 2f       	mov	r18, r20
    14a4:	33 27       	eor	r19, r19
    14a6:	a6 2f       	mov	r26, r22
    14a8:	bb 27       	eor	r27, r27
    14aa:	e3 e0       	ldi	r30, 0x03	; 3
    14ac:	aa 0f       	add	r26, r26
    14ae:	bb 1f       	adc	r27, r27
    14b0:	ea 95       	dec	r30
    14b2:	e1 f7       	brne	.-8      	; 0x14ac <writeOneChinese+0xa>
    14b4:	a8 0f       	add	r26, r24
    14b6:	b1 1d       	adc	r27, r1
    14b8:	af 56       	subi	r26, 0x6F	; 111
    14ba:	bf 4f       	sbci	r27, 0xFF	; 255
    14bc:	9f e0       	ldi	r25, 0x0F	; 15
    14be:	75 e0       	ldi	r23, 0x05	; 5
    14c0:	22 0f       	add	r18, r18
    14c2:	33 1f       	adc	r19, r19
    14c4:	7a 95       	dec	r23
    14c6:	e1 f7       	brne	.-8      	; 0x14c0 <writeOneChinese+0x1e>
    14c8:	a9 01       	movw	r20, r18
    14ca:	4b 5a       	subi	r20, 0xAB	; 171
    14cc:	5f 4f       	sbci	r21, 0xFF	; 255
    14ce:	2c 5a       	subi	r18, 0xAC	; 172
    14d0:	3f 4f       	sbci	r19, 0xFF	; 255
	uint8 temp;
	uint8 i;
	for(i=0;i<16;i++)
	{
		temp = pgm_read_byte(&CHINESE[index][i*2]);
    14d2:	f9 01       	movw	r30, r18
    14d4:	84 91       	lpm	r24, Z
		display_buffer[(y+i)*8+x] = temp;
    14d6:	8c 93       	st	X, r24
		temp = pgm_read_byte(&CHINESE[index][i*2+1]);
    14d8:	fa 01       	movw	r30, r20
    14da:	84 91       	lpm	r24, Z
		display_buffer[(y+i)*8+x+1] = temp;
    14dc:	fd 01       	movw	r30, r26
    14de:	81 83       	std	Z+1, r24	; 0x01
    14e0:	91 50       	subi	r25, 0x01	; 1
    14e2:	2e 5f       	subi	r18, 0xFE	; 254
    14e4:	3f 4f       	sbci	r19, 0xFF	; 255
    14e6:	4e 5f       	subi	r20, 0xFE	; 254
    14e8:	5f 4f       	sbci	r21, 0xFF	; 255
    14ea:	18 96       	adiw	r26, 0x08	; 8
    14ec:	97 ff       	sbrs	r25, 7
    14ee:	f1 cf       	rjmp	.-30     	; 0x14d2 <writeOneChinese+0x30>
    14f0:	08 95       	ret

000014f2 <writeOneUnSCROLL>:
	}
	
}

void writeOneUnSCROLL(uint8 x, uint8 y,uint8 index)
{
    14f2:	9a e0       	ldi	r25, 0x0A	; 10
    14f4:	49 9f       	mul	r20, r25
    14f6:	a0 01       	movw	r20, r0
    14f8:	11 24       	eor	r1, r1
    14fa:	a6 2f       	mov	r26, r22
    14fc:	bb 27       	eor	r27, r27
    14fe:	f3 e0       	ldi	r31, 0x03	; 3
    1500:	aa 0f       	add	r26, r26
    1502:	bb 1f       	adc	r27, r27
    1504:	fa 95       	dec	r31
    1506:	e1 f7       	brne	.-8      	; 0x1500 <writeOneUnSCROLL+0xe>
    1508:	a8 0f       	add	r26, r24
    150a:	b1 1d       	adc	r27, r1
    150c:	af 56       	subi	r26, 0x6F	; 111
    150e:	bf 4f       	sbci	r27, 0xFF	; 255
    1510:	4a 5d       	subi	r20, 0xDA	; 218
    1512:	56 4f       	sbci	r21, 0xF6	; 246
    1514:	99 e0       	ldi	r25, 0x09	; 9
	uint8 temp;
	uint8 i;
	for(i=0;i<10;i++)
	{
		temp = pgm_read_byte(&SCROLL[index][i]);
    1516:	fa 01       	movw	r30, r20
    1518:	84 91       	lpm	r24, Z
		display_buffer[(y+i)*8+x] = temp;
    151a:	8c 93       	st	X, r24
    151c:	18 96       	adiw	r26, 0x08	; 8
    151e:	91 50       	subi	r25, 0x01	; 1
    1520:	4f 5f       	subi	r20, 0xFF	; 255
    1522:	5f 4f       	sbci	r21, 0xFF	; 255
    1524:	97 ff       	sbrs	r25, 7
    1526:	f7 cf       	rjmp	.-18     	; 0x1516 <writeOneUnSCROLL+0x24>
    1528:	08 95       	ret

0000152a <writeOneSCROLL>:
	}	
}

void writeOneSCROLL(uint8 x, uint8 y,uint8 index)
{
    152a:	98 2f       	mov	r25, r24
	uint8 temp;
	uint8 i;
	if(Display_BigNumber_Font == 0)
    152c:	80 91 82 00 	lds	r24, 0x0082
    1530:	88 23       	and	r24, r24
    1532:	e1 f4       	brne	.+56     	; 0x156c <writeOneSCROLL+0x42>
    1534:	8a e0       	ldi	r24, 0x0A	; 10
    1536:	48 9f       	mul	r20, r24
    1538:	90 01       	movw	r18, r0
    153a:	11 24       	eor	r1, r1
    153c:	a6 2f       	mov	r26, r22
    153e:	bb 27       	eor	r27, r27
    1540:	53 e0       	ldi	r21, 0x03	; 3
    1542:	aa 0f       	add	r26, r26
    1544:	bb 1f       	adc	r27, r27
    1546:	5a 95       	dec	r21
    1548:	e1 f7       	brne	.-8      	; 0x1542 <writeOneSCROLL+0x18>
    154a:	a9 0f       	add	r26, r25
    154c:	b1 1d       	adc	r27, r1
    154e:	af 56       	subi	r26, 0x6F	; 111
    1550:	bf 4f       	sbci	r27, 0xFF	; 255
    1552:	20 5c       	subi	r18, 0xC0	; 192
    1554:	37 4f       	sbci	r19, 0xF7	; 247
    1556:	99 e0       	ldi	r25, 0x09	; 9
	{
		for(i=0;i<10;i++)
		{
			temp = pgm_read_byte(&SCROLL_STYLE1[index][i]);
    1558:	f9 01       	movw	r30, r18
    155a:	84 91       	lpm	r24, Z
			display_buffer[(y+(i*3))*8+x] = temp;
    155c:	8c 93       	st	X, r24
    155e:	58 96       	adiw	r26, 0x18	; 24
    1560:	91 50       	subi	r25, 0x01	; 1
    1562:	2f 5f       	subi	r18, 0xFF	; 255
    1564:	3f 4f       	sbci	r19, 0xFF	; 255
    1566:	97 ff       	sbrs	r25, 7
    1568:	f7 cf       	rjmp	.-18     	; 0x1558 <writeOneSCROLL+0x2e>
    156a:	08 95       	ret
		}
	}	
	else if(Display_BigNumber_Font == 1)
    156c:	81 30       	cpi	r24, 0x01	; 1
    156e:	e1 f4       	brne	.+56     	; 0x15a8 <writeOneSCROLL+0x7e>
    1570:	8a e0       	ldi	r24, 0x0A	; 10
    1572:	48 9f       	mul	r20, r24
    1574:	90 01       	movw	r18, r0
    1576:	11 24       	eor	r1, r1
    1578:	a6 2f       	mov	r26, r22
    157a:	bb 27       	eor	r27, r27
    157c:	43 e0       	ldi	r20, 0x03	; 3
    157e:	aa 0f       	add	r26, r26
    1580:	bb 1f       	adc	r27, r27
    1582:	4a 95       	dec	r20
    1584:	e1 f7       	brne	.-8      	; 0x157e <writeOneSCROLL+0x54>
    1586:	a9 0f       	add	r26, r25
    1588:	b1 1d       	adc	r27, r1
    158a:	af 56       	subi	r26, 0x6F	; 111
    158c:	bf 4f       	sbci	r27, 0xFF	; 255
    158e:	26 5a       	subi	r18, 0xA6	; 166
    1590:	38 4f       	sbci	r19, 0xF8	; 248
    1592:	99 e0       	ldi	r25, 0x09	; 9
	{
		for(i=0;i<10;i++)
		{
			temp = pgm_read_byte(&SCROLL_STYLE2[index][i]);
    1594:	f9 01       	movw	r30, r18
    1596:	84 91       	lpm	r24, Z
			display_buffer[(y+(i*3))*8+x] = temp;
    1598:	8c 93       	st	X, r24
    159a:	58 96       	adiw	r26, 0x18	; 24
    159c:	91 50       	subi	r25, 0x01	; 1
    159e:	2f 5f       	subi	r18, 0xFF	; 255
    15a0:	3f 4f       	sbci	r19, 0xFF	; 255
    15a2:	97 ff       	sbrs	r25, 7
    15a4:	f7 cf       	rjmp	.-18     	; 0x1594 <writeOneSCROLL+0x6a>
    15a6:	08 95       	ret
    15a8:	8a e0       	ldi	r24, 0x0A	; 10
    15aa:	48 9f       	mul	r20, r24
    15ac:	90 01       	movw	r18, r0
    15ae:	11 24       	eor	r1, r1
    15b0:	a6 2f       	mov	r26, r22
    15b2:	bb 27       	eor	r27, r27
    15b4:	83 e0       	ldi	r24, 0x03	; 3
    15b6:	aa 0f       	add	r26, r26
    15b8:	bb 1f       	adc	r27, r27
    15ba:	8a 95       	dec	r24
    15bc:	e1 f7       	brne	.-8      	; 0x15b6 <writeOneSCROLL+0x8c>
    15be:	a9 0f       	add	r26, r25
    15c0:	b1 1d       	adc	r27, r1
    15c2:	af 56       	subi	r26, 0x6F	; 111
    15c4:	bf 4f       	sbci	r27, 0xFF	; 255
    15c6:	2c 58       	subi	r18, 0x8C	; 140
    15c8:	39 4f       	sbci	r19, 0xF9	; 249
    15ca:	99 e0       	ldi	r25, 0x09	; 9
		}	
	}
	else
	{
		for(i=0;i<10;i++)
		{
			temp = pgm_read_byte(&SCROLL_STYLE3[index][i]);
    15cc:	f9 01       	movw	r30, r18
    15ce:	84 91       	lpm	r24, Z
			display_buffer[(y+(i*3))*8+x] = temp;
    15d0:	8c 93       	st	X, r24
    15d2:	58 96       	adiw	r26, 0x18	; 24
    15d4:	91 50       	subi	r25, 0x01	; 1
    15d6:	2f 5f       	subi	r18, 0xFF	; 255
    15d8:	3f 4f       	sbci	r19, 0xFF	; 255
    15da:	97 ff       	sbrs	r25, 7
    15dc:	f7 cf       	rjmp	.-18     	; 0x15cc <writeOneSCROLL+0xa2>
    15de:	08 95       	ret

000015e0 <wirteOneBigNumber>:
		}	
	}	
}

void wirteOneBigNumber(uint8 x, uint8 y,uint8 index)
{
    15e0:	ef 92       	push	r14
    15e2:	ff 92       	push	r15
    15e4:	1f 93       	push	r17
    15e6:	cf 93       	push	r28
    15e8:	df 93       	push	r29
	uint8 temp,temp1;
	uint8 i;
	if(Display_BigNumber_Font == 0)
    15ea:	90 91 82 00 	lds	r25, 0x0082
    15ee:	99 23       	and	r25, r25
    15f0:	09 f0       	breq	.+2      	; 0x15f4 <wirteOneBigNumber+0x14>
    15f2:	49 c0       	rjmp	.+146    	; 0x1686 <wirteOneBigNumber+0xa6>
    15f4:	24 2f       	mov	r18, r20
    15f6:	33 27       	eor	r19, r19
    15f8:	a8 2f       	mov	r26, r24
    15fa:	bb 27       	eor	r27, r27
    15fc:	77 27       	eor	r23, r23
    15fe:	c8 e0       	ldi	r28, 0x08	; 8
    1600:	d0 e0       	ldi	r29, 0x00	; 0
    1602:	c6 1b       	sub	r28, r22
    1604:	d7 0b       	sbc	r29, r23
    1606:	af 56       	subi	r26, 0x6F	; 111
    1608:	bf 4f       	sbci	r27, 0xFF	; 255
    160a:	85 e1       	ldi	r24, 0x15	; 21
    160c:	90 e0       	ldi	r25, 0x00	; 0
    160e:	28 9f       	mul	r18, r24
    1610:	a0 01       	movw	r20, r0
    1612:	29 9f       	mul	r18, r25
    1614:	50 0d       	add	r21, r0
    1616:	38 9f       	mul	r19, r24
    1618:	50 0d       	add	r21, r0
    161a:	11 24       	eor	r1, r1
    161c:	ca 01       	movw	r24, r20
    161e:	14 e1       	ldi	r17, 0x14	; 20
    1620:	84 0f       	add	r24, r20
    1622:	95 1f       	adc	r25, r21
    1624:	ac 01       	movw	r20, r24
    1626:	45 5c       	subi	r20, 0xC5	; 197
    1628:	51 4f       	sbci	r21, 0xF1	; 241
    162a:	fa e3       	ldi	r31, 0x3A	; 58
    162c:	ef 2e       	mov	r14, r31
    162e:	fe e0       	ldi	r31, 0x0E	; 14
    1630:	ff 2e       	mov	r15, r31
    1632:	e8 0e       	add	r14, r24
    1634:	f9 1e       	adc	r15, r25
	{
		for(i=0;i<21;i++)
		{
			temp = pgm_read_byte(&BIG_NUMBER_STYLE1[index][i*2]);
    1636:	f7 01       	movw	r30, r14
    1638:	24 91       	lpm	r18, Z
			display_buffer[i*8+x] = temp >> y;
    163a:	33 27       	eor	r19, r19
    163c:	c9 01       	movw	r24, r18
    163e:	06 2e       	mov	r0, r22
    1640:	02 c0       	rjmp	.+4      	; 0x1646 <wirteOneBigNumber+0x66>
    1642:	95 95       	asr	r25
    1644:	87 95       	ror	r24
    1646:	0a 94       	dec	r0
    1648:	e2 f7       	brpl	.-8      	; 0x1642 <wirteOneBigNumber+0x62>
    164a:	8c 93       	st	X, r24
			temp1 = pgm_read_byte(&BIG_NUMBER_STYLE1[index][i*2+1]);
    164c:	fa 01       	movw	r30, r20
    164e:	84 91       	lpm	r24, Z
			display_buffer[i*8+x+1] = (temp << (8-y))|(temp1>>y);
    1650:	0c 2e       	mov	r0, r28
    1652:	02 c0       	rjmp	.+4      	; 0x1658 <wirteOneBigNumber+0x78>
    1654:	22 0f       	add	r18, r18
    1656:	33 1f       	adc	r19, r19
    1658:	0a 94       	dec	r0
    165a:	e2 f7       	brpl	.-8      	; 0x1654 <wirteOneBigNumber+0x74>
    165c:	99 27       	eor	r25, r25
    165e:	06 2e       	mov	r0, r22
    1660:	02 c0       	rjmp	.+4      	; 0x1666 <wirteOneBigNumber+0x86>
    1662:	95 95       	asr	r25
    1664:	87 95       	ror	r24
    1666:	0a 94       	dec	r0
    1668:	e2 f7       	brpl	.-8      	; 0x1662 <wirteOneBigNumber+0x82>
    166a:	82 2b       	or	r24, r18
    166c:	fd 01       	movw	r30, r26
    166e:	81 83       	std	Z+1, r24	; 0x01
    1670:	11 50       	subi	r17, 0x01	; 1
    1672:	82 e0       	ldi	r24, 0x02	; 2
    1674:	90 e0       	ldi	r25, 0x00	; 0
    1676:	e8 0e       	add	r14, r24
    1678:	f9 1e       	adc	r15, r25
    167a:	48 0f       	add	r20, r24
    167c:	59 1f       	adc	r21, r25
    167e:	18 96       	adiw	r26, 0x08	; 8
    1680:	17 ff       	sbrs	r17, 7
    1682:	d9 cf       	rjmp	.-78     	; 0x1636 <wirteOneBigNumber+0x56>
    1684:	94 c0       	rjmp	.+296    	; 0x17ae <wirteOneBigNumber+0x1ce>
		}
	}
	else if(Display_BigNumber_Font == 1)
    1686:	91 30       	cpi	r25, 0x01	; 1
    1688:	09 f0       	breq	.+2      	; 0x168c <wirteOneBigNumber+0xac>
    168a:	49 c0       	rjmp	.+146    	; 0x171e <wirteOneBigNumber+0x13e>
    168c:	24 2f       	mov	r18, r20
    168e:	33 27       	eor	r19, r19
    1690:	a8 2f       	mov	r26, r24
    1692:	bb 27       	eor	r27, r27
    1694:	77 27       	eor	r23, r23
    1696:	c8 e0       	ldi	r28, 0x08	; 8
    1698:	d0 e0       	ldi	r29, 0x00	; 0
    169a:	c6 1b       	sub	r28, r22
    169c:	d7 0b       	sbc	r29, r23
    169e:	af 56       	subi	r26, 0x6F	; 111
    16a0:	bf 4f       	sbci	r27, 0xFF	; 255
    16a2:	85 e1       	ldi	r24, 0x15	; 21
    16a4:	90 e0       	ldi	r25, 0x00	; 0
    16a6:	28 9f       	mul	r18, r24
    16a8:	f0 01       	movw	r30, r0
    16aa:	29 9f       	mul	r18, r25
    16ac:	f0 0d       	add	r31, r0
    16ae:	38 9f       	mul	r19, r24
    16b0:	f0 0d       	add	r31, r0
    16b2:	11 24       	eor	r1, r1
    16b4:	cf 01       	movw	r24, r30
    16b6:	14 e1       	ldi	r17, 0x14	; 20
    16b8:	8e 0f       	add	r24, r30
    16ba:	9f 1f       	adc	r25, r31
    16bc:	ac 01       	movw	r20, r24
    16be:	49 56       	subi	r20, 0x69	; 105
    16c0:	53 4f       	sbci	r21, 0xF3	; 243
    16c2:	e6 e9       	ldi	r30, 0x96	; 150
    16c4:	ee 2e       	mov	r14, r30
    16c6:	ec e0       	ldi	r30, 0x0C	; 12
    16c8:	fe 2e       	mov	r15, r30
    16ca:	e8 0e       	add	r14, r24
    16cc:	f9 1e       	adc	r15, r25
	{
		for(i=0;i<21;i++)
		{
			temp = pgm_read_byte(&BIG_NUMBER_STYLE2[index][i*2]);
    16ce:	f7 01       	movw	r30, r14
    16d0:	24 91       	lpm	r18, Z
			display_buffer[i*8+x] = temp >> y;
    16d2:	33 27       	eor	r19, r19
    16d4:	c9 01       	movw	r24, r18
    16d6:	06 2e       	mov	r0, r22
    16d8:	02 c0       	rjmp	.+4      	; 0x16de <wirteOneBigNumber+0xfe>
    16da:	95 95       	asr	r25
    16dc:	87 95       	ror	r24
    16de:	0a 94       	dec	r0
    16e0:	e2 f7       	brpl	.-8      	; 0x16da <wirteOneBigNumber+0xfa>
    16e2:	8c 93       	st	X, r24
			temp1 = pgm_read_byte(&BIG_NUMBER_STYLE2[index][i*2+1]);
    16e4:	fa 01       	movw	r30, r20
    16e6:	84 91       	lpm	r24, Z
			display_buffer[i*8+x+1] = (temp << (8-y))|(temp1>>y);
    16e8:	0c 2e       	mov	r0, r28
    16ea:	02 c0       	rjmp	.+4      	; 0x16f0 <wirteOneBigNumber+0x110>
    16ec:	22 0f       	add	r18, r18
    16ee:	33 1f       	adc	r19, r19
    16f0:	0a 94       	dec	r0
    16f2:	e2 f7       	brpl	.-8      	; 0x16ec <wirteOneBigNumber+0x10c>
    16f4:	99 27       	eor	r25, r25
    16f6:	06 2e       	mov	r0, r22
    16f8:	02 c0       	rjmp	.+4      	; 0x16fe <wirteOneBigNumber+0x11e>
    16fa:	95 95       	asr	r25
    16fc:	87 95       	ror	r24
    16fe:	0a 94       	dec	r0
    1700:	e2 f7       	brpl	.-8      	; 0x16fa <wirteOneBigNumber+0x11a>
    1702:	82 2b       	or	r24, r18
    1704:	fd 01       	movw	r30, r26
    1706:	81 83       	std	Z+1, r24	; 0x01
    1708:	11 50       	subi	r17, 0x01	; 1
    170a:	82 e0       	ldi	r24, 0x02	; 2
    170c:	90 e0       	ldi	r25, 0x00	; 0
    170e:	e8 0e       	add	r14, r24
    1710:	f9 1e       	adc	r15, r25
    1712:	48 0f       	add	r20, r24
    1714:	59 1f       	adc	r21, r25
    1716:	18 96       	adiw	r26, 0x08	; 8
    1718:	17 ff       	sbrs	r17, 7
    171a:	d9 cf       	rjmp	.-78     	; 0x16ce <wirteOneBigNumber+0xee>
    171c:	48 c0       	rjmp	.+144    	; 0x17ae <wirteOneBigNumber+0x1ce>
    171e:	24 2f       	mov	r18, r20
    1720:	33 27       	eor	r19, r19
    1722:	a8 2f       	mov	r26, r24
    1724:	bb 27       	eor	r27, r27
    1726:	77 27       	eor	r23, r23
    1728:	c8 e0       	ldi	r28, 0x08	; 8
    172a:	d0 e0       	ldi	r29, 0x00	; 0
    172c:	c6 1b       	sub	r28, r22
    172e:	d7 0b       	sbc	r29, r23
    1730:	af 56       	subi	r26, 0x6F	; 111
    1732:	bf 4f       	sbci	r27, 0xFF	; 255
    1734:	85 e1       	ldi	r24, 0x15	; 21
    1736:	90 e0       	ldi	r25, 0x00	; 0
    1738:	28 9f       	mul	r18, r24
    173a:	f0 01       	movw	r30, r0
    173c:	29 9f       	mul	r18, r25
    173e:	f0 0d       	add	r31, r0
    1740:	38 9f       	mul	r19, r24
    1742:	f0 0d       	add	r31, r0
    1744:	11 24       	eor	r1, r1
    1746:	cf 01       	movw	r24, r30
    1748:	14 e1       	ldi	r17, 0x14	; 20
    174a:	8e 0f       	add	r24, r30
    174c:	9f 1f       	adc	r25, r31
    174e:	ac 01       	movw	r20, r24
    1750:	4d 50       	subi	r20, 0x0D	; 13
    1752:	55 4f       	sbci	r21, 0xF5	; 245
    1754:	72 ef       	ldi	r23, 0xF2	; 242
    1756:	e7 2e       	mov	r14, r23
    1758:	7a e0       	ldi	r23, 0x0A	; 10
    175a:	f7 2e       	mov	r15, r23
    175c:	e8 0e       	add	r14, r24
    175e:	f9 1e       	adc	r15, r25
		}
	}
	else
	{
		for(i=0;i<21;i++)
		{
			temp = pgm_read_byte(&BIG_NUMBER_STYLE3[index][i*2]);
    1760:	f7 01       	movw	r30, r14
    1762:	24 91       	lpm	r18, Z
			display_buffer[i*8+x] = temp >> y;
    1764:	33 27       	eor	r19, r19
    1766:	c9 01       	movw	r24, r18
    1768:	06 2e       	mov	r0, r22
    176a:	02 c0       	rjmp	.+4      	; 0x1770 <wirteOneBigNumber+0x190>
    176c:	95 95       	asr	r25
    176e:	87 95       	ror	r24
    1770:	0a 94       	dec	r0
    1772:	e2 f7       	brpl	.-8      	; 0x176c <wirteOneBigNumber+0x18c>
    1774:	8c 93       	st	X, r24
			temp1 = pgm_read_byte(&BIG_NUMBER_STYLE3[index][i*2+1]);
    1776:	fa 01       	movw	r30, r20
    1778:	84 91       	lpm	r24, Z
			display_buffer[i*8+x+1] = (temp << (8-y))|(temp1>>y);
    177a:	0c 2e       	mov	r0, r28
    177c:	02 c0       	rjmp	.+4      	; 0x1782 <wirteOneBigNumber+0x1a2>
    177e:	22 0f       	add	r18, r18
    1780:	33 1f       	adc	r19, r19
    1782:	0a 94       	dec	r0
    1784:	e2 f7       	brpl	.-8      	; 0x177e <wirteOneBigNumber+0x19e>
    1786:	99 27       	eor	r25, r25
    1788:	06 2e       	mov	r0, r22
    178a:	02 c0       	rjmp	.+4      	; 0x1790 <wirteOneBigNumber+0x1b0>
    178c:	95 95       	asr	r25
    178e:	87 95       	ror	r24
    1790:	0a 94       	dec	r0
    1792:	e2 f7       	brpl	.-8      	; 0x178c <wirteOneBigNumber+0x1ac>
    1794:	82 2b       	or	r24, r18
    1796:	fd 01       	movw	r30, r26
    1798:	81 83       	std	Z+1, r24	; 0x01
    179a:	11 50       	subi	r17, 0x01	; 1
    179c:	82 e0       	ldi	r24, 0x02	; 2
    179e:	90 e0       	ldi	r25, 0x00	; 0
    17a0:	e8 0e       	add	r14, r24
    17a2:	f9 1e       	adc	r15, r25
    17a4:	48 0f       	add	r20, r24
    17a6:	59 1f       	adc	r21, r25
    17a8:	18 96       	adiw	r26, 0x08	; 8
    17aa:	17 ff       	sbrs	r17, 7
    17ac:	d9 cf       	rjmp	.-78     	; 0x1760 <wirteOneBigNumber+0x180>
    17ae:	df 91       	pop	r29
    17b0:	cf 91       	pop	r28
    17b2:	1f 91       	pop	r17
    17b4:	ff 90       	pop	r15
    17b6:	ef 90       	pop	r14
    17b8:	08 95       	ret

000017ba <FreshDisplayComment>:
		}
	}
}

void FreshDisplayComment(uint8 *tenValue, uint8 *oneValue, uint8 matrixIndex)
{
    17ba:	df 92       	push	r13
    17bc:	ef 92       	push	r14
    17be:	ff 92       	push	r15
    17c0:	0f 93       	push	r16
    17c2:	1f 93       	push	r17
    17c4:	8c 01       	movw	r16, r24
    17c6:	7b 01       	movw	r14, r22
    17c8:	d4 2e       	mov	r13, r20
	clearScreen();
    17ca:	0e 94 dc 09 	call	0x13b8 <clearScreen>
	
	writeOneChinese(0, 0, 8);	
    17ce:	48 e0       	ldi	r20, 0x08	; 8
    17d0:	60 e0       	ldi	r22, 0x00	; 0
    17d2:	86 2f       	mov	r24, r22
    17d4:	0e 94 51 0a 	call	0x14a2 <writeOneChinese>
	writeOneChinese(0, 16, 9);
    17d8:	49 e0       	ldi	r20, 0x09	; 9
    17da:	60 e1       	ldi	r22, 0x10	; 16
    17dc:	80 e0       	ldi	r24, 0x00	; 0
    17de:	0e 94 51 0a 	call	0x14a2 <writeOneChinese>
	wirteOneBigNumber(2,0,*tenValue); 
    17e2:	f8 01       	movw	r30, r16
    17e4:	40 81       	ld	r20, Z
    17e6:	60 e0       	ldi	r22, 0x00	; 0
    17e8:	82 e0       	ldi	r24, 0x02	; 2
    17ea:	0e 94 f0 0a 	call	0x15e0 <wirteOneBigNumber>
	wirteOneBigNumber(4,0,*oneValue);
    17ee:	f7 01       	movw	r30, r14
    17f0:	40 81       	ld	r20, Z
    17f2:	60 e0       	ldi	r22, 0x00	; 0
    17f4:	84 e0       	ldi	r24, 0x04	; 4
    17f6:	0e 94 f0 0a 	call	0x15e0 <wirteOneBigNumber>
	writeOneChinese(6, 16, matrixIndex);
    17fa:	4d 2d       	mov	r20, r13
    17fc:	60 e1       	ldi	r22, 0x10	; 16
    17fe:	86 e0       	ldi	r24, 0x06	; 6
    1800:	0e 94 51 0a 	call	0x14a2 <writeOneChinese>
    1804:	1f 91       	pop	r17
    1806:	0f 91       	pop	r16
    1808:	ff 90       	pop	r15
    180a:	ef 90       	pop	r14
    180c:	df 90       	pop	r13
    180e:	08 95       	ret

00001810 <FreshDisplayBufferAjustYear>:
}

void FreshDisplayBufferAjustYear()
{
	FreshDisplayComment(&YearTen, &YearOne, 15);
    1810:	4f e0       	ldi	r20, 0x0F	; 15
    1812:	6a e6       	ldi	r22, 0x6A	; 106
    1814:	70 e0       	ldi	r23, 0x00	; 0
    1816:	89 e6       	ldi	r24, 0x69	; 105
    1818:	90 e0       	ldi	r25, 0x00	; 0
    181a:	0e 94 dd 0b 	call	0x17ba <FreshDisplayComment>
    181e:	08 95       	ret

00001820 <FreshDisplayBufferAjustMonth>:
}

void FreshDisplayBufferAjustMonth()
{
	FreshDisplayComment(&MonthTen, &MonthOne, 16);
    1820:	40 e1       	ldi	r20, 0x10	; 16
    1822:	6c e6       	ldi	r22, 0x6C	; 108
    1824:	70 e0       	ldi	r23, 0x00	; 0
    1826:	8b e6       	ldi	r24, 0x6B	; 107
    1828:	90 e0       	ldi	r25, 0x00	; 0
    182a:	0e 94 dd 0b 	call	0x17ba <FreshDisplayComment>
    182e:	08 95       	ret

00001830 <FreshDisplayBufferAjustDay>:
}

void FreshDisplayBufferAjustDay()
{
	FreshDisplayComment(&DayTen, &DayOne, 17);
    1830:	41 e1       	ldi	r20, 0x11	; 17
    1832:	6e e6       	ldi	r22, 0x6E	; 110
    1834:	70 e0       	ldi	r23, 0x00	; 0
    1836:	8d e6       	ldi	r24, 0x6D	; 109
    1838:	90 e0       	ldi	r25, 0x00	; 0
    183a:	0e 94 dd 0b 	call	0x17ba <FreshDisplayComment>
    183e:	08 95       	ret

00001840 <FreshDisplayBufferAjustHour>:
}

void FreshDisplayBufferAjustHour()
{
	FreshDisplayComment(&HourTen, &HourOne, 13);
    1840:	4d e0       	ldi	r20, 0x0D	; 13
    1842:	60 e7       	ldi	r22, 0x70	; 112
    1844:	70 e0       	ldi	r23, 0x00	; 0
    1846:	8f e6       	ldi	r24, 0x6F	; 111
    1848:	90 e0       	ldi	r25, 0x00	; 0
    184a:	0e 94 dd 0b 	call	0x17ba <FreshDisplayComment>
    184e:	08 95       	ret

00001850 <FreshDisplayBufferAjustMinute>:
}

void FreshDisplayBufferAjustMinute()
{
	FreshDisplayComment(&MinuteTen, &MinuteOne, 18);
    1850:	42 e1       	ldi	r20, 0x12	; 18
    1852:	62 e7       	ldi	r22, 0x72	; 114
    1854:	70 e0       	ldi	r23, 0x00	; 0
    1856:	81 e7       	ldi	r24, 0x71	; 113
    1858:	90 e0       	ldi	r25, 0x00	; 0
    185a:	0e 94 dd 0b 	call	0x17ba <FreshDisplayComment>
    185e:	08 95       	ret

00001860 <FreshDisplayBufferAjustWeek>:
}

void FreshDisplayBufferAjustWeek()
{
	clearScreen();
    1860:	0e 94 dc 09 	call	0x13b8 <clearScreen>
	writeOneChinese(0, 0, 8);	
    1864:	48 e0       	ldi	r20, 0x08	; 8
    1866:	60 e0       	ldi	r22, 0x00	; 0
    1868:	86 2f       	mov	r24, r22
    186a:	0e 94 51 0a 	call	0x14a2 <writeOneChinese>
	writeOneChinese(2, 0, 9);
    186e:	49 e0       	ldi	r20, 0x09	; 9
    1870:	60 e0       	ldi	r22, 0x00	; 0
    1872:	82 e0       	ldi	r24, 0x02	; 2
    1874:	0e 94 51 0a 	call	0x14a2 <writeOneChinese>
	writeOneChinese(0, 16, 21);
    1878:	45 e1       	ldi	r20, 0x15	; 21
    187a:	60 e1       	ldi	r22, 0x10	; 16
    187c:	80 e0       	ldi	r24, 0x00	; 0
    187e:	0e 94 51 0a 	call	0x14a2 <writeOneChinese>
	writeOneChinese(2, 16, 22);
    1882:	46 e1       	ldi	r20, 0x16	; 22
    1884:	60 e1       	ldi	r22, 0x10	; 16
    1886:	82 e0       	ldi	r24, 0x02	; 2
    1888:	0e 94 51 0a 	call	0x14a2 <writeOneChinese>
	writeOneUnSCROLL(4,22,30);
    188c:	4e e1       	ldi	r20, 0x1E	; 30
    188e:	66 e1       	ldi	r22, 0x16	; 22
    1890:	84 e0       	ldi	r24, 0x04	; 4
    1892:	0e 94 79 0a 	call	0x14f2 <writeOneUnSCROLL>
	wirteOneBigNumber(5,0,Week);
    1896:	40 91 75 00 	lds	r20, 0x0075
    189a:	60 e0       	ldi	r22, 0x00	; 0
    189c:	85 e0       	ldi	r24, 0x05	; 5
    189e:	0e 94 f0 0a 	call	0x15e0 <wirteOneBigNumber>
    18a2:	08 95       	ret

000018a4 <FreshDisplayBufferAjustSpeed>:
}

void FreshDisplayBufferAjustSpeed()
{
	clearScreen();
    18a4:	0e 94 dc 09 	call	0x13b8 <clearScreen>
	writeOneChinese(0, 0, 8);	
    18a8:	48 e0       	ldi	r20, 0x08	; 8
    18aa:	60 e0       	ldi	r22, 0x00	; 0
    18ac:	86 2f       	mov	r24, r22
    18ae:	0e 94 51 0a 	call	0x14a2 <writeOneChinese>
	writeOneChinese(2, 0, 9);
    18b2:	49 e0       	ldi	r20, 0x09	; 9
    18b4:	60 e0       	ldi	r22, 0x00	; 0
    18b6:	82 e0       	ldi	r24, 0x02	; 2
    18b8:	0e 94 51 0a 	call	0x14a2 <writeOneChinese>
	writeOneChinese(0, 16, 10);
    18bc:	4a e0       	ldi	r20, 0x0A	; 10
    18be:	60 e1       	ldi	r22, 0x10	; 16
    18c0:	80 e0       	ldi	r24, 0x00	; 0
    18c2:	0e 94 51 0a 	call	0x14a2 <writeOneChinese>
	writeOneChinese(2, 16, 11);
    18c6:	4b e0       	ldi	r20, 0x0B	; 11
    18c8:	60 e1       	ldi	r22, 0x10	; 16
    18ca:	82 e0       	ldi	r24, 0x02	; 2
    18cc:	0e 94 51 0a 	call	0x14a2 <writeOneChinese>
	writeOneUnSCROLL(4,22,30);
    18d0:	4e e1       	ldi	r20, 0x1E	; 30
    18d2:	66 e1       	ldi	r22, 0x16	; 22
    18d4:	84 e0       	ldi	r24, 0x04	; 4
    18d6:	0e 94 79 0a 	call	0x14f2 <writeOneUnSCROLL>
	wirteOneBigNumber(5,0,moveSpeed);
    18da:	40 91 7b 00 	lds	r20, 0x007B
    18de:	60 e0       	ldi	r22, 0x00	; 0
    18e0:	85 e0       	ldi	r24, 0x05	; 5
    18e2:	0e 94 f0 0a 	call	0x15e0 <wirteOneBigNumber>
    18e6:	08 95       	ret

000018e8 <FreshDisplayBufferAjustLightMode>:
}

void FreshDisplayBufferAjustLightMode() //亮度模式
{
	clearScreen();
    18e8:	0e 94 dc 09 	call	0x13b8 <clearScreen>
	writeOneChinese(0, 0, 8);	
    18ec:	48 e0       	ldi	r20, 0x08	; 8
    18ee:	60 e0       	ldi	r22, 0x00	; 0
    18f0:	86 2f       	mov	r24, r22
    18f2:	0e 94 51 0a 	call	0x14a2 <writeOneChinese>
	writeOneChinese(2, 0, 9);
    18f6:	49 e0       	ldi	r20, 0x09	; 9
    18f8:	60 e0       	ldi	r22, 0x00	; 0
    18fa:	82 e0       	ldi	r24, 0x02	; 2
    18fc:	0e 94 51 0a 	call	0x14a2 <writeOneChinese>
	writeOneChinese(0, 16, 12);
    1900:	4c e0       	ldi	r20, 0x0C	; 12
    1902:	60 e1       	ldi	r22, 0x10	; 16
    1904:	80 e0       	ldi	r24, 0x00	; 0
    1906:	0e 94 51 0a 	call	0x14a2 <writeOneChinese>
	writeOneChinese(2, 16, 11);
    190a:	4b e0       	ldi	r20, 0x0B	; 11
    190c:	60 e1       	ldi	r22, 0x10	; 16
    190e:	82 e0       	ldi	r24, 0x02	; 2
    1910:	0e 94 51 0a 	call	0x14a2 <writeOneChinese>
	writeOneUnSCROLL(4,22,30);
    1914:	4e e1       	ldi	r20, 0x1E	; 30
    1916:	66 e1       	ldi	r22, 0x16	; 22
    1918:	84 e0       	ldi	r24, 0x04	; 4
    191a:	0e 94 79 0a 	call	0x14f2 <writeOneUnSCROLL>
	if(display_light_Mode) //手动
    191e:	60 91 79 00 	lds	r22, 0x0079
    1922:	66 23       	and	r22, r22
    1924:	19 f0       	breq	.+6      	; 0x192c <FreshDisplayBufferAjustLightMode+0x44>
	{
		writeOneChinese(6, 0, 25);
    1926:	49 e1       	ldi	r20, 0x19	; 25
    1928:	60 e0       	ldi	r22, 0x00	; 0
    192a:	01 c0       	rjmp	.+2      	; 0x192e <FreshDisplayBufferAjustLightMode+0x46>
	}
	else
	{
		writeOneChinese(6, 0, 24);
    192c:	48 e1       	ldi	r20, 0x18	; 24
    192e:	86 e0       	ldi	r24, 0x06	; 6
    1930:	0e 94 51 0a 	call	0x14a2 <writeOneChinese>
	}
	writeOneChinese(6, 16, 26);
    1934:	4a e1       	ldi	r20, 0x1A	; 26
    1936:	60 e1       	ldi	r22, 0x10	; 16
    1938:	86 e0       	ldi	r24, 0x06	; 6
    193a:	0e 94 51 0a 	call	0x14a2 <writeOneChinese>
    193e:	08 95       	ret

00001940 <FreshDisplayBufferAjustLight>:
}

void FreshDisplayBufferAjustLight()
{
	clearScreen();
    1940:	0e 94 dc 09 	call	0x13b8 <clearScreen>
	if(display_light_Mode)
    1944:	80 91 79 00 	lds	r24, 0x0079
    1948:	88 23       	and	r24, r24
    194a:	01 f1       	breq	.+64     	; 0x198c <FreshDisplayBufferAjustLight+0x4c>
	{
		writeOneChinese(0, 0, 8);	
    194c:	48 e0       	ldi	r20, 0x08	; 8
    194e:	60 e0       	ldi	r22, 0x00	; 0
    1950:	86 2f       	mov	r24, r22
    1952:	0e 94 51 0a 	call	0x14a2 <writeOneChinese>
		writeOneChinese(2, 0, 9);
    1956:	49 e0       	ldi	r20, 0x09	; 9
    1958:	60 e0       	ldi	r22, 0x00	; 0
    195a:	82 e0       	ldi	r24, 0x02	; 2
    195c:	0e 94 51 0a 	call	0x14a2 <writeOneChinese>
		writeOneChinese(0, 16, 12);
    1960:	4c e0       	ldi	r20, 0x0C	; 12
    1962:	60 e1       	ldi	r22, 0x10	; 16
    1964:	80 e0       	ldi	r24, 0x00	; 0
    1966:	0e 94 51 0a 	call	0x14a2 <writeOneChinese>
		writeOneChinese(2, 16, 11);
    196a:	4b e0       	ldi	r20, 0x0B	; 11
    196c:	60 e1       	ldi	r22, 0x10	; 16
    196e:	82 e0       	ldi	r24, 0x02	; 2
    1970:	0e 94 51 0a 	call	0x14a2 <writeOneChinese>
		writeOneUnSCROLL(4,22,30);
    1974:	4e e1       	ldi	r20, 0x1E	; 30
    1976:	66 e1       	ldi	r22, 0x16	; 22
    1978:	84 e0       	ldi	r24, 0x04	; 4
    197a:	0e 94 79 0a 	call	0x14f2 <writeOneUnSCROLL>
		wirteOneBigNumber(5,0,display_light);
    197e:	40 91 7a 00 	lds	r20, 0x007A
    1982:	60 e0       	ldi	r22, 0x00	; 0
    1984:	85 e0       	ldi	r24, 0x05	; 5
    1986:	0e 94 f0 0a 	call	0x15e0 <wirteOneBigNumber>
    198a:	08 95       	ret
	}
	else
	{
		FreshDisplayBufferAjustLightMode();
    198c:	0e 94 74 0c 	call	0x18e8 <FreshDisplayBufferAjustLightMode>
    1990:	08 95       	ret

00001992 <FreshDisplayBufferChangeFont>:
	}
}

void FreshDisplayBufferChangeFont()
{
	clearScreen();
    1992:	0e 94 dc 09 	call	0x13b8 <clearScreen>
	writeOneChinese(0, 0, 8);	
    1996:	48 e0       	ldi	r20, 0x08	; 8
    1998:	60 e0       	ldi	r22, 0x00	; 0
    199a:	86 2f       	mov	r24, r22
    199c:	0e 94 51 0a 	call	0x14a2 <writeOneChinese>
	writeOneChinese(2, 0, 9);
    19a0:	49 e0       	ldi	r20, 0x09	; 9
    19a2:	60 e0       	ldi	r22, 0x00	; 0
    19a4:	82 e0       	ldi	r24, 0x02	; 2
    19a6:	0e 94 51 0a 	call	0x14a2 <writeOneChinese>
	writeOneChinese(0, 16, 27);
    19aa:	4b e1       	ldi	r20, 0x1B	; 27
    19ac:	60 e1       	ldi	r22, 0x10	; 16
    19ae:	80 e0       	ldi	r24, 0x00	; 0
    19b0:	0e 94 51 0a 	call	0x14a2 <writeOneChinese>
	writeOneChinese(2, 16, 28);
    19b4:	4c e1       	ldi	r20, 0x1C	; 28
    19b6:	60 e1       	ldi	r22, 0x10	; 16
    19b8:	82 e0       	ldi	r24, 0x02	; 2
    19ba:	0e 94 51 0a 	call	0x14a2 <writeOneChinese>
	writeOneUnSCROLL(4,22,30);
    19be:	4e e1       	ldi	r20, 0x1E	; 30
    19c0:	66 e1       	ldi	r22, 0x16	; 22
    19c2:	84 e0       	ldi	r24, 0x04	; 4
    19c4:	0e 94 79 0a 	call	0x14f2 <writeOneUnSCROLL>
	wirteOneBigNumber(5,0,3);
    19c8:	43 e0       	ldi	r20, 0x03	; 3
    19ca:	60 e0       	ldi	r22, 0x00	; 0
    19cc:	85 e0       	ldi	r24, 0x05	; 5
    19ce:	0e 94 f0 0a 	call	0x15e0 <wirteOneBigNumber>
    19d2:	08 95       	ret

000019d4 <FreshDisplayBufferAjustProofTime>:
}

void FreshDisplayBufferAjustProofTime() //校对时间模式
{
	clearScreen();
    19d4:	0e 94 dc 09 	call	0x13b8 <clearScreen>
	writeOneChinese(0, 0, 29);
    19d8:	4d e1       	ldi	r20, 0x1D	; 29
    19da:	60 e0       	ldi	r22, 0x00	; 0
    19dc:	86 2f       	mov	r24, r22
    19de:	0e 94 51 0a 	call	0x14a2 <writeOneChinese>
	writeOneChinese(0, 16,13);	
    19e2:	4d e0       	ldi	r20, 0x0D	; 13
    19e4:	60 e1       	ldi	r22, 0x10	; 16
    19e6:	80 e0       	ldi	r24, 0x00	; 0
    19e8:	0e 94 51 0a 	call	0x14a2 <writeOneChinese>
	writeOneUnSCROLL(6,22,26); //每
    19ec:	4a e1       	ldi	r20, 0x1A	; 26
    19ee:	66 e1       	ldi	r22, 0x16	; 22
    19f0:	86 e0       	ldi	r24, 0x06	; 6
    19f2:	0e 94 79 0a 	call	0x14f2 <writeOneUnSCROLL>
	writeOneUnSCROLL(7,22,11);	//月
    19f6:	4b e0       	ldi	r20, 0x0B	; 11
    19f8:	66 e1       	ldi	r22, 0x16	; 22
    19fa:	87 e0       	ldi	r24, 0x07	; 7
    19fc:	0e 94 79 0a 	call	0x14f2 <writeOneUnSCROLL>
	if(AjustTimeMode) // 加
    1a00:	80 91 7d 00 	lds	r24, 0x007D
    1a04:	88 23       	and	r24, r24
    1a06:	11 f0       	breq	.+4      	; 0x1a0c <FreshDisplayBufferAjustProofTime+0x38>
	{
		writeOneUnSCROLL(2,22,27);	 //加
    1a08:	4b e1       	ldi	r20, 0x1B	; 27
    1a0a:	01 c0       	rjmp	.+2      	; 0x1a0e <FreshDisplayBufferAjustProofTime+0x3a>
	}
	else
	{
		writeOneUnSCROLL(2,22,33);	//减
    1a0c:	41 e2       	ldi	r20, 0x21	; 33
    1a0e:	66 e1       	ldi	r22, 0x16	; 22
    1a10:	82 e0       	ldi	r24, 0x02	; 2
    1a12:	0e 94 79 0a 	call	0x14f2 <writeOneUnSCROLL>
	}
	wirteOneBigNumber(3,0,AjustTimeTen); 
    1a16:	40 91 7e 00 	lds	r20, 0x007E
    1a1a:	60 e0       	ldi	r22, 0x00	; 0
    1a1c:	83 e0       	ldi	r24, 0x03	; 3
    1a1e:	0e 94 f0 0a 	call	0x15e0 <wirteOneBigNumber>
	wirteOneBigNumber(5,0,AjustTimeOne);
    1a22:	40 91 7f 00 	lds	r20, 0x007F
    1a26:	60 e0       	ldi	r22, 0x00	; 0
    1a28:	85 e0       	ldi	r24, 0x05	; 5
    1a2a:	0e 94 f0 0a 	call	0x15e0 <wirteOneBigNumber>
	writeOneUnSCROLL(7,11,24); //分
    1a2e:	48 e1       	ldi	r20, 0x18	; 24
    1a30:	6b e0       	ldi	r22, 0x0B	; 11
    1a32:	87 e0       	ldi	r24, 0x07	; 7
    1a34:	0e 94 79 0a 	call	0x14f2 <writeOneUnSCROLL>
    1a38:	08 95       	ret

00001a3a <FreshDisplayBufferNormal>:
}

void FreshDisplayBufferNormal()
{
	clearScreen();
    1a3a:	0e 94 dc 09 	call	0x13b8 <clearScreen>
	///// 10年 11月 12周 13度 14一 15二 16三 17四 18五 19六 20日 21点 22空格
	
	wirteOneBigNumber(0,0,HourTen ); 	//8 时十位
    1a3e:	40 91 6f 00 	lds	r20, 0x006F
    1a42:	60 e0       	ldi	r22, 0x00	; 0
    1a44:	86 2f       	mov	r24, r22
    1a46:	0e 94 f0 0a 	call	0x15e0 <wirteOneBigNumber>
	wirteOneBigNumber(2,0,HourOne );	//9 时个位
    1a4a:	40 91 70 00 	lds	r20, 0x0070
    1a4e:	60 e0       	ldi	r22, 0x00	; 0
    1a50:	82 e0       	ldi	r24, 0x02	; 2
    1a52:	0e 94 f0 0a 	call	0x15e0 <wirteOneBigNumber>
	wirteOneBigNumber(4,3,MinuteTen );	//10 分十位
    1a56:	40 91 71 00 	lds	r20, 0x0071
    1a5a:	63 e0       	ldi	r22, 0x03	; 3
    1a5c:	84 e0       	ldi	r24, 0x04	; 4
    1a5e:	0e 94 f0 0a 	call	0x15e0 <wirteOneBigNumber>
	wirteOneBigNumber(6,3,MinuteOne );	//11 分个位
    1a62:	40 91 72 00 	lds	r20, 0x0072
    1a66:	63 e0       	ldi	r22, 0x03	; 3
    1a68:	86 e0       	ldi	r24, 0x06	; 6
    1a6a:	0e 94 f0 0a 	call	0x15e0 <wirteOneBigNumber>
	
	writeOneSCROLL(0,23,YearThousand );		//0 年千位
    1a6e:	40 91 67 00 	lds	r20, 0x0067
    1a72:	67 e1       	ldi	r22, 0x17	; 23
    1a74:	80 e0       	ldi	r24, 0x00	; 0
    1a76:	0e 94 95 0a 	call	0x152a <writeOneSCROLL>
	writeOneSCROLL(1,23,YearHundred );		//1 年百位
    1a7a:	40 91 68 00 	lds	r20, 0x0068
    1a7e:	67 e1       	ldi	r22, 0x17	; 23
    1a80:	81 e0       	ldi	r24, 0x01	; 1
    1a82:	0e 94 95 0a 	call	0x152a <writeOneSCROLL>
	writeOneSCROLL(2,23,YearTen );		//2 年十位
    1a86:	40 91 69 00 	lds	r20, 0x0069
    1a8a:	67 e1       	ldi	r22, 0x17	; 23
    1a8c:	82 e0       	ldi	r24, 0x02	; 2
    1a8e:	0e 94 95 0a 	call	0x152a <writeOneSCROLL>
	writeOneSCROLL(3,23,YearOne );		//3 年个位
    1a92:	40 91 6a 00 	lds	r20, 0x006A
    1a96:	67 e1       	ldi	r22, 0x17	; 23
    1a98:	83 e0       	ldi	r24, 0x03	; 3
    1a9a:	0e 94 95 0a 	call	0x152a <writeOneSCROLL>
	writeOneSCROLL(4,23,10);
    1a9e:	4a e0       	ldi	r20, 0x0A	; 10
    1aa0:	67 e1       	ldi	r22, 0x17	; 23
    1aa2:	84 e0       	ldi	r24, 0x04	; 4
    1aa4:	0e 94 95 0a 	call	0x152a <writeOneSCROLL>
	writeOneSCROLL(5,23,MonthTen );		//4 月十位
    1aa8:	40 91 6b 00 	lds	r20, 0x006B
    1aac:	67 e1       	ldi	r22, 0x17	; 23
    1aae:	85 e0       	ldi	r24, 0x05	; 5
    1ab0:	0e 94 95 0a 	call	0x152a <writeOneSCROLL>
	writeOneSCROLL(6,23,MonthOne );		//5 月个位
    1ab4:	40 91 6c 00 	lds	r20, 0x006C
    1ab8:	67 e1       	ldi	r22, 0x17	; 23
    1aba:	86 e0       	ldi	r24, 0x06	; 6
    1abc:	0e 94 95 0a 	call	0x152a <writeOneSCROLL>
	writeOneSCROLL(7,23,11);	
    1ac0:	4b e0       	ldi	r20, 0x0B	; 11
    1ac2:	67 e1       	ldi	r22, 0x17	; 23
    1ac4:	87 e0       	ldi	r24, 0x07	; 7
    1ac6:	0e 94 95 0a 	call	0x152a <writeOneSCROLL>
	///// 10年 11月 12周 13度 14一 15二 16三 17四 18五 19六 20日 21点 22空格
	writeOneSCROLL(0,24,DayTen );		//6 日十位
    1aca:	40 91 6d 00 	lds	r20, 0x006D
    1ace:	68 e1       	ldi	r22, 0x18	; 24
    1ad0:	80 e0       	ldi	r24, 0x00	; 0
    1ad2:	0e 94 95 0a 	call	0x152a <writeOneSCROLL>
	writeOneSCROLL(1,24,DayOne );		//7 日个位
    1ad6:	40 91 6e 00 	lds	r20, 0x006E
    1ada:	68 e1       	ldi	r22, 0x18	; 24
    1adc:	81 e0       	ldi	r24, 0x01	; 1
    1ade:	0e 94 95 0a 	call	0x152a <writeOneSCROLL>
	writeOneSCROLL(2,24,20);
    1ae2:	44 e1       	ldi	r20, 0x14	; 20
    1ae4:	68 e1       	ldi	r22, 0x18	; 24
    1ae6:	82 e0       	ldi	r24, 0x02	; 2
    1ae8:	0e 94 95 0a 	call	0x152a <writeOneSCROLL>
	writeOneSCROLL(4,24,12);
    1aec:	4c e0       	ldi	r20, 0x0C	; 12
    1aee:	68 e1       	ldi	r22, 0x18	; 24
    1af0:	84 e0       	ldi	r24, 0x04	; 4
    1af2:	0e 94 95 0a 	call	0x152a <writeOneSCROLL>
	writeOneSCROLL(5,24,Week +13); 		//14 星期
    1af6:	80 91 75 00 	lds	r24, 0x0075
    1afa:	83 5f       	subi	r24, 0xF3	; 243
    1afc:	48 2f       	mov	r20, r24
    1afe:	68 e1       	ldi	r22, 0x18	; 24
    1b00:	85 e0       	ldi	r24, 0x05	; 5
    1b02:	0e 94 95 0a 	call	0x152a <writeOneSCROLL>
	writeOneSCROLL(7,24,TemperatureTen );		//15 温度十位
    1b06:	40 91 76 00 	lds	r20, 0x0076
    1b0a:	68 e1       	ldi	r22, 0x18	; 24
    1b0c:	87 e0       	ldi	r24, 0x07	; 7
    1b0e:	0e 94 95 0a 	call	0x152a <writeOneSCROLL>
	writeOneSCROLL(0,25,TemperatureOne );		//16 温度个位
    1b12:	40 91 77 00 	lds	r20, 0x0077
    1b16:	69 e1       	ldi	r22, 0x19	; 25
    1b18:	80 e0       	ldi	r24, 0x00	; 0
    1b1a:	0e 94 95 0a 	call	0x152a <writeOneSCROLL>
	writeOneSCROLL(1,25,21);	
    1b1e:	45 e1       	ldi	r20, 0x15	; 21
    1b20:	69 e1       	ldi	r22, 0x19	; 25
    1b22:	81 e0       	ldi	r24, 0x01	; 1
    1b24:	0e 94 95 0a 	call	0x152a <writeOneSCROLL>
	writeOneSCROLL(2,25,TemperatureDecimal );		//17 温度小数	
    1b28:	40 91 78 00 	lds	r20, 0x0078
    1b2c:	69 e1       	ldi	r22, 0x19	; 25
    1b2e:	82 e0       	ldi	r24, 0x02	; 2
    1b30:	0e 94 95 0a 	call	0x152a <writeOneSCROLL>
	writeOneSCROLL(3,25,13);	
    1b34:	4d e0       	ldi	r20, 0x0D	; 13
    1b36:	69 e1       	ldi	r22, 0x19	; 25
    1b38:	83 e0       	ldi	r24, 0x03	; 3
    1b3a:	0e 94 95 0a 	call	0x152a <writeOneSCROLL>
    1b3e:	08 95       	ret

00001b40 <display>:
}

void display()
{
    1b40:	ff 92       	push	r15
    1b42:	0f 93       	push	r16
    1b44:	1f 93       	push	r17
    1b46:	cf 93       	push	r28
    1b48:	df 93       	push	r29
	uint8 i;
	signed char j;
	uint8 k;
	uint8 *ptr0,*ptr1;

	moveSpeedTimerCount++;
    1b4a:	40 91 8e 00 	lds	r20, 0x008E
    1b4e:	50 91 8f 00 	lds	r21, 0x008F
    1b52:	4f 5f       	subi	r20, 0xFF	; 255
    1b54:	5f 4f       	sbci	r21, 0xFF	; 255
    1b56:	50 93 8f 00 	sts	0x008F, r21
    1b5a:	40 93 8e 00 	sts	0x008E, r20
	if(moveSpeedTimerCount > (9-moveSpeed)*10) 
    1b5e:	80 91 7b 00 	lds	r24, 0x007B
    1b62:	29 e0       	ldi	r18, 0x09	; 9
    1b64:	30 e0       	ldi	r19, 0x00	; 0
    1b66:	28 1b       	sub	r18, r24
    1b68:	31 09       	sbc	r19, r1
    1b6a:	c9 01       	movw	r24, r18
    1b6c:	63 e0       	ldi	r22, 0x03	; 3
    1b6e:	88 0f       	add	r24, r24
    1b70:	99 1f       	adc	r25, r25
    1b72:	6a 95       	dec	r22
    1b74:	e1 f7       	brne	.-8      	; 0x1b6e <display+0x2e>
    1b76:	82 0f       	add	r24, r18
    1b78:	93 1f       	adc	r25, r19
    1b7a:	82 0f       	add	r24, r18
    1b7c:	93 1f       	adc	r25, r19
    1b7e:	84 17       	cp	r24, r20
    1b80:	95 07       	cpc	r25, r21
    1b82:	68 f4       	brcc	.+26     	; 0x1b9e <display+0x5e>
	{
		moveSpeedTimerCount = 0;
    1b84:	10 92 8f 00 	sts	0x008F, r1
    1b88:	10 92 8e 00 	sts	0x008E, r1
		currentMoveLeft ++;
    1b8c:	80 91 8b 02 	lds	r24, 0x028B
    1b90:	8f 5f       	subi	r24, 0xFF	; 255
    1b92:	80 93 8b 02 	sts	0x028B, r24
		if(currentMoveLeft > 192)
    1b96:	81 3c       	cpi	r24, 0xC1	; 193
    1b98:	10 f0       	brcs	.+4      	; 0x1b9e <display+0x5e>
		{
			currentMoveLeft = 0;
    1b9a:	10 92 8b 02 	sts	0x028B, r1
		}
	}
	if(Mode == 0)
    1b9e:	20 91 7c 00 	lds	r18, 0x007C
    1ba2:	22 23       	and	r18, r18
    1ba4:	e9 f4       	brne	.+58     	; 0x1be0 <display+0xa0>
	{
		halfSecondCount ++;
    1ba6:	80 91 85 02 	lds	r24, 0x0285
    1baa:	90 91 86 02 	lds	r25, 0x0286
    1bae:	01 96       	adiw	r24, 0x01	; 1
    1bb0:	90 93 86 02 	sts	0x0286, r25
    1bb4:	80 93 85 02 	sts	0x0285, r24
		if(halfSecondCount > 740) //到0.5s
    1bb8:	85 5e       	subi	r24, 0xE5	; 229
    1bba:	92 40       	sbci	r25, 0x02	; 2
    1bbc:	88 f0       	brcs	.+34     	; 0x1be0 <display+0xa0>
		{
			halfSecondCount = 0;
    1bbe:	10 92 86 02 	sts	0x0286, r1
    1bc2:	10 92 85 02 	sts	0x0285, r1
			if(isSecondCountShow)
    1bc6:	80 91 87 02 	lds	r24, 0x0287
    1bca:	88 23       	and	r24, r24
    1bcc:	21 f0       	breq	.+8      	; 0x1bd6 <display+0x96>
			{
				isSecondCountShow = 0;
    1bce:	20 93 87 02 	sts	0x0287, r18
				writeCloclColon(0);
    1bd2:	82 2f       	mov	r24, r18
    1bd4:	03 c0       	rjmp	.+6      	; 0x1bdc <display+0x9c>
			}
			else 
			{
				isSecondCountShow = 1;
    1bd6:	81 e0       	ldi	r24, 0x01	; 1
    1bd8:	80 93 87 02 	sts	0x0287, r24
				writeCloclColon(1);
    1bdc:	0e 94 ed 09 	call	0x13da <writeCloclColon>
			}
		}
	}
	if(display_cnt > 5)
    1be0:	80 91 88 02 	lds	r24, 0x0288
    1be4:	86 30       	cpi	r24, 0x06	; 6
    1be6:	08 f4       	brcc	.+2      	; 0x1bea <display+0xaa>
    1be8:	47 c0       	rjmp	.+142    	; 0x1c78 <display+0x138>
	{
		if(Mode == 0) //正常显示模式 日期温度滚动
    1bea:	80 91 7c 00 	lds	r24, 0x007C
    1bee:	88 23       	and	r24, r24
    1bf0:	09 f0       	breq	.+2      	; 0x1bf4 <display+0xb4>
    1bf2:	42 c0       	rjmp	.+132    	; 0x1c78 <display+0x138>
		{
			uint8 temp1 = currentMoveLeft>>3;
    1bf4:	90 91 8b 02 	lds	r25, 0x028B
			uint8 temp2 = currentMoveLeft<<5;
			temp2 = temp2>>5;
    1bf8:	39 2f       	mov	r19, r25
    1bfa:	37 70       	andi	r19, 0x07	; 7
			uint16 temp3 = 176+(display_cnt-6)*24+temp1;
    1bfc:	20 91 88 02 	lds	r18, 0x0288
    1c00:	88 e1       	ldi	r24, 0x18	; 24
    1c02:	28 9f       	mul	r18, r24
    1c04:	f0 01       	movw	r30, r0
    1c06:	11 24       	eor	r1, r1
    1c08:	96 95       	lsr	r25
    1c0a:	96 95       	lsr	r25
    1c0c:	96 95       	lsr	r25
    1c0e:	e9 0f       	add	r30, r25
    1c10:	f1 1d       	adc	r31, r1
			ptr0 = &display_buffer[0+display_cnt*8];
    1c12:	80 91 88 02 	lds	r24, 0x0288
    1c16:	a8 2f       	mov	r26, r24
    1c18:	bb 27       	eor	r27, r27
    1c1a:	93 e0       	ldi	r25, 0x03	; 3
    1c1c:	aa 0f       	add	r26, r26
    1c1e:	bb 1f       	adc	r27, r27
    1c20:	9a 95       	dec	r25
    1c22:	e1 f7       	brne	.-8      	; 0x1c1c <display+0xdc>
    1c24:	af 56       	subi	r26, 0x6F	; 111
    1c26:	bf 4f       	sbci	r27, 0xFF	; 255
    1c28:	63 2f       	mov	r22, r19
    1c2a:	77 27       	eor	r23, r23
    1c2c:	48 e0       	ldi	r20, 0x08	; 8
    1c2e:	50 e0       	ldi	r21, 0x00	; 0
    1c30:	46 1b       	sub	r20, r22
    1c32:	57 0b       	sbc	r21, r23
    1c34:	06 e8       	ldi	r16, 0x86	; 134
    1c36:	10 e0       	ldi	r17, 0x00	; 0
    1c38:	ef 54       	subi	r30, 0x4F	; 79
    1c3a:	ff 4f       	sbci	r31, 0xFF	; 255
    1c3c:	87 e0       	ldi	r24, 0x07	; 7
    1c3e:	f8 2e       	mov	r15, r24
			for(k=0; k<8; k++)
			{
				display_buffer_temp[k] = (display_buffer[temp3+k]<<temp2) | (display_buffer[temp3+k+1]>>(8-temp2));
    1c40:	80 81       	ld	r24, Z
    1c42:	28 2f       	mov	r18, r24
    1c44:	33 27       	eor	r19, r19
    1c46:	06 2e       	mov	r0, r22
    1c48:	02 c0       	rjmp	.+4      	; 0x1c4e <display+0x10e>
    1c4a:	22 0f       	add	r18, r18
    1c4c:	33 1f       	adc	r19, r19
    1c4e:	0a 94       	dec	r0
    1c50:	e2 f7       	brpl	.-8      	; 0x1c4a <display+0x10a>
    1c52:	81 81       	ldd	r24, Z+1	; 0x01
    1c54:	99 27       	eor	r25, r25
    1c56:	04 2e       	mov	r0, r20
    1c58:	02 c0       	rjmp	.+4      	; 0x1c5e <display+0x11e>
    1c5a:	95 95       	asr	r25
    1c5c:	87 95       	ror	r24
    1c5e:	0a 94       	dec	r0
    1c60:	e2 f7       	brpl	.-8      	; 0x1c5a <display+0x11a>
    1c62:	82 2b       	or	r24, r18
    1c64:	e8 01       	movw	r28, r16
    1c66:	89 93       	st	Y+, r24
    1c68:	8e 01       	movw	r16, r28
    1c6a:	fa 94       	dec	r15
    1c6c:	31 96       	adiw	r30, 0x01	; 1
    1c6e:	f7 fe       	sbrs	r15, 7
    1c70:	e7 cf       	rjmp	.-50     	; 0x1c40 <display+0x100>
			}
			ptr1 = display_buffer_temp;
    1c72:	e6 e8       	ldi	r30, 0x86	; 134
    1c74:	f0 e0       	ldi	r31, 0x00	; 0
    1c76:	16 c0       	rjmp	.+44     	; 0x1ca4 <display+0x164>
		}
		else //设置模式 不滚动
		{
			ptr0 = &display_buffer[0+display_cnt*8];
			ptr1 = &display_buffer[128+display_cnt*8];
		}
	}
	else
	{
		ptr0 = &display_buffer[0+display_cnt*8];
    1c78:	80 91 88 02 	lds	r24, 0x0288
    1c7c:	a8 2f       	mov	r26, r24
    1c7e:	bb 27       	eor	r27, r27
    1c80:	13 e0       	ldi	r17, 0x03	; 3
    1c82:	aa 0f       	add	r26, r26
    1c84:	bb 1f       	adc	r27, r27
    1c86:	1a 95       	dec	r17
    1c88:	e1 f7       	brne	.-8      	; 0x1c82 <display+0x142>
    1c8a:	af 56       	subi	r26, 0x6F	; 111
    1c8c:	bf 4f       	sbci	r27, 0xFF	; 255
		ptr1 = &display_buffer[128+display_cnt*8];	
    1c8e:	80 91 88 02 	lds	r24, 0x0288
    1c92:	e8 2f       	mov	r30, r24
    1c94:	ff 27       	eor	r31, r31
    1c96:	c3 e0       	ldi	r28, 0x03	; 3
    1c98:	ee 0f       	add	r30, r30
    1c9a:	ff 1f       	adc	r31, r31
    1c9c:	ca 95       	dec	r28
    1c9e:	e1 f7       	brne	.-8      	; 0x1c98 <display+0x158>
    1ca0:	ef 5e       	subi	r30, 0xEF	; 239
    1ca2:	fe 4f       	sbci	r31, 0xFE	; 254
	}
	
	if(Display_color == 0)
    1ca4:	80 91 81 00 	lds	r24, 0x0081
    1ca8:	88 23       	and	r24, r24
    1caa:	49 f5       	brne	.+82     	; 0x1cfe <display+0x1be>
	{
	/* 单红	*/
		for(i=0;i<8;i++)
    1cac:	58 2f       	mov	r21, r24
		{
			for(j=7;j>=0;j--)
    1cae:	47 e0       	ldi	r20, 0x07	; 7
    1cb0:	27 e0       	ldi	r18, 0x07	; 7
    1cb2:	30 e0       	ldi	r19, 0x00	; 0
			{
				HC595_D0_H;
    1cb4:	94 9a       	sbi	0x12, 4	; 18
				HC595_D1_H;
    1cb6:	95 9a       	sbi	0x12, 5	; 18
				HC595_D2_H;
    1cb8:	d9 9a       	sbi	0x1b, 1	; 27
				HC595_D3_H;
    1cba:	da 9a       	sbi	0x1b, 2	; 27
				if(*ptr0 & 1<<j)
    1cbc:	8c 91       	ld	r24, X
    1cbe:	99 27       	eor	r25, r25
    1cc0:	02 2e       	mov	r0, r18
    1cc2:	02 c0       	rjmp	.+4      	; 0x1cc8 <display+0x188>
    1cc4:	95 95       	asr	r25
    1cc6:	87 95       	ror	r24
    1cc8:	0a 94       	dec	r0
    1cca:	e2 f7       	brpl	.-8      	; 0x1cc4 <display+0x184>
    1ccc:	80 fd       	sbrc	r24, 0
				{
					HC595_D0_L;
    1cce:	94 98       	cbi	0x12, 4	; 18
				}
				if(*ptr1 & 1<<j)
    1cd0:	80 81       	ld	r24, Z
    1cd2:	99 27       	eor	r25, r25
    1cd4:	02 2e       	mov	r0, r18
    1cd6:	02 c0       	rjmp	.+4      	; 0x1cdc <display+0x19c>
    1cd8:	95 95       	asr	r25
    1cda:	87 95       	ror	r24
    1cdc:	0a 94       	dec	r0
    1cde:	e2 f7       	brpl	.-8      	; 0x1cd8 <display+0x198>
    1ce0:	80 fd       	sbrc	r24, 0
				{
					HC595_D1_L;
    1ce2:	95 98       	cbi	0x12, 5	; 18
				}
				HC595_SCK_L;
    1ce4:	93 98       	cbi	0x12, 3	; 18
				HC595_SCK_H;
    1ce6:	93 9a       	sbi	0x12, 3	; 18
    1ce8:	41 50       	subi	r20, 0x01	; 1
    1cea:	21 50       	subi	r18, 0x01	; 1
    1cec:	30 40       	sbci	r19, 0x00	; 0
    1cee:	47 ff       	sbrs	r20, 7
    1cf0:	e1 cf       	rjmp	.-62     	; 0x1cb4 <display+0x174>
			}
			ptr0++;
    1cf2:	11 96       	adiw	r26, 0x01	; 1
			ptr1++;
    1cf4:	31 96       	adiw	r30, 0x01	; 1
    1cf6:	5f 5f       	subi	r21, 0xFF	; 255
    1cf8:	58 30       	cpi	r21, 0x08	; 8
    1cfa:	c8 f2       	brcs	.-78     	; 0x1cae <display+0x16e>
    1cfc:	af c0       	rjmp	.+350    	; 0x1e5c <display+0x31c>
		}
		
	}
	else if(Display_color == 1)
    1cfe:	81 30       	cpi	r24, 0x01	; 1
    1d00:	49 f5       	brne	.+82     	; 0x1d54 <display+0x214>
	{
	/*单绿	*/
		for(i=0;i<8;i++)
    1d02:	50 e0       	ldi	r21, 0x00	; 0
		{
			for(j=7;j>=0;j--)
    1d04:	47 e0       	ldi	r20, 0x07	; 7
    1d06:	27 e0       	ldi	r18, 0x07	; 7
    1d08:	30 e0       	ldi	r19, 0x00	; 0
			{
				HC595_D0_H;
    1d0a:	94 9a       	sbi	0x12, 4	; 18
				HC595_D1_H;
    1d0c:	95 9a       	sbi	0x12, 5	; 18
				HC595_D2_H;
    1d0e:	d9 9a       	sbi	0x1b, 1	; 27
				HC595_D3_H;
    1d10:	da 9a       	sbi	0x1b, 2	; 27
				if(*ptr0 & 1<<j)
    1d12:	8c 91       	ld	r24, X
    1d14:	99 27       	eor	r25, r25
    1d16:	02 2e       	mov	r0, r18
    1d18:	02 c0       	rjmp	.+4      	; 0x1d1e <display+0x1de>
    1d1a:	95 95       	asr	r25
    1d1c:	87 95       	ror	r24
    1d1e:	0a 94       	dec	r0
    1d20:	e2 f7       	brpl	.-8      	; 0x1d1a <display+0x1da>
    1d22:	80 fd       	sbrc	r24, 0
				{
					HC595_D2_L;
    1d24:	d9 98       	cbi	0x1b, 1	; 27
				}
				if(*ptr1 & 1<<j)
    1d26:	80 81       	ld	r24, Z
    1d28:	99 27       	eor	r25, r25
    1d2a:	02 2e       	mov	r0, r18
    1d2c:	02 c0       	rjmp	.+4      	; 0x1d32 <display+0x1f2>
    1d2e:	95 95       	asr	r25
    1d30:	87 95       	ror	r24
    1d32:	0a 94       	dec	r0
    1d34:	e2 f7       	brpl	.-8      	; 0x1d2e <display+0x1ee>
    1d36:	80 fd       	sbrc	r24, 0
				{
					HC595_D3_L;
    1d38:	da 98       	cbi	0x1b, 2	; 27
				}
				HC595_SCK_L;
    1d3a:	93 98       	cbi	0x12, 3	; 18
				HC595_SCK_H;
    1d3c:	93 9a       	sbi	0x12, 3	; 18
    1d3e:	41 50       	subi	r20, 0x01	; 1
    1d40:	21 50       	subi	r18, 0x01	; 1
    1d42:	30 40       	sbci	r19, 0x00	; 0
    1d44:	47 ff       	sbrs	r20, 7
    1d46:	e1 cf       	rjmp	.-62     	; 0x1d0a <display+0x1ca>
			}
			ptr0++;
    1d48:	11 96       	adiw	r26, 0x01	; 1
			ptr1++;
    1d4a:	31 96       	adiw	r30, 0x01	; 1
    1d4c:	5f 5f       	subi	r21, 0xFF	; 255
    1d4e:	58 30       	cpi	r21, 0x08	; 8
    1d50:	c8 f2       	brcs	.-78     	; 0x1d04 <display+0x1c4>
    1d52:	84 c0       	rjmp	.+264    	; 0x1e5c <display+0x31c>
		}
		
	}
	else if(Display_color == 2)
    1d54:	82 30       	cpi	r24, 0x02	; 2
    1d56:	69 f5       	brne	.+90     	; 0x1db2 <display+0x272>
	{
	/*单黄*/
		for(i=0;i<8;i++)
    1d58:	50 e0       	ldi	r21, 0x00	; 0
		{
			for(j=7;j>=0;j--)
    1d5a:	47 e0       	ldi	r20, 0x07	; 7
    1d5c:	27 e0       	ldi	r18, 0x07	; 7
    1d5e:	30 e0       	ldi	r19, 0x00	; 0
			{
				HC595_D0_H;
    1d60:	94 9a       	sbi	0x12, 4	; 18
				HC595_D1_H;
    1d62:	95 9a       	sbi	0x12, 5	; 18
				HC595_D2_H;
    1d64:	d9 9a       	sbi	0x1b, 1	; 27
				HC595_D3_H;
    1d66:	da 9a       	sbi	0x1b, 2	; 27
				if(*ptr0 & 1<<j)
    1d68:	8c 91       	ld	r24, X
    1d6a:	99 27       	eor	r25, r25
    1d6c:	02 2e       	mov	r0, r18
    1d6e:	02 c0       	rjmp	.+4      	; 0x1d74 <display+0x234>
    1d70:	95 95       	asr	r25
    1d72:	87 95       	ror	r24
    1d74:	0a 94       	dec	r0
    1d76:	e2 f7       	brpl	.-8      	; 0x1d70 <display+0x230>
    1d78:	80 ff       	sbrs	r24, 0
    1d7a:	02 c0       	rjmp	.+4      	; 0x1d80 <display+0x240>
				{
					HC595_D0_L;
    1d7c:	94 98       	cbi	0x12, 4	; 18
					HC595_D2_L;
    1d7e:	d9 98       	cbi	0x1b, 1	; 27
				}
				if(*ptr1 & 1<<j)
    1d80:	80 81       	ld	r24, Z
    1d82:	99 27       	eor	r25, r25
    1d84:	02 2e       	mov	r0, r18
    1d86:	02 c0       	rjmp	.+4      	; 0x1d8c <display+0x24c>
    1d88:	95 95       	asr	r25
    1d8a:	87 95       	ror	r24
    1d8c:	0a 94       	dec	r0
    1d8e:	e2 f7       	brpl	.-8      	; 0x1d88 <display+0x248>
    1d90:	80 ff       	sbrs	r24, 0
    1d92:	02 c0       	rjmp	.+4      	; 0x1d98 <display+0x258>
				{
					HC595_D1_L;
    1d94:	95 98       	cbi	0x12, 5	; 18
					HC595_D3_L;
    1d96:	da 98       	cbi	0x1b, 2	; 27
				}
				HC595_SCK_L;
    1d98:	93 98       	cbi	0x12, 3	; 18
				HC595_SCK_H;
    1d9a:	93 9a       	sbi	0x12, 3	; 18
    1d9c:	41 50       	subi	r20, 0x01	; 1
    1d9e:	21 50       	subi	r18, 0x01	; 1
    1da0:	30 40       	sbci	r19, 0x00	; 0
    1da2:	47 ff       	sbrs	r20, 7
    1da4:	dd cf       	rjmp	.-70     	; 0x1d60 <display+0x220>
			}
			ptr0++;
    1da6:	11 96       	adiw	r26, 0x01	; 1
			ptr1++;
    1da8:	31 96       	adiw	r30, 0x01	; 1
    1daa:	5f 5f       	subi	r21, 0xFF	; 255
    1dac:	58 30       	cpi	r21, 0x08	; 8
    1dae:	a8 f2       	brcs	.-86     	; 0x1d5a <display+0x21a>
    1db0:	55 c0       	rjmp	.+170    	; 0x1e5c <display+0x31c>
		}
			
	}
	else if(Display_color == 3)
    1db2:	83 30       	cpi	r24, 0x03	; 3
    1db4:	49 f5       	brne	.+82     	; 0x1e08 <display+0x2c8>
	{
	/*红底黄字*/
		for(i=0;i<8;i++)
    1db6:	50 e0       	ldi	r21, 0x00	; 0
		{
			for(j=7;j>=0;j--)
    1db8:	47 e0       	ldi	r20, 0x07	; 7
    1dba:	27 e0       	ldi	r18, 0x07	; 7
    1dbc:	30 e0       	ldi	r19, 0x00	; 0
			{
				HC595_D0_L;
    1dbe:	94 98       	cbi	0x12, 4	; 18
				HC595_D1_L;
    1dc0:	95 98       	cbi	0x12, 5	; 18
				HC595_D2_H;
    1dc2:	d9 9a       	sbi	0x1b, 1	; 27
				HC595_D3_H;
    1dc4:	da 9a       	sbi	0x1b, 2	; 27
				if(*ptr0 & 1<<j)
    1dc6:	8c 91       	ld	r24, X
    1dc8:	99 27       	eor	r25, r25
    1dca:	02 2e       	mov	r0, r18
    1dcc:	02 c0       	rjmp	.+4      	; 0x1dd2 <display+0x292>
    1dce:	95 95       	asr	r25
    1dd0:	87 95       	ror	r24
    1dd2:	0a 94       	dec	r0
    1dd4:	e2 f7       	brpl	.-8      	; 0x1dce <display+0x28e>
    1dd6:	80 fd       	sbrc	r24, 0
				{
					HC595_D2_L;
    1dd8:	d9 98       	cbi	0x1b, 1	; 27
				}
				if(*ptr1 & 1<<j)
    1dda:	80 81       	ld	r24, Z
    1ddc:	99 27       	eor	r25, r25
    1dde:	02 2e       	mov	r0, r18
    1de0:	02 c0       	rjmp	.+4      	; 0x1de6 <display+0x2a6>
    1de2:	95 95       	asr	r25
    1de4:	87 95       	ror	r24
    1de6:	0a 94       	dec	r0
    1de8:	e2 f7       	brpl	.-8      	; 0x1de2 <display+0x2a2>
    1dea:	80 fd       	sbrc	r24, 0
				{
					HC595_D3_L;
    1dec:	da 98       	cbi	0x1b, 2	; 27
				}
				HC595_SCK_L;
    1dee:	93 98       	cbi	0x12, 3	; 18
				HC595_SCK_H;
    1df0:	93 9a       	sbi	0x12, 3	; 18
    1df2:	41 50       	subi	r20, 0x01	; 1
    1df4:	21 50       	subi	r18, 0x01	; 1
    1df6:	30 40       	sbci	r19, 0x00	; 0
    1df8:	47 ff       	sbrs	r20, 7
    1dfa:	e1 cf       	rjmp	.-62     	; 0x1dbe <display+0x27e>
			}
			ptr0++;
    1dfc:	11 96       	adiw	r26, 0x01	; 1
			ptr1++;
    1dfe:	31 96       	adiw	r30, 0x01	; 1
    1e00:	5f 5f       	subi	r21, 0xFF	; 255
    1e02:	58 30       	cpi	r21, 0x08	; 8
    1e04:	c8 f2       	brcs	.-78     	; 0x1db8 <display+0x278>
    1e06:	2a c0       	rjmp	.+84     	; 0x1e5c <display+0x31c>
		}
	}
	else if(Display_color == 4)
    1e08:	84 30       	cpi	r24, 0x04	; 4
    1e0a:	41 f5       	brne	.+80     	; 0x1e5c <display+0x31c>
	{
	/* 绿底黄字*/
		for(i=0;i<8;i++)
    1e0c:	50 e0       	ldi	r21, 0x00	; 0
		{
			for(j=7;j>=0;j--)
    1e0e:	47 e0       	ldi	r20, 0x07	; 7
    1e10:	27 e0       	ldi	r18, 0x07	; 7
    1e12:	30 e0       	ldi	r19, 0x00	; 0
			{
				HC595_D0_H;
    1e14:	94 9a       	sbi	0x12, 4	; 18
				HC595_D1_H;
    1e16:	95 9a       	sbi	0x12, 5	; 18
				HC595_D2_L;
    1e18:	d9 98       	cbi	0x1b, 1	; 27
				HC595_D3_L;
    1e1a:	da 98       	cbi	0x1b, 2	; 27
				if(*ptr0 & 1<<j)
    1e1c:	8c 91       	ld	r24, X
    1e1e:	99 27       	eor	r25, r25
    1e20:	02 2e       	mov	r0, r18
    1e22:	02 c0       	rjmp	.+4      	; 0x1e28 <display+0x2e8>
    1e24:	95 95       	asr	r25
    1e26:	87 95       	ror	r24
    1e28:	0a 94       	dec	r0
    1e2a:	e2 f7       	brpl	.-8      	; 0x1e24 <display+0x2e4>
    1e2c:	80 fd       	sbrc	r24, 0
				{
					HC595_D0_L;
    1e2e:	94 98       	cbi	0x12, 4	; 18
				}
				if(*ptr1 & 1<<j)
    1e30:	80 81       	ld	r24, Z
    1e32:	99 27       	eor	r25, r25
    1e34:	02 2e       	mov	r0, r18
    1e36:	02 c0       	rjmp	.+4      	; 0x1e3c <display+0x2fc>
    1e38:	95 95       	asr	r25
    1e3a:	87 95       	ror	r24
    1e3c:	0a 94       	dec	r0
    1e3e:	e2 f7       	brpl	.-8      	; 0x1e38 <display+0x2f8>
    1e40:	80 fd       	sbrc	r24, 0
				{
					HC595_D1_L;
    1e42:	95 98       	cbi	0x12, 5	; 18
				}
				HC595_SCK_L;
    1e44:	93 98       	cbi	0x12, 3	; 18
				HC595_SCK_H;
    1e46:	93 9a       	sbi	0x12, 3	; 18
    1e48:	41 50       	subi	r20, 0x01	; 1
    1e4a:	21 50       	subi	r18, 0x01	; 1
    1e4c:	30 40       	sbci	r19, 0x00	; 0
    1e4e:	47 ff       	sbrs	r20, 7
    1e50:	e1 cf       	rjmp	.-62     	; 0x1e14 <display+0x2d4>
			}
			ptr0++;
    1e52:	11 96       	adiw	r26, 0x01	; 1
			ptr1++;
    1e54:	31 96       	adiw	r30, 0x01	; 1
    1e56:	5f 5f       	subi	r21, 0xFF	; 255
    1e58:	58 30       	cpi	r21, 0x08	; 8
    1e5a:	c8 f2       	brcs	.-78     	; 0x1e0e <display+0x2ce>
		}
	
	}
	//LS138_E_T_H;
	HC595_LAT_L;
    1e5c:	92 98       	cbi	0x12, 2	; 18
	HC595_LAT_H;
    1e5e:	92 9a       	sbi	0x12, 2	; 18

	switch(display_cnt)
    1e60:	80 91 88 02 	lds	r24, 0x0288
    1e64:	99 27       	eor	r25, r25
    1e66:	87 30       	cpi	r24, 0x07	; 7
    1e68:	91 05       	cpc	r25, r1
    1e6a:	09 f4       	brne	.+2      	; 0x1e6e <display+0x32e>
    1e6c:	42 c0       	rjmp	.+132    	; 0x1ef2 <display+0x3b2>
    1e6e:	88 30       	cpi	r24, 0x08	; 8
    1e70:	91 05       	cpc	r25, r1
    1e72:	ac f4       	brge	.+42     	; 0x1e9e <display+0x35e>
    1e74:	83 30       	cpi	r24, 0x03	; 3
    1e76:	91 05       	cpc	r25, r1
    1e78:	81 f1       	breq	.+96     	; 0x1eda <display+0x39a>
    1e7a:	84 30       	cpi	r24, 0x04	; 4
    1e7c:	91 05       	cpc	r25, r1
    1e7e:	4c f4       	brge	.+18     	; 0x1e92 <display+0x352>
    1e80:	81 30       	cpi	r24, 0x01	; 1
    1e82:	91 05       	cpc	r25, r1
    1e84:	31 f1       	breq	.+76     	; 0x1ed2 <display+0x392>
    1e86:	82 30       	cpi	r24, 0x02	; 2
    1e88:	91 05       	cpc	r25, r1
    1e8a:	2c f5       	brge	.+74     	; 0x1ed6 <display+0x396>
    1e8c:	89 2b       	or	r24, r25
    1e8e:	f9 f0       	breq	.+62     	; 0x1ece <display+0x38e>
    1e90:	4c c0       	rjmp	.+152    	; 0x1f2a <display+0x3ea>
    1e92:	85 30       	cpi	r24, 0x05	; 5
    1e94:	91 05       	cpc	r25, r1
    1e96:	39 f1       	breq	.+78     	; 0x1ee6 <display+0x3a6>
    1e98:	06 97       	sbiw	r24, 0x06	; 6
    1e9a:	4c f5       	brge	.+82     	; 0x1eee <display+0x3ae>
    1e9c:	20 c0       	rjmp	.+64     	; 0x1ede <display+0x39e>
    1e9e:	8b 30       	cpi	r24, 0x0B	; 11
    1ea0:	91 05       	cpc	r25, r1
    1ea2:	91 f1       	breq	.+100    	; 0x1f08 <display+0x3c8>
    1ea4:	8c 30       	cpi	r24, 0x0C	; 12
    1ea6:	91 05       	cpc	r25, r1
    1ea8:	34 f4       	brge	.+12     	; 0x1eb6 <display+0x376>
    1eaa:	89 30       	cpi	r24, 0x09	; 9
    1eac:	91 05       	cpc	r25, r1
    1eae:	31 f1       	breq	.+76     	; 0x1efc <display+0x3bc>
    1eb0:	0a 97       	sbiw	r24, 0x0a	; 10
    1eb2:	3c f5       	brge	.+78     	; 0x1f02 <display+0x3c2>
    1eb4:	20 c0       	rjmp	.+64     	; 0x1ef6 <display+0x3b6>
    1eb6:	8d 30       	cpi	r24, 0x0D	; 13
    1eb8:	91 05       	cpc	r25, r1
    1eba:	59 f1       	breq	.+86     	; 0x1f12 <display+0x3d2>
    1ebc:	8d 30       	cpi	r24, 0x0D	; 13
    1ebe:	91 05       	cpc	r25, r1
    1ec0:	34 f1       	brlt	.+76     	; 0x1f0e <display+0x3ce>
    1ec2:	8e 30       	cpi	r24, 0x0E	; 14
    1ec4:	91 05       	cpc	r25, r1
    1ec6:	39 f1       	breq	.+78     	; 0x1f16 <display+0x3d6>
    1ec8:	0f 97       	sbiw	r24, 0x0f	; 15
    1eca:	51 f1       	breq	.+84     	; 0x1f20 <display+0x3e0>
    1ecc:	2e c0       	rjmp	.+92     	; 0x1f2a <display+0x3ea>
	{
		case 0: 
			LS138_D_L;LS138_C_L;LS138_B_L;LS138_A_L;
    1ece:	c4 98       	cbi	0x18, 4	; 24
    1ed0:	13 c0       	rjmp	.+38     	; 0x1ef8 <display+0x3b8>
			break;	
		case 1: 
			LS138_D_L;LS138_C_L;LS138_B_L;LS138_A_H;
    1ed2:	c4 98       	cbi	0x18, 4	; 24
    1ed4:	14 c0       	rjmp	.+40     	; 0x1efe <display+0x3be>
			break;
		case 2: 
			LS138_D_L;LS138_C_L;LS138_B_H;LS138_A_L;
    1ed6:	c4 98       	cbi	0x18, 4	; 24
    1ed8:	15 c0       	rjmp	.+42     	; 0x1f04 <display+0x3c4>
			break;	
		case 3: 
			LS138_D_L;LS138_C_L;LS138_B_H;LS138_A_H;
    1eda:	c4 98       	cbi	0x18, 4	; 24
    1edc:	16 c0       	rjmp	.+44     	; 0x1f0a <display+0x3ca>
			break;		
		case 4: 
			LS138_D_L;LS138_C_H;LS138_B_L;LS138_A_L;
    1ede:	c4 98       	cbi	0x18, 4	; 24
    1ee0:	c2 9a       	sbi	0x18, 2	; 24
    1ee2:	c1 98       	cbi	0x18, 1	; 24
    1ee4:	1b c0       	rjmp	.+54     	; 0x1f1c <display+0x3dc>
			break;	
		case 5: 
			LS138_D_L;LS138_C_H;LS138_B_L;LS138_A_H;
    1ee6:	c4 98       	cbi	0x18, 4	; 24
    1ee8:	c2 9a       	sbi	0x18, 2	; 24
    1eea:	c1 98       	cbi	0x18, 1	; 24
    1eec:	1c c0       	rjmp	.+56     	; 0x1f26 <display+0x3e6>
			break;
		case 6: 
			LS138_D_L;LS138_C_H;LS138_B_H;LS138_A_L;
    1eee:	c4 98       	cbi	0x18, 4	; 24
    1ef0:	13 c0       	rjmp	.+38     	; 0x1f18 <display+0x3d8>
			break;
		case 7: 
			LS138_D_L;LS138_C_H;LS138_B_H;LS138_A_H;
    1ef2:	c4 98       	cbi	0x18, 4	; 24
    1ef4:	16 c0       	rjmp	.+44     	; 0x1f22 <display+0x3e2>
			break;	

		case 8: 
			LS138_D_H;LS138_C_L;LS138_B_L;LS138_A_L;
    1ef6:	c4 9a       	sbi	0x18, 4	; 24
    1ef8:	c2 98       	cbi	0x18, 2	; 24
    1efa:	f3 cf       	rjmp	.-26     	; 0x1ee2 <display+0x3a2>
			break;	
		case 9: 
			LS138_D_H;LS138_C_L;LS138_B_L;LS138_A_H;
    1efc:	c4 9a       	sbi	0x18, 4	; 24
    1efe:	c2 98       	cbi	0x18, 2	; 24
    1f00:	f4 cf       	rjmp	.-24     	; 0x1eea <display+0x3aa>
			break;	
		case 10: 
			LS138_D_H;LS138_C_L;LS138_B_H;LS138_A_L;
    1f02:	c4 9a       	sbi	0x18, 4	; 24
    1f04:	c2 98       	cbi	0x18, 2	; 24
    1f06:	09 c0       	rjmp	.+18     	; 0x1f1a <display+0x3da>
			break;	
		case 11: 
			LS138_D_H;LS138_C_L;LS138_B_H;LS138_A_H;
    1f08:	c4 9a       	sbi	0x18, 4	; 24
    1f0a:	c2 98       	cbi	0x18, 2	; 24
    1f0c:	0b c0       	rjmp	.+22     	; 0x1f24 <display+0x3e4>
			break;	
		case 12: 
			LS138_D_H;LS138_C_H;LS138_B_L;LS138_A_L;
    1f0e:	c4 9a       	sbi	0x18, 4	; 24
    1f10:	e7 cf       	rjmp	.-50     	; 0x1ee0 <display+0x3a0>
			break;	
		case 13: 
			LS138_D_H;LS138_C_H;LS138_B_L;LS138_A_H;
    1f12:	c4 9a       	sbi	0x18, 4	; 24
    1f14:	e9 cf       	rjmp	.-46     	; 0x1ee8 <display+0x3a8>
			break;	
		case 14: 
			LS138_D_H;LS138_C_H;LS138_B_H;LS138_A_L;
    1f16:	c4 9a       	sbi	0x18, 4	; 24
    1f18:	c2 9a       	sbi	0x18, 2	; 24
    1f1a:	c1 9a       	sbi	0x18, 1	; 24
    1f1c:	c0 98       	cbi	0x18, 0	; 24
			break;	
    1f1e:	07 c0       	rjmp	.+14     	; 0x1f2e <display+0x3ee>
		case 15: 
			LS138_D_H;LS138_C_H;LS138_B_H;LS138_A_H;
    1f20:	c4 9a       	sbi	0x18, 4	; 24
    1f22:	c2 9a       	sbi	0x18, 2	; 24
    1f24:	c1 9a       	sbi	0x18, 1	; 24
    1f26:	c0 9a       	sbi	0x18, 0	; 24
			break;	
    1f28:	02 c0       	rjmp	.+4      	; 0x1f2e <display+0x3ee>

		default: display_cnt=0;break;
    1f2a:	10 92 88 02 	sts	0x0288, r1
	}
	//LS138_E_T_L;
	display_cnt++;
    1f2e:	80 91 88 02 	lds	r24, 0x0288
    1f32:	8f 5f       	subi	r24, 0xFF	; 255
    1f34:	80 93 88 02 	sts	0x0288, r24
	if(display_cnt==16)display_cnt=0;
    1f38:	80 91 88 02 	lds	r24, 0x0288
    1f3c:	80 31       	cpi	r24, 0x10	; 16
    1f3e:	11 f4       	brne	.+4      	; 0x1f44 <display+0x404>
    1f40:	10 92 88 02 	sts	0x0288, r1
    1f44:	df 91       	pop	r29
    1f46:	cf 91       	pop	r28
    1f48:	1f 91       	pop	r17
    1f4a:	0f 91       	pop	r16
    1f4c:	ff 90       	pop	r15
    1f4e:	08 95       	ret

00001f50 <Show_welcome>:
}

void Show_welcome()
{
    1f50:	cf 93       	push	r28
    1f52:	df 93       	push	r29
	uint16 timer_count;
	Mode = 28;
    1f54:	8c e1       	ldi	r24, 0x1C	; 28
    1f56:	80 93 7c 00 	sts	0x007C, r24
	writeOneChinese(0, 0, 0);	
    1f5a:	40 e0       	ldi	r20, 0x00	; 0
    1f5c:	64 2f       	mov	r22, r20
    1f5e:	84 2f       	mov	r24, r20
    1f60:	0e 94 51 0a 	call	0x14a2 <writeOneChinese>
	writeOneChinese(2, 0, 1);
    1f64:	41 e0       	ldi	r20, 0x01	; 1
    1f66:	60 e0       	ldi	r22, 0x00	; 0
    1f68:	82 e0       	ldi	r24, 0x02	; 2
    1f6a:	0e 94 51 0a 	call	0x14a2 <writeOneChinese>
	writeOneChinese(4, 0, 2);
    1f6e:	42 e0       	ldi	r20, 0x02	; 2
    1f70:	60 e0       	ldi	r22, 0x00	; 0
    1f72:	84 e0       	ldi	r24, 0x04	; 4
    1f74:	0e 94 51 0a 	call	0x14a2 <writeOneChinese>
	writeOneChinese(6, 0, 3);
    1f78:	43 e0       	ldi	r20, 0x03	; 3
    1f7a:	60 e0       	ldi	r22, 0x00	; 0
    1f7c:	86 e0       	ldi	r24, 0x06	; 6
    1f7e:	0e 94 51 0a 	call	0x14a2 <writeOneChinese>
	writeOneChinese(0, 16, 4);	
    1f82:	44 e0       	ldi	r20, 0x04	; 4
    1f84:	60 e1       	ldi	r22, 0x10	; 16
    1f86:	80 e0       	ldi	r24, 0x00	; 0
    1f88:	0e 94 51 0a 	call	0x14a2 <writeOneChinese>
	writeOneChinese(2, 16, 5);
    1f8c:	45 e0       	ldi	r20, 0x05	; 5
    1f8e:	60 e1       	ldi	r22, 0x10	; 16
    1f90:	82 e0       	ldi	r24, 0x02	; 2
    1f92:	0e 94 51 0a 	call	0x14a2 <writeOneChinese>
	writeOneChinese(4, 16, 6);
    1f96:	46 e0       	ldi	r20, 0x06	; 6
    1f98:	60 e1       	ldi	r22, 0x10	; 16
    1f9a:	84 e0       	ldi	r24, 0x04	; 4
    1f9c:	0e 94 51 0a 	call	0x14a2 <writeOneChinese>
	writeOneChinese(6, 16, 7);
    1fa0:	47 e0       	ldi	r20, 0x07	; 7
    1fa2:	60 e1       	ldi	r22, 0x10	; 16
    1fa4:	86 e0       	ldi	r24, 0x06	; 6
    1fa6:	0e 94 51 0a 	call	0x14a2 <writeOneChinese>
    1faa:	c7 e8       	ldi	r28, 0x87	; 135
    1fac:	d3 e1       	ldi	r29, 0x13	; 19
	for(timer_count=0; timer_count< 5000; timer_count++)
	{
		display();
    1fae:	0e 94 a0 0d 	call	0x1b40 <display>
		s_10us(10); //延迟10ms
    1fb2:	8a e0       	ldi	r24, 0x0A	; 10
    1fb4:	90 e0       	ldi	r25, 0x00	; 0
    1fb6:	0e 94 0c 08 	call	0x1018 <s_10us>
    1fba:	21 97       	sbiw	r28, 0x01	; 1
    1fbc:	d7 ff       	sbrs	r29, 7
    1fbe:	f7 cf       	rjmp	.-18     	; 0x1fae <Show_welcome+0x5e>
	}
	clearScreen();
    1fc0:	0e 94 dc 09 	call	0x13b8 <clearScreen>
	Mode = 0;
    1fc4:	10 92 7c 00 	sts	0x007C, r1
    1fc8:	df 91       	pop	r29
    1fca:	cf 91       	pop	r28
    1fcc:	08 95       	ret

00001fce <twi_init>:

//功能描述: i2c通信初始化
void twi_init(void)
{
 TWCR= 0x00; //disable twi
    1fce:	16 be       	out	0x36, r1	; 54
 TWBR= (1<<6) | (1<<5) | (1<<2); //set bit rate
    1fd0:	84 e6       	ldi	r24, 0x64	; 100
    1fd2:	80 b9       	out	0x00, r24	; 0
 TWSR= 0x00; //set prescale
    1fd4:	11 b8       	out	0x01, r1	; 1
 TWAR= 0x00; //set slave address
    1fd6:	12 b8       	out	0x02, r1	; 2
 TWCR= (1<<TWEN); //enable twi
    1fd8:	84 e0       	ldi	r24, 0x04	; 4
    1fda:	86 bf       	out	0x36, r24	; 54
    1fdc:	08 95       	ret

00001fde <i2cstart>:
}

//i2c通信开始
void i2cstart(void)
{ 
	TWCR = (1<<TWINT) | (1<<TWSTA) | (1<<TWEN); 
    1fde:	84 ea       	ldi	r24, 0xA4	; 164
    1fe0:	86 bf       	out	0x36, r24	; 54
   	while (!(TWCR & (1<<TWINT)));
    1fe2:	06 b6       	in	r0, 0x36	; 54
    1fe4:	07 fe       	sbrs	r0, 7
    1fe6:	fd cf       	rjmp	.-6      	; 0x1fe2 <i2cstart+0x4>
    1fe8:	08 95       	ret

00001fea <i2cwt>:
}

//i2c写数据,返回TWI状态
unsigned char i2cwt(unsigned char data)
{ 
	TWDR = data;
    1fea:	83 b9       	out	0x03, r24	; 3
   	TWCR = (1<<TWINT) | (1<<TWEN);
    1fec:	84 e8       	ldi	r24, 0x84	; 132
    1fee:	86 bf       	out	0x36, r24	; 54
   	while (!(TWCR & (1<<TWINT)));
    1ff0:	06 b6       	in	r0, 0x36	; 54
    1ff2:	07 fe       	sbrs	r0, 7
    1ff4:	fd cf       	rjmp	.-6      	; 0x1ff0 <i2cwt+0x6>
   	asm("nop");
    1ff6:	00 00       	nop
   	return(TWSR&0b11111000);
    1ff8:	81 b1       	in	r24, 0x01	; 1
    1ffa:	99 27       	eor	r25, r25
}
    1ffc:	88 7f       	andi	r24, 0xF8	; 248
    1ffe:	90 70       	andi	r25, 0x00	; 0
    2000:	08 95       	ret

00002002 <i2crd>:

//i2c读数据
unsigned char i2crd(void)
{
   	TWCR= (1<<TWINT) | (1<<TWEA) | (1<<TWEN);
    2002:	84 ec       	ldi	r24, 0xC4	; 196
    2004:	86 bf       	out	0x36, r24	; 54
   	while (!(TWCR & (1<<TWINT)));
    2006:	06 b6       	in	r0, 0x36	; 54
    2008:	07 fe       	sbrs	r0, 7
    200a:	fd cf       	rjmp	.-6      	; 0x2006 <i2crd+0x4>
   	return(TWDR);
    200c:	83 b1       	in	r24, 0x03	; 3
}
    200e:	99 27       	eor	r25, r25
    2010:	08 95       	ret

00002012 <i2cstop>:

//功能描述: i2c停止
void i2cstop(void)
{ 
   TWCR = (1<<TWINT) | (1<<TWSTO) | (1<<TWEN);
    2012:	84 e9       	ldi	r24, 0x94	; 148
    2014:	86 bf       	out	0x36, r24	; 54
    2016:	08 95       	ret

00002018 <clear>:
uint16 freshTimeCount = 0;

//清除指定区域指定长度的数据
void clear(unsigned char *p,unsigned char num)
{
    2018:	fc 01       	movw	r30, r24
 for(;num>0;num--)
    201a:	66 23       	and	r22, r22
    201c:	19 f0       	breq	.+6      	; 0x2024 <clear+0xc>
 	{
	 *p=0;
    201e:	11 92       	st	Z+, r1
    2020:	61 50       	subi	r22, 0x01	; 1
    2022:	fb cf       	rjmp	.-10     	; 0x201a <clear+0x2>
    2024:	08 95       	ret

00002026 <PCF8536_wt>:
	 p++;
	}
}

//功能描述: 向PCF8563指定地址写入一条数据
void PCF8536_wt(unsigned int add,unsigned char data)
{
    2026:	0f 93       	push	r16
    2028:	1f 93       	push	r17
    202a:	cf 93       	push	r28
    202c:	df 93       	push	r29
    202e:	ec 01       	movw	r28, r24
    2030:	06 2f       	mov	r16, r22
 unsigned char t;
 t=add>>8;
    2032:	89 2f       	mov	r24, r25
    2034:	99 27       	eor	r25, r25
    2036:	18 2f       	mov	r17, r24
 t<<=1;
    2038:	11 0f       	add	r17, r17
 i2cstart();
    203a:	0e 94 ef 0f 	call	0x1fde <i2cstart>
 if(i2cwt(W_ADD_COM+t)==SLAW)
    203e:	81 2f       	mov	r24, r17
    2040:	8e 55       	subi	r24, 0x5E	; 94
    2042:	0e 94 f5 0f 	call	0x1fea <i2cwt>
    2046:	88 31       	cpi	r24, 0x18	; 24
    2048:	39 f4       	brne	.+14     	; 0x2058 <PCF8536_wt+0x32>
 	{
	 i2cwt(add);
    204a:	8c 2f       	mov	r24, r28
    204c:	0e 94 f5 0f 	call	0x1fea <i2cwt>
	 i2cwt(data);
    2050:	80 2f       	mov	r24, r16
    2052:	0e 94 f5 0f 	call	0x1fea <i2cwt>
    2056:	03 c0       	rjmp	.+6      	; 0x205e <PCF8536_wt+0x38>
	}
 else syserr=ERR_SLAW;
    2058:	81 e0       	ldi	r24, 0x01	; 1
    205a:	80 93 94 02 	sts	0x0294, r24
 i2cstop();
    205e:	0e 94 09 10 	call	0x2012 <i2cstop>
    2062:	df 91       	pop	r29
    2064:	cf 91       	pop	r28
    2066:	1f 91       	pop	r17
    2068:	0f 91       	pop	r16
    206a:	08 95       	ret

0000206c <PCF8536_wt_p>:
}

//功能描述: 向PCF8563地址连续的寄存器写入系列数据
void PCF8536_wt_p(unsigned int add,unsigned char *p,unsigned char num)
{
    206c:	ef 92       	push	r14
    206e:	ff 92       	push	r15
    2070:	0f 93       	push	r16
    2072:	1f 93       	push	r17
    2074:	cf 93       	push	r28
    2076:	df 93       	push	r29
    2078:	ec 01       	movw	r28, r24
    207a:	7b 01       	movw	r14, r22
    207c:	04 2f       	mov	r16, r20
 unsigned char t;
 t=add>>8;
    207e:	89 2f       	mov	r24, r25
    2080:	99 27       	eor	r25, r25
    2082:	18 2f       	mov	r17, r24
 t<<=1;
    2084:	11 0f       	add	r17, r17
 i2cstart();
    2086:	0e 94 ef 0f 	call	0x1fde <i2cstart>
 if(i2cwt(W_ADD_COM+t)==SLAW)
    208a:	81 2f       	mov	r24, r17
    208c:	8e 55       	subi	r24, 0x5E	; 94
    208e:	0e 94 f5 0f 	call	0x1fea <i2cwt>
    2092:	88 31       	cpi	r24, 0x18	; 24
    2094:	69 f4       	brne	.+26     	; 0x20b0 <PCF8536_wt_p+0x44>
 	{
	 i2cwt(add);
    2096:	8c 2f       	mov	r24, r28
    2098:	0e 94 f5 0f 	call	0x1fea <i2cwt>
	 for(;num>0;num--)
    209c:	00 23       	and	r16, r16
    209e:	59 f0       	breq	.+22     	; 0x20b6 <PCF8536_wt_p+0x4a>
	 	{
		 i2cwt(*p);
    20a0:	f7 01       	movw	r30, r14
    20a2:	81 91       	ld	r24, Z+
    20a4:	7f 01       	movw	r14, r30
    20a6:	0e 94 f5 0f 	call	0x1fea <i2cwt>
		 p++;
		 asm("nop");
    20aa:	00 00       	nop
    20ac:	01 50       	subi	r16, 0x01	; 1
    20ae:	f6 cf       	rjmp	.-20     	; 0x209c <PCF8536_wt_p+0x30>
		}
	}
 else syserr=ERR_SLAW;
    20b0:	81 e0       	ldi	r24, 0x01	; 1
    20b2:	80 93 94 02 	sts	0x0294, r24
 i2cstop();
    20b6:	0e 94 09 10 	call	0x2012 <i2cstop>
    20ba:	df 91       	pop	r29
    20bc:	cf 91       	pop	r28
    20be:	1f 91       	pop	r17
    20c0:	0f 91       	pop	r16
    20c2:	ff 90       	pop	r15
    20c4:	ef 90       	pop	r14
    20c6:	08 95       	ret

000020c8 <PCF8536_rd>:
}

//读PCF8563
void PCF8536_rd(unsigned int add,unsigned char *p,unsigned char num)
{
    20c8:	ef 92       	push	r14
    20ca:	ff 92       	push	r15
    20cc:	0f 93       	push	r16
    20ce:	1f 93       	push	r17
    20d0:	cf 93       	push	r28
    20d2:	df 93       	push	r29
    20d4:	ec 01       	movw	r28, r24
    20d6:	7b 01       	movw	r14, r22
    20d8:	04 2f       	mov	r16, r20
 unsigned char t;
 t=add>>8;
    20da:	89 2f       	mov	r24, r25
    20dc:	99 27       	eor	r25, r25
    20de:	18 2f       	mov	r17, r24
 t<<=1;
    20e0:	11 0f       	add	r17, r17
 i2cstart();
    20e2:	0e 94 ef 0f 	call	0x1fde <i2cstart>
 if(i2cwt(W_ADD_COM+t)==SLAW)
    20e6:	81 2f       	mov	r24, r17
    20e8:	8e 55       	subi	r24, 0x5E	; 94
    20ea:	0e 94 f5 0f 	call	0x1fea <i2cwt>
    20ee:	88 31       	cpi	r24, 0x18	; 24
    20f0:	21 f4       	brne	.+8      	; 0x20fa <PCF8536_rd+0x32>
 	{
	 i2cwt(add);
    20f2:	8c 2f       	mov	r24, r28
    20f4:	0e 94 f5 0f 	call	0x1fea <i2cwt>
    20f8:	03 c0       	rjmp	.+6      	; 0x2100 <PCF8536_rd+0x38>
	}
 else syserr=ERR_SLAW;
    20fa:	81 e0       	ldi	r24, 0x01	; 1
    20fc:	80 93 94 02 	sts	0x0294, r24
 
 i2cstart();
    2100:	0e 94 ef 0f 	call	0x1fde <i2cstart>
 if(i2cwt(R_ADD_COM+t)==SLAW)
    2104:	81 2f       	mov	r24, r17
    2106:	8d 55       	subi	r24, 0x5D	; 93
    2108:	0e 94 f5 0f 	call	0x1fea <i2cwt>
    210c:	88 31       	cpi	r24, 0x18	; 24
    210e:	21 f4       	brne	.+8      	; 0x2118 <PCF8536_rd+0x50>
 	{
	 i2cwt(add);
    2110:	8c 2f       	mov	r24, r28
    2112:	0e 94 f5 0f 	call	0x1fea <i2cwt>
    2116:	03 c0       	rjmp	.+6      	; 0x211e <PCF8536_rd+0x56>
	}
 else syserr=ERR_SLAW;
    2118:	81 e0       	ldi	r24, 0x01	; 1
    211a:	80 93 94 02 	sts	0x0294, r24
 
 for(;num>0;num--)
    211e:	00 23       	and	r16, r16
    2120:	39 f0       	breq	.+14     	; 0x2130 <PCF8536_rd+0x68>
 	{
	 *p=i2crd();
    2122:	0e 94 01 10 	call	0x2002 <i2crd>
    2126:	f7 01       	movw	r30, r14
    2128:	81 93       	st	Z+, r24
    212a:	7f 01       	movw	r14, r30
    212c:	01 50       	subi	r16, 0x01	; 1
    212e:	c9 f7       	brne	.-14     	; 0x2122 <PCF8536_rd+0x5a>
    2130:	df 91       	pop	r29
    2132:	cf 91       	pop	r28
    2134:	1f 91       	pop	r17
    2136:	0f 91       	pop	r16
    2138:	ff 90       	pop	r15
    213a:	ef 90       	pop	r14
    213c:	08 95       	ret

0000213e <PCF8563_init>:
	 p++;
	} 
}

//功能描述: PCF8563初始化
void PCF8563_init(void)
{
 clear(write_buff,8);
    213e:	68 e0       	ldi	r22, 0x08	; 8
    2140:	89 e9       	ldi	r24, 0x99	; 153
    2142:	92 e0       	ldi	r25, 0x02	; 2
    2144:	0e 94 0c 10 	call	0x2018 <clear>
 clear(read_buff,8);
    2148:	68 e0       	ldi	r22, 0x08	; 8
    214a:	8c e8       	ldi	r24, 0x8C	; 140
    214c:	92 e0       	ldi	r25, 0x02	; 2
    214e:	0e 94 0c 10 	call	0x2018 <clear>
 
 PCF8536_wt(0x00,0x20);//写寄存器1，停止计时
    2152:	60 e2       	ldi	r22, 0x20	; 32
    2154:	80 e0       	ldi	r24, 0x00	; 0
    2156:	90 e0       	ldi	r25, 0x00	; 0
    2158:	0e 94 13 10 	call	0x2026 <PCF8536_wt>
 //PCF8536_wt_p(0x02,time,7);//设定时间
 PCF8536_wt(0x00,0x00);//写寄存器1，开始计时
    215c:	60 e0       	ldi	r22, 0x00	; 0
    215e:	80 e0       	ldi	r24, 0x00	; 0
    2160:	90 e0       	ldi	r25, 0x00	; 0
    2162:	0e 94 13 10 	call	0x2026 <PCF8536_wt>
    2166:	08 95       	ret

00002168 <Updata_time>:
}

//刷新时间寄存器及相关数组内容
void Updata_time(void)
{
	PCF8536_rd(0x02,time,7);//读取时间
    2168:	47 e0       	ldi	r20, 0x07	; 7
    216a:	60 e6       	ldi	r22, 0x60	; 96
    216c:	70 e0       	ldi	r23, 0x00	; 0
    216e:	82 e0       	ldi	r24, 0x02	; 2
    2170:	90 e0       	ldi	r25, 0x00	; 0
    2172:	0e 94 64 10 	call	0x20c8 <PCF8536_rd>

	time[0]=time[0]&0x7F;
    2176:	80 91 60 00 	lds	r24, 0x0060
    217a:	98 2f       	mov	r25, r24
    217c:	9f 77       	andi	r25, 0x7F	; 127
    217e:	90 93 60 00 	sts	0x0060, r25
	time[1]=time[1]&0x7F;
    2182:	20 91 61 00 	lds	r18, 0x0061
    2186:	42 2f       	mov	r20, r18
    2188:	4f 77       	andi	r20, 0x7F	; 127
    218a:	40 93 61 00 	sts	0x0061, r20
	time[2]=time[2]&0x3F;
    218e:	50 91 62 00 	lds	r21, 0x0062
    2192:	75 2f       	mov	r23, r21
    2194:	7f 73       	andi	r23, 0x3F	; 63
    2196:	70 93 62 00 	sts	0x0062, r23
	time[3]=time[3]&0x3F;
    219a:	e0 91 63 00 	lds	r30, 0x0063
    219e:	ae 2f       	mov	r26, r30
    21a0:	af 73       	andi	r26, 0x3F	; 63
    21a2:	a0 93 63 00 	sts	0x0063, r26
	time[4]=time[4]&0x07;
    21a6:	f0 91 64 00 	lds	r31, 0x0064
    21aa:	f7 70       	andi	r31, 0x07	; 7
    21ac:	f0 93 64 00 	sts	0x0064, r31
	time[5]=time[5]&0x1F;
    21b0:	30 91 65 00 	lds	r19, 0x0065
    21b4:	63 2f       	mov	r22, r19
    21b6:	6f 71       	andi	r22, 0x1F	; 31
    21b8:	60 93 65 00 	sts	0x0065, r22
	//time_tmp[]="00:00:00",data_tmp[]="2008.01.01",*week_tmp;
	//处理时间
	SecondOne = time[0]&0x0F;
    21bc:	8f 70       	andi	r24, 0x0F	; 15
    21be:	80 93 74 00 	sts	0x0074, r24
	SecondTen = time[0]>>4;
    21c2:	92 95       	swap	r25
    21c4:	9f 70       	andi	r25, 0x0F	; 15
    21c6:	90 93 73 00 	sts	0x0073, r25
	MinuteOne = time[1]&0x0F;
    21ca:	2f 70       	andi	r18, 0x0F	; 15
    21cc:	20 93 72 00 	sts	0x0072, r18
	MinuteTen = time[1]>>4;
    21d0:	42 95       	swap	r20
    21d2:	4f 70       	andi	r20, 0x0F	; 15
    21d4:	40 93 71 00 	sts	0x0071, r20
	HourOne	= time[2]&0x0F;
    21d8:	5f 70       	andi	r21, 0x0F	; 15
    21da:	50 93 70 00 	sts	0x0070, r21
	HourTen	= time[2]>>4;
    21de:	72 95       	swap	r23
    21e0:	7f 70       	andi	r23, 0x0F	; 15
    21e2:	70 93 6f 00 	sts	0x006F, r23
	//处理日期
	DayOne = time[3]&0x0F;
    21e6:	ef 70       	andi	r30, 0x0F	; 15
    21e8:	e0 93 6e 00 	sts	0x006E, r30
	DayTen = time[3]>>4;
    21ec:	a2 95       	swap	r26
    21ee:	af 70       	andi	r26, 0x0F	; 15
    21f0:	a0 93 6d 00 	sts	0x006D, r26
	MonthOne = time[5]&0x0F;
    21f4:	3f 70       	andi	r19, 0x0F	; 15
    21f6:	30 93 6c 00 	sts	0x006C, r19
	MonthTen = time[5]>>4;
    21fa:	62 95       	swap	r22
    21fc:	6f 70       	andi	r22, 0x0F	; 15
    21fe:	60 93 6b 00 	sts	0x006B, r22
	YearOne = time[6]&0x0F;
    2202:	80 91 66 00 	lds	r24, 0x0066
    2206:	98 2f       	mov	r25, r24
    2208:	9f 70       	andi	r25, 0x0F	; 15
    220a:	90 93 6a 00 	sts	0x006A, r25
	YearTen = time[6]>>4;
    220e:	82 95       	swap	r24
    2210:	8f 70       	andi	r24, 0x0F	; 15
    2212:	80 93 69 00 	sts	0x0069, r24
	//处理星期
	Week = (time[4]&0x0F)+1;
    2216:	ff 5f       	subi	r31, 0xFF	; 255
    2218:	f0 93 75 00 	sts	0x0075, r31
    221c:	08 95       	ret

0000221e <Write_time>:
}

void Write_time(void)
{
    221e:	cf 93       	push	r28
    2220:	df 93       	push	r29
    2222:	cd b7       	in	r28, 0x3d	; 61
    2224:	de b7       	in	r29, 0x3e	; 62
    2226:	27 97       	sbiw	r28, 0x07	; 7
    2228:	0f b6       	in	r0, 0x3f	; 63
    222a:	f8 94       	cli
    222c:	de bf       	out	0x3e, r29	; 62
    222e:	0f be       	out	0x3f, r0	; 63
    2230:	cd bf       	out	0x3d, r28	; 61
	uint8 timeWriteBuffer[7] = {(SecondTen<<4)| SecondOne, 
    2232:	80 91 73 00 	lds	r24, 0x0073
    2236:	99 27       	eor	r25, r25
    2238:	54 e0       	ldi	r21, 0x04	; 4
    223a:	88 0f       	add	r24, r24
    223c:	99 1f       	adc	r25, r25
    223e:	5a 95       	dec	r21
    2240:	e1 f7       	brne	.-8      	; 0x223a <Write_time+0x1c>
    2242:	20 91 74 00 	lds	r18, 0x0074
    2246:	28 2b       	or	r18, r24
    2248:	29 83       	std	Y+1, r18	; 0x01
    224a:	80 91 71 00 	lds	r24, 0x0071
    224e:	99 27       	eor	r25, r25
    2250:	44 e0       	ldi	r20, 0x04	; 4
    2252:	88 0f       	add	r24, r24
    2254:	99 1f       	adc	r25, r25
    2256:	4a 95       	dec	r20
    2258:	e1 f7       	brne	.-8      	; 0x2252 <Write_time+0x34>
    225a:	20 91 72 00 	lds	r18, 0x0072
    225e:	28 2b       	or	r18, r24
    2260:	2a 83       	std	Y+2, r18	; 0x02
    2262:	80 91 6f 00 	lds	r24, 0x006F
    2266:	99 27       	eor	r25, r25
    2268:	34 e0       	ldi	r19, 0x04	; 4
    226a:	88 0f       	add	r24, r24
    226c:	99 1f       	adc	r25, r25
    226e:	3a 95       	dec	r19
    2270:	e1 f7       	brne	.-8      	; 0x226a <Write_time+0x4c>
    2272:	20 91 70 00 	lds	r18, 0x0070
    2276:	28 2b       	or	r18, r24
    2278:	2b 83       	std	Y+3, r18	; 0x03
    227a:	80 91 6d 00 	lds	r24, 0x006D
    227e:	99 27       	eor	r25, r25
    2280:	24 e0       	ldi	r18, 0x04	; 4
    2282:	88 0f       	add	r24, r24
    2284:	99 1f       	adc	r25, r25
    2286:	2a 95       	dec	r18
    2288:	e1 f7       	brne	.-8      	; 0x2282 <Write_time+0x64>
    228a:	20 91 6e 00 	lds	r18, 0x006E
    228e:	28 2b       	or	r18, r24
    2290:	2c 83       	std	Y+4, r18	; 0x04
    2292:	80 91 75 00 	lds	r24, 0x0075
    2296:	81 50       	subi	r24, 0x01	; 1
    2298:	8d 83       	std	Y+5, r24	; 0x05
    229a:	80 91 6b 00 	lds	r24, 0x006B
    229e:	99 27       	eor	r25, r25
    22a0:	b4 e0       	ldi	r27, 0x04	; 4
    22a2:	88 0f       	add	r24, r24
    22a4:	99 1f       	adc	r25, r25
    22a6:	ba 95       	dec	r27
    22a8:	e1 f7       	brne	.-8      	; 0x22a2 <Write_time+0x84>
    22aa:	20 91 6c 00 	lds	r18, 0x006C
    22ae:	28 2b       	or	r18, r24
    22b0:	2e 83       	std	Y+6, r18	; 0x06
    22b2:	80 91 69 00 	lds	r24, 0x0069
    22b6:	99 27       	eor	r25, r25
    22b8:	a4 e0       	ldi	r26, 0x04	; 4
    22ba:	88 0f       	add	r24, r24
    22bc:	99 1f       	adc	r25, r25
    22be:	aa 95       	dec	r26
    22c0:	e1 f7       	brne	.-8      	; 0x22ba <Write_time+0x9c>
    22c2:	20 91 6a 00 	lds	r18, 0x006A
    22c6:	28 2b       	or	r18, r24
    22c8:	2f 83       	std	Y+7, r18	; 0x07
								(MinuteTen<<4)| MinuteOne, 
								(HourTen<<4)| HourOne,
								(DayTen<<4)| DayOne,
								Week-1,
								(MonthTen <<4)| MonthOne,	
								(YearTen <<4)| YearOne,
	};
	PCF8536_wt_p(0x02, timeWriteBuffer, 7);
    22ca:	47 e0       	ldi	r20, 0x07	; 7
    22cc:	be 01       	movw	r22, r28
    22ce:	6f 5f       	subi	r22, 0xFF	; 255
    22d0:	7f 4f       	sbci	r23, 0xFF	; 255
    22d2:	82 e0       	ldi	r24, 0x02	; 2
    22d4:	90 e0       	ldi	r25, 0x00	; 0
    22d6:	0e 94 36 10 	call	0x206c <PCF8536_wt_p>
    22da:	27 96       	adiw	r28, 0x07	; 7
    22dc:	0f b6       	in	r0, 0x3f	; 63
    22de:	f8 94       	cli
    22e0:	de bf       	out	0x3e, r29	; 62
    22e2:	0f be       	out	0x3f, r0	; 63
    22e4:	cd bf       	out	0x3d, r28	; 61
    22e6:	df 91       	pop	r29
    22e8:	cf 91       	pop	r28
    22ea:	08 95       	ret

000022ec <AjustTimerMonthly>:
}

void AjustTimerMonthly()
{
    22ec:	cf 93       	push	r28
	if(DayTen == 0 && DayOne == 1) // 每个月的一号 
    22ee:	80 91 6d 00 	lds	r24, 0x006D
    22f2:	88 23       	and	r24, r24
    22f4:	09 f0       	breq	.+2      	; 0x22f8 <AjustTimerMonthly+0xc>
    22f6:	62 c0       	rjmp	.+196    	; 0x23bc <AjustTimerMonthly+0xd0>
    22f8:	c0 91 6e 00 	lds	r28, 0x006E
    22fc:	c1 30       	cpi	r28, 0x01	; 1
    22fe:	09 f0       	breq	.+2      	; 0x2302 <AjustTimerMonthly+0x16>
    2300:	5d c0       	rjmp	.+186    	; 0x23bc <AjustTimerMonthly+0xd0>
	{
		if(HourTen == 0 && HourOne == 3) //三点
    2302:	90 91 6f 00 	lds	r25, 0x006F
    2306:	99 23       	and	r25, r25
    2308:	09 f0       	breq	.+2      	; 0x230c <AjustTimerMonthly+0x20>
    230a:	58 c0       	rjmp	.+176    	; 0x23bc <AjustTimerMonthly+0xd0>
    230c:	80 91 70 00 	lds	r24, 0x0070
    2310:	83 30       	cpi	r24, 0x03	; 3
    2312:	09 f0       	breq	.+2      	; 0x2316 <AjustTimerMonthly+0x2a>
    2314:	53 c0       	rjmp	.+166    	; 0x23bc <AjustTimerMonthly+0xd0>
		{
			if(MinuteTen  == 3 && MinuteOne  == 0) //30分
    2316:	80 91 71 00 	lds	r24, 0x0071
    231a:	83 30       	cpi	r24, 0x03	; 3
    231c:	09 f0       	breq	.+2      	; 0x2320 <AjustTimerMonthly+0x34>
    231e:	4a c0       	rjmp	.+148    	; 0x23b4 <AjustTimerMonthly+0xc8>
    2320:	80 91 72 00 	lds	r24, 0x0072
    2324:	88 23       	and	r24, r24
    2326:	09 f0       	breq	.+2      	; 0x232a <AjustTimerMonthly+0x3e>
    2328:	49 c0       	rjmp	.+146    	; 0x23bc <AjustTimerMonthly+0xd0>
			{
				if(AjustTimeMode && !AjustTimeIsAjusted) //加时间
    232a:	80 91 7d 00 	lds	r24, 0x007D
    232e:	88 23       	and	r24, r24
    2330:	f9 f0       	breq	.+62     	; 0x2370 <AjustTimerMonthly+0x84>
    2332:	20 91 80 00 	lds	r18, 0x0080
    2336:	22 23       	and	r18, r18
    2338:	d9 f4       	brne	.+54     	; 0x2370 <AjustTimerMonthly+0x84>
				{
					uint8 temp = MinuteTen*10 + MinuteOne;
    233a:	3a e0       	ldi	r19, 0x0A	; 10
    233c:	22 5e       	subi	r18, 0xE2	; 226
					temp = temp + AjustTimeTen*10 + AjustTimeOne;
    233e:	80 91 7e 00 	lds	r24, 0x007E
    2342:	83 9f       	mul	r24, r19
    2344:	c0 01       	movw	r24, r0
    2346:	11 24       	eor	r1, r1
    2348:	28 0f       	add	r18, r24
    234a:	80 91 7f 00 	lds	r24, 0x007F
    234e:	28 0f       	add	r18, r24
					MinuteTen = temp/10;
    2350:	82 2f       	mov	r24, r18
    2352:	63 2f       	mov	r22, r19
    2354:	0e 94 33 15 	call	0x2a66 <__udivmodqi4>
    2358:	80 93 71 00 	sts	0x0071, r24
					MinuteOne = temp%10;
    235c:	82 2f       	mov	r24, r18
    235e:	0e 94 33 15 	call	0x2a66 <__udivmodqi4>
    2362:	90 93 72 00 	sts	0x0072, r25
					Write_time();
    2366:	0e 94 0f 11 	call	0x221e <Write_time>
					AjustTimeIsAjusted = 1;
    236a:	c0 93 80 00 	sts	0x0080, r28
    236e:	26 c0       	rjmp	.+76     	; 0x23bc <AjustTimerMonthly+0xd0>
				}
				else if(!AjustTimeMode && !AjustTimeIsAjusted) //减时间
    2370:	88 23       	and	r24, r24
    2372:	21 f5       	brne	.+72     	; 0x23bc <AjustTimerMonthly+0xd0>
    2374:	80 91 80 00 	lds	r24, 0x0080
    2378:	88 23       	and	r24, r24
    237a:	01 f5       	brne	.+64     	; 0x23bc <AjustTimerMonthly+0xd0>
				{
					uint8 temp = MinuteTen*10 + MinuteOne;
    237c:	3a e0       	ldi	r19, 0x0A	; 10
    237e:	2e e1       	ldi	r18, 0x1E	; 30
					temp = temp - AjustTimeTen*10 - AjustTimeOne;
    2380:	80 91 7e 00 	lds	r24, 0x007E
    2384:	83 9f       	mul	r24, r19
    2386:	c0 01       	movw	r24, r0
    2388:	11 24       	eor	r1, r1
    238a:	28 1b       	sub	r18, r24
    238c:	80 91 7f 00 	lds	r24, 0x007F
    2390:	28 1b       	sub	r18, r24
					MinuteTen = temp/10;
    2392:	82 2f       	mov	r24, r18
    2394:	63 2f       	mov	r22, r19
    2396:	0e 94 33 15 	call	0x2a66 <__udivmodqi4>
    239a:	80 93 71 00 	sts	0x0071, r24
					MinuteOne = temp%10;
    239e:	82 2f       	mov	r24, r18
    23a0:	0e 94 33 15 	call	0x2a66 <__udivmodqi4>
    23a4:	90 93 72 00 	sts	0x0072, r25
					Write_time();
    23a8:	0e 94 0f 11 	call	0x221e <Write_time>
					AjustTimeIsAjusted = 1;
    23ac:	81 e0       	ldi	r24, 0x01	; 1
    23ae:	80 93 80 00 	sts	0x0080, r24
    23b2:	04 c0       	rjmp	.+8      	; 0x23bc <AjustTimerMonthly+0xd0>
				}
			}
			else if(MinuteTen  == 5)
    23b4:	85 30       	cpi	r24, 0x05	; 5
    23b6:	11 f4       	brne	.+4      	; 0x23bc <AjustTimerMonthly+0xd0>
			{
				AjustTimeIsAjusted = 0;
    23b8:	90 93 80 00 	sts	0x0080, r25
    23bc:	cf 91       	pop	r28
    23be:	08 95       	ret

000023c0 <Key_Init>:
uint16 KEY_Time_count_speed_color;

void Key_Init()
{
	KEY_UP_PORT |= 1<<KEY_UP_BIT;
    23c0:	ae 9a       	sbi	0x15, 6	; 21
	KEY_UP_DDR  &= ~(1<<KEY_UP_BIT);
    23c2:	a6 98       	cbi	0x14, 6	; 20
	KEY_DOWN_PORT |= 1<<KEY_DOWN_BIT;
    23c4:	af 9a       	sbi	0x15, 7	; 21
	KEY_DOWN_DDR  &= ~(1<<KEY_DOWN_BIT);
    23c6:	a7 98       	cbi	0x14, 7	; 20
	KEY_MODE_PORT |= 1<<KEY_MODE_BIT;
    23c8:	90 9a       	sbi	0x12, 0	; 18
	KEY_MODE_DDR  &= ~(1<<KEY_MODE_BIT);
    23ca:	88 98       	cbi	0x11, 0	; 17
	KEY_DISPLAY_COLOR_PORT |= 1<<KEY_DISPLAY_COLOR_BIT;
    23cc:	91 9a       	sbi	0x12, 1	; 18
	KEY_DISPLAY_COLOR_DDR  &= ~(1<<KEY_DISPLAY_COLOR_BIT);
    23ce:	89 98       	cbi	0x11, 1	; 17
    23d0:	08 95       	ret

000023d2 <Key_Operation>:
}

void Key_Operation(uint8 maxNum, uint8 minNum, uint8 *tenValue, uint8 *oneValue, void (*FunP)())
{
    23d2:	cf 92       	push	r12
    23d4:	df 92       	push	r13
    23d6:	ef 92       	push	r14
    23d8:	ff 92       	push	r15
    23da:	0f 93       	push	r16
    23dc:	1f 93       	push	r17
    23de:	cf 93       	push	r28
    23e0:	df 93       	push	r29
    23e2:	d8 2e       	mov	r13, r24
    23e4:	c6 2e       	mov	r12, r22
    23e6:	ea 01       	movw	r28, r20
    23e8:	79 01       	movw	r14, r18
	if(KEY_UP_L) 
    23ea:	9e 99       	sbic	0x13, 6	; 19
    23ec:	20 c0       	rjmp	.+64     	; 0x242e <Key_Operation+0x5c>
		__ticks = 1;
	else if (__tmp > 65535)
		__ticks = 0;	/* i.e. 65536 */
	else
		__ticks = (uint16_t)__tmp;
    23ee:	80 e2       	ldi	r24, 0x20	; 32
    23f0:	9e e4       	ldi	r25, 0x4E	; 78
    23f2:	01 97       	sbiw	r24, 0x01	; 1
    23f4:	f1 f7       	brne	.-4      	; 0x23f2 <Key_Operation+0x20>
{
	if(KEY_UP_L) 
	{
		_delay_ms(10);
		if(KEY_UP_L)
    23f6:	9e 99       	sbic	0x13, 6	; 19
    23f8:	18 c0       	rjmp	.+48     	; 0x242a <Key_Operation+0x58>
		{
			uint8 value = *tenValue*10 + *oneValue;
    23fa:	88 81       	ld	r24, Y
    23fc:	3a e0       	ldi	r19, 0x0A	; 10
    23fe:	83 9f       	mul	r24, r19
    2400:	c0 01       	movw	r24, r0
    2402:	11 24       	eor	r1, r1
    2404:	f7 01       	movw	r30, r14
    2406:	20 81       	ld	r18, Z
    2408:	28 0f       	add	r18, r24
			value ++;
    240a:	2f 5f       	subi	r18, 0xFF	; 255
			if(value > maxNum)
    240c:	d2 16       	cp	r13, r18
    240e:	08 f4       	brcc	.+2      	; 0x2412 <Key_Operation+0x40>
			{
				value = minNum;
    2410:	26 2f       	mov	r18, r22
			}
			*tenValue = value/10;
    2412:	82 2f       	mov	r24, r18
    2414:	63 2f       	mov	r22, r19
    2416:	0e 94 33 15 	call	0x2a66 <__udivmodqi4>
    241a:	88 83       	st	Y, r24
			*oneValue = value%10;
    241c:	82 2f       	mov	r24, r18
    241e:	0e 94 33 15 	call	0x2a66 <__udivmodqi4>
    2422:	f7 01       	movw	r30, r14
    2424:	90 83       	st	Z, r25
			(*FunP)();
    2426:	f8 01       	movw	r30, r16
    2428:	09 95       	icall
		}
		while(KEY_UP_L);	
    242a:	9e 9b       	sbis	0x13, 6	; 19
    242c:	fe cf       	rjmp	.-4      	; 0x242a <Key_Operation+0x58>
	}
	if(KEY_DOWN_L) 
    242e:	9f 99       	sbic	0x13, 7	; 19
    2430:	2e c0       	rjmp	.+92     	; 0x248e <Key_Operation+0xbc>
		__ticks = 1;
	else if (__tmp > 65535)
		__ticks = 0;	/* i.e. 65536 */
	else
		__ticks = (uint16_t)__tmp;
    2432:	80 e2       	ldi	r24, 0x20	; 32
    2434:	9e e4       	ldi	r25, 0x4E	; 78
    2436:	01 97       	sbiw	r24, 0x01	; 1
    2438:	f1 f7       	brne	.-4      	; 0x2436 <Key_Operation+0x64>
	}
	if(KEY_DOWN_L) 
	{
		_delay_ms(10);
		if(KEY_DOWN_L)
    243a:	9f 99       	sbic	0x13, 7	; 19
    243c:	26 c0       	rjmp	.+76     	; 0x248a <Key_Operation+0xb8>
		{
			uint8 value = *tenValue*10 + *oneValue;
    243e:	88 81       	ld	r24, Y
    2440:	3a e0       	ldi	r19, 0x0A	; 10
    2442:	83 9f       	mul	r24, r19
    2444:	c0 01       	movw	r24, r0
    2446:	11 24       	eor	r1, r1
    2448:	f7 01       	movw	r30, r14
    244a:	20 81       	ld	r18, Z
    244c:	28 0f       	add	r18, r24
			value --;
    244e:	21 50       	subi	r18, 0x01	; 1
			if((value > maxNum) | (value < minNum))
    2450:	80 e0       	ldi	r24, 0x00	; 0
    2452:	90 e0       	ldi	r25, 0x00	; 0
    2454:	d2 16       	cp	r13, r18
    2456:	10 f4       	brcc	.+4      	; 0x245c <Key_Operation+0x8a>
    2458:	81 e0       	ldi	r24, 0x01	; 1
    245a:	90 e0       	ldi	r25, 0x00	; 0
    245c:	40 e0       	ldi	r20, 0x00	; 0
    245e:	50 e0       	ldi	r21, 0x00	; 0
    2460:	2c 15       	cp	r18, r12
    2462:	10 f4       	brcc	.+4      	; 0x2468 <Key_Operation+0x96>
    2464:	41 e0       	ldi	r20, 0x01	; 1
    2466:	50 e0       	ldi	r21, 0x00	; 0
    2468:	84 2b       	or	r24, r20
    246a:	95 2b       	or	r25, r21
    246c:	89 2b       	or	r24, r25
    246e:	09 f0       	breq	.+2      	; 0x2472 <Key_Operation+0xa0>
			{
				value = maxNum;
    2470:	2d 2d       	mov	r18, r13
			}
			*tenValue = value/10;
    2472:	82 2f       	mov	r24, r18
    2474:	63 2f       	mov	r22, r19
    2476:	0e 94 33 15 	call	0x2a66 <__udivmodqi4>
    247a:	88 83       	st	Y, r24
			*oneValue = value%10;
    247c:	82 2f       	mov	r24, r18
    247e:	0e 94 33 15 	call	0x2a66 <__udivmodqi4>
    2482:	f7 01       	movw	r30, r14
    2484:	90 83       	st	Z, r25
			(*FunP)();			
    2486:	f8 01       	movw	r30, r16
    2488:	09 95       	icall
		}
		while(KEY_DOWN_L);	
    248a:	9f 9b       	sbis	0x13, 7	; 19
    248c:	fe cf       	rjmp	.-4      	; 0x248a <Key_Operation+0xb8>
    248e:	df 91       	pop	r29
    2490:	cf 91       	pop	r28
    2492:	1f 91       	pop	r17
    2494:	0f 91       	pop	r16
    2496:	ff 90       	pop	r15
    2498:	ef 90       	pop	r14
    249a:	df 90       	pop	r13
    249c:	cf 90       	pop	r12
    249e:	08 95       	ret

000024a0 <Scan_Key>:
	}
}

void Scan_Key()
{
    24a0:	0f 93       	push	r16
    24a2:	1f 93       	push	r17
    24a4:	cf 93       	push	r28
    24a6:	df 93       	push	r29
    24a8:	cd b7       	in	r28, 0x3d	; 61
    24aa:	de b7       	in	r29, 0x3e	; 62
    24ac:	23 97       	sbiw	r28, 0x03	; 3
    24ae:	0f b6       	in	r0, 0x3f	; 63
    24b0:	f8 94       	cli
    24b2:	de bf       	out	0x3e, r29	; 62
    24b4:	0f be       	out	0x3f, r0	; 63
    24b6:	cd bf       	out	0x3d, r28	; 61
	if(Mode != 0 && Mode != 27 && Mode != 26 && KEY_Time_count > 21000)
    24b8:	80 91 7c 00 	lds	r24, 0x007C
    24bc:	88 23       	and	r24, r24
    24be:	a9 f0       	breq	.+42     	; 0x24ea <Scan_Key+0x4a>
    24c0:	8b 31       	cpi	r24, 0x1B	; 27
    24c2:	99 f0       	breq	.+38     	; 0x24ea <Scan_Key+0x4a>
    24c4:	8a 31       	cpi	r24, 0x1A	; 26
    24c6:	89 f0       	breq	.+34     	; 0x24ea <Scan_Key+0x4a>
    24c8:	80 91 89 02 	lds	r24, 0x0289
    24cc:	90 91 8a 02 	lds	r25, 0x028A
    24d0:	89 50       	subi	r24, 0x09	; 9
    24d2:	92 45       	sbci	r25, 0x52	; 82
    24d4:	50 f0       	brcs	.+20     	; 0x24ea <Scan_Key+0x4a>
	{
		Mode = 0;
    24d6:	10 92 7c 00 	sts	0x007C, r1
		//保存时间到时钟芯片
		Write_time();
    24da:	0e 94 0f 11 	call	0x221e <Write_time>
		//保存运行参数到eepROM
		SaveRunParameter();
    24de:	0e 94 21 09 	call	0x1242 <SaveRunParameter>
		clearScreen(); //清屏
    24e2:	0e 94 dc 09 	call	0x13b8 <clearScreen>
		FreshDisplayBufferNormal(); //加载正常走时模式
    24e6:	0e 94 1d 0d 	call	0x1a3a <FreshDisplayBufferNormal>
	}
	
	if(Mode == 27 || Mode == 26)
    24ea:	80 91 7c 00 	lds	r24, 0x007C
    24ee:	8a 51       	subi	r24, 0x1A	; 26
    24f0:	82 30       	cpi	r24, 0x02	; 2
    24f2:	68 f4       	brcc	.+26     	; 0x250e <Scan_Key+0x6e>
	{
		if(KEY_Time_count_speed_color > 500)
    24f4:	80 91 97 02 	lds	r24, 0x0297
    24f8:	90 91 98 02 	lds	r25, 0x0298
    24fc:	85 5f       	subi	r24, 0xF5	; 245
    24fe:	91 40       	sbci	r25, 0x01	; 1
    2500:	30 f0       	brcs	.+12     	; 0x250e <Scan_Key+0x6e>
		{
			Mode = 0;
    2502:	10 92 7c 00 	sts	0x007C, r1
			SaveRunParameter();
    2506:	0e 94 21 09 	call	0x1242 <SaveRunParameter>
			FreshDisplayBufferNormal(); //加载正常走时模式
    250a:	0e 94 1d 0d 	call	0x1a3a <FreshDisplayBufferNormal>
		}
	}

	if(KEY_DISPLAY_COLOR_L) //显示颜色调节
    250e:	81 99       	sbic	0x10, 1	; 16
    2510:	13 c0       	rjmp	.+38     	; 0x2538 <Scan_Key+0x98>
		__ticks = 1;
	else if (__tmp > 65535)
		__ticks = 0;	/* i.e. 65536 */
	else
		__ticks = (uint16_t)__tmp;
    2512:	80 e2       	ldi	r24, 0x20	; 32
    2514:	9e e4       	ldi	r25, 0x4E	; 78
    2516:	01 97       	sbiw	r24, 0x01	; 1
    2518:	f1 f7       	brne	.-4      	; 0x2516 <Scan_Key+0x76>

	if(KEY_DISPLAY_COLOR_L) //显示颜色调节
	{
		_delay_ms(10);
		if(KEY_DISPLAY_COLOR_L)
    251a:	81 99       	sbic	0x10, 1	; 16
    251c:	0b c0       	rjmp	.+22     	; 0x2534 <Scan_Key+0x94>
		{
			Display_color ++;
    251e:	80 91 81 00 	lds	r24, 0x0081
    2522:	8f 5f       	subi	r24, 0xFF	; 255
    2524:	80 93 81 00 	sts	0x0081, r24
			if(Display_color > 4)
    2528:	85 30       	cpi	r24, 0x05	; 5
    252a:	10 f0       	brcs	.+4      	; 0x2530 <Scan_Key+0x90>
			{
				Display_color = 0;
    252c:	10 92 81 00 	sts	0x0081, r1
			}
			SaveRunParameter();
    2530:	0e 94 21 09 	call	0x1242 <SaveRunParameter>
		}
		while(KEY_DISPLAY_COLOR_L);	
    2534:	81 9b       	sbis	0x10, 1	; 16
    2536:	fe cf       	rjmp	.-4      	; 0x2534 <Scan_Key+0x94>
	}

	if(Mode == 0 || Mode== 27 || Mode == 26) //正常运行模式 调节速度和亮度模式
    2538:	80 91 7c 00 	lds	r24, 0x007C
    253c:	88 23       	and	r24, r24
    253e:	29 f0       	breq	.+10     	; 0x254a <Scan_Key+0xaa>
    2540:	8b 31       	cpi	r24, 0x1B	; 27
    2542:	19 f0       	breq	.+6      	; 0x254a <Scan_Key+0xaa>
    2544:	8a 31       	cpi	r24, 0x1A	; 26
    2546:	09 f0       	breq	.+2      	; 0x254a <Scan_Key+0xaa>
    2548:	47 c0       	rjmp	.+142    	; 0x25d8 <Scan_Key+0x138>
	{

		if(KEY_UP_L) //亮度调节
    254a:	9e 99       	sbic	0x13, 6	; 19
    254c:	27 c0       	rjmp	.+78     	; 0x259c <Scan_Key+0xfc>
		__ticks = 1;
	else if (__tmp > 65535)
		__ticks = 0;	/* i.e. 65536 */
	else
		__ticks = (uint16_t)__tmp;
    254e:	80 e2       	ldi	r24, 0x20	; 32
    2550:	9e e4       	ldi	r25, 0x4E	; 78
    2552:	01 97       	sbiw	r24, 0x01	; 1
    2554:	f1 f7       	brne	.-4      	; 0x2552 <Scan_Key+0xb2>

		if(KEY_UP_L) //亮度调节
		{
			_delay_ms(10);
			if(KEY_UP_L)
    2556:	9e 99       	sbic	0x13, 6	; 19
    2558:	1f c0       	rjmp	.+62     	; 0x2598 <Scan_Key+0xf8>
			{
				if(display_light_Mode) //手动调节亮度模式
    255a:	80 91 79 00 	lds	r24, 0x0079
    255e:	88 23       	and	r24, r24
    2560:	91 f0       	breq	.+36     	; 0x2586 <Scan_Key+0xe6>
				{
					display_light ++;
    2562:	80 91 7a 00 	lds	r24, 0x007A
    2566:	8f 5f       	subi	r24, 0xFF	; 255
    2568:	80 93 7a 00 	sts	0x007A, r24
					if(display_light > 8)
    256c:	89 30       	cpi	r24, 0x09	; 9
    256e:	18 f0       	brcs	.+6      	; 0x2576 <Scan_Key+0xd6>
					{
						display_light = 1;
    2570:	81 e0       	ldi	r24, 0x01	; 1
    2572:	80 93 7a 00 	sts	0x007A, r24
					}
					SET_DISPLAY_LIGHT;//OCR0置初值,占空比50%，调整OCR0的值用来调整占空比
    2576:	90 91 7a 00 	lds	r25, 0x007A
    257a:	89 e1       	ldi	r24, 0x19	; 25
    257c:	98 9f       	mul	r25, r24
    257e:	c0 01       	movw	r24, r0
    2580:	11 24       	eor	r1, r1
    2582:	88 51       	subi	r24, 0x18	; 24
    2584:	8c bf       	out	0x3c, r24	; 60
				}
				else //自动调节亮度模式
				{
				
				}
				Mode = 27;
    2586:	8b e1       	ldi	r24, 0x1B	; 27
    2588:	80 93 7c 00 	sts	0x007C, r24
				KEY_Time_count_speed_color = 0;
    258c:	10 92 98 02 	sts	0x0298, r1
    2590:	10 92 97 02 	sts	0x0297, r1
				FreshDisplayBufferAjustLight();
    2594:	0e 94 a0 0c 	call	0x1940 <FreshDisplayBufferAjustLight>
			}
			while(KEY_UP_L);	
    2598:	9e 9b       	sbis	0x13, 6	; 19
    259a:	fe cf       	rjmp	.-4      	; 0x2598 <Scan_Key+0xf8>
		}
	
		if(KEY_DOWN_L) //速度调节
    259c:	9f 99       	sbic	0x13, 7	; 19
    259e:	b8 c0       	rjmp	.+368    	; 0x2710 <Scan_Key+0x270>
		__ticks = 1;
	else if (__tmp > 65535)
		__ticks = 0;	/* i.e. 65536 */
	else
		__ticks = (uint16_t)__tmp;
    25a0:	80 e2       	ldi	r24, 0x20	; 32
    25a2:	9e e4       	ldi	r25, 0x4E	; 78
    25a4:	01 97       	sbiw	r24, 0x01	; 1
    25a6:	f1 f7       	brne	.-4      	; 0x25a4 <Scan_Key+0x104>
	
		if(KEY_DOWN_L) //速度调节
		{
			_delay_ms(10);
			if(KEY_DOWN_L)
    25a8:	9f 99       	sbic	0x13, 7	; 19
    25aa:	13 c0       	rjmp	.+38     	; 0x25d2 <Scan_Key+0x132>
			{
				moveSpeed ++;
    25ac:	80 91 7b 00 	lds	r24, 0x007B
    25b0:	8f 5f       	subi	r24, 0xFF	; 255
    25b2:	80 93 7b 00 	sts	0x007B, r24
				if(moveSpeed > 8)
    25b6:	89 30       	cpi	r24, 0x09	; 9
    25b8:	18 f0       	brcs	.+6      	; 0x25c0 <Scan_Key+0x120>
				{
					moveSpeed = 1;
    25ba:	81 e0       	ldi	r24, 0x01	; 1
    25bc:	80 93 7b 00 	sts	0x007B, r24
				}
				Mode = 26;
    25c0:	8a e1       	ldi	r24, 0x1A	; 26
    25c2:	80 93 7c 00 	sts	0x007C, r24
				KEY_Time_count_speed_color = 0;
    25c6:	10 92 98 02 	sts	0x0298, r1
    25ca:	10 92 97 02 	sts	0x0297, r1
				FreshDisplayBufferAjustSpeed();
    25ce:	0e 94 52 0c 	call	0x18a4 <FreshDisplayBufferAjustSpeed>
			}
			while(KEY_DOWN_L);	
    25d2:	9f 9b       	sbis	0x13, 7	; 19
    25d4:	fe cf       	rjmp	.-4      	; 0x25d2 <Scan_Key+0x132>
    25d6:	9c c0       	rjmp	.+312    	; 0x2710 <Scan_Key+0x270>
		}
	}
	else if(Mode == 1) //调节年
    25d8:	81 30       	cpi	r24, 0x01	; 1
    25da:	49 f4       	brne	.+18     	; 0x25ee <Scan_Key+0x14e>
	{
		Key_Operation(99, 0, &YearTen, &YearOne, &FreshDisplayBufferAjustYear);
    25dc:	08 e0       	ldi	r16, 0x08	; 8
    25de:	1c e0       	ldi	r17, 0x0C	; 12
    25e0:	2a e6       	ldi	r18, 0x6A	; 106
    25e2:	30 e0       	ldi	r19, 0x00	; 0
    25e4:	49 e6       	ldi	r20, 0x69	; 105
    25e6:	50 e0       	ldi	r21, 0x00	; 0
    25e8:	60 e0       	ldi	r22, 0x00	; 0
    25ea:	83 e6       	ldi	r24, 0x63	; 99
    25ec:	52 c0       	rjmp	.+164    	; 0x2692 <Scan_Key+0x1f2>
	}
	else if(Mode == 2) //调节月
    25ee:	82 30       	cpi	r24, 0x02	; 2
    25f0:	49 f4       	brne	.+18     	; 0x2604 <Scan_Key+0x164>
	{
		Key_Operation(12, 1, &MonthTen, &MonthOne, &FreshDisplayBufferAjustMonth);
    25f2:	00 e1       	ldi	r16, 0x10	; 16
    25f4:	1c e0       	ldi	r17, 0x0C	; 12
    25f6:	2c e6       	ldi	r18, 0x6C	; 108
    25f8:	30 e0       	ldi	r19, 0x00	; 0
    25fa:	4b e6       	ldi	r20, 0x6B	; 107
    25fc:	50 e0       	ldi	r21, 0x00	; 0
    25fe:	61 e0       	ldi	r22, 0x01	; 1
    2600:	8c e0       	ldi	r24, 0x0C	; 12
    2602:	47 c0       	rjmp	.+142    	; 0x2692 <Scan_Key+0x1f2>
	}
	else if(Mode == 3) //调节日
    2604:	83 30       	cpi	r24, 0x03	; 3
    2606:	49 f4       	brne	.+18     	; 0x261a <Scan_Key+0x17a>
	{
		Key_Operation(31, 1, &DayTen, &DayOne, &FreshDisplayBufferAjustDay);
    2608:	08 e1       	ldi	r16, 0x18	; 24
    260a:	1c e0       	ldi	r17, 0x0C	; 12
    260c:	2e e6       	ldi	r18, 0x6E	; 110
    260e:	30 e0       	ldi	r19, 0x00	; 0
    2610:	4d e6       	ldi	r20, 0x6D	; 109
    2612:	50 e0       	ldi	r21, 0x00	; 0
    2614:	61 e0       	ldi	r22, 0x01	; 1
    2616:	8f e1       	ldi	r24, 0x1F	; 31
    2618:	3c c0       	rjmp	.+120    	; 0x2692 <Scan_Key+0x1f2>
	}
	else if(Mode == 4) //调节时
    261a:	84 30       	cpi	r24, 0x04	; 4
    261c:	49 f4       	brne	.+18     	; 0x2630 <Scan_Key+0x190>
	{
		Key_Operation(23, 0, &HourTen, &HourOne, &FreshDisplayBufferAjustHour);
    261e:	00 e2       	ldi	r16, 0x20	; 32
    2620:	1c e0       	ldi	r17, 0x0C	; 12
    2622:	20 e7       	ldi	r18, 0x70	; 112
    2624:	30 e0       	ldi	r19, 0x00	; 0
    2626:	4f e6       	ldi	r20, 0x6F	; 111
    2628:	50 e0       	ldi	r21, 0x00	; 0
    262a:	60 e0       	ldi	r22, 0x00	; 0
    262c:	87 e1       	ldi	r24, 0x17	; 23
    262e:	31 c0       	rjmp	.+98     	; 0x2692 <Scan_Key+0x1f2>
	}
	else if(Mode == 5) //调节分
    2630:	85 30       	cpi	r24, 0x05	; 5
    2632:	49 f4       	brne	.+18     	; 0x2646 <Scan_Key+0x1a6>
	{
		Key_Operation(59, 0, &MinuteTen, &MinuteOne, &FreshDisplayBufferAjustMinute);
    2634:	08 e2       	ldi	r16, 0x28	; 40
    2636:	1c e0       	ldi	r17, 0x0C	; 12
    2638:	22 e7       	ldi	r18, 0x72	; 114
    263a:	30 e0       	ldi	r19, 0x00	; 0
    263c:	41 e7       	ldi	r20, 0x71	; 113
    263e:	50 e0       	ldi	r21, 0x00	; 0
    2640:	60 e0       	ldi	r22, 0x00	; 0
    2642:	8b e3       	ldi	r24, 0x3B	; 59
    2644:	26 c0       	rjmp	.+76     	; 0x2692 <Scan_Key+0x1f2>
	}
	else if(Mode == 6) //调节星期
    2646:	86 30       	cpi	r24, 0x06	; 6
    2648:	59 f4       	brne	.+22     	; 0x2660 <Scan_Key+0x1c0>
	{
		uint8 temp = 0;
    264a:	19 82       	std	Y+1, r1	; 0x01
		Key_Operation(7, 1, &temp, &Week, &FreshDisplayBufferAjustWeek);
    264c:	00 e3       	ldi	r16, 0x30	; 48
    264e:	1c e0       	ldi	r17, 0x0C	; 12
    2650:	25 e7       	ldi	r18, 0x75	; 117
    2652:	30 e0       	ldi	r19, 0x00	; 0
    2654:	ae 01       	movw	r20, r28
    2656:	4f 5f       	subi	r20, 0xFF	; 255
    2658:	5f 4f       	sbci	r21, 0xFF	; 255
    265a:	61 e0       	ldi	r22, 0x01	; 1
    265c:	87 e0       	ldi	r24, 0x07	; 7
    265e:	19 c0       	rjmp	.+50     	; 0x2692 <Scan_Key+0x1f2>
	}
	else if(Mode == 7) //调节亮度模式
    2660:	87 30       	cpi	r24, 0x07	; 7
    2662:	59 f4       	brne	.+22     	; 0x267a <Scan_Key+0x1da>
	{
		uint8 temp = 0;
    2664:	1a 82       	std	Y+2, r1	; 0x02
		Key_Operation(1, 0, &temp, &display_light_Mode, &FreshDisplayBufferAjustLightMode);
    2666:	04 e7       	ldi	r16, 0x74	; 116
    2668:	1c e0       	ldi	r17, 0x0C	; 12
    266a:	29 e7       	ldi	r18, 0x79	; 121
    266c:	30 e0       	ldi	r19, 0x00	; 0
    266e:	ae 01       	movw	r20, r28
    2670:	4e 5f       	subi	r20, 0xFE	; 254
    2672:	5f 4f       	sbci	r21, 0xFF	; 255
    2674:	6a 81       	ldd	r22, Y+2	; 0x02
    2676:	81 e0       	ldi	r24, 0x01	; 1
    2678:	0c c0       	rjmp	.+24     	; 0x2692 <Scan_Key+0x1f2>
	}
	else if(Mode == 8) //设置字体
    267a:	88 30       	cpi	r24, 0x08	; 8
    267c:	69 f4       	brne	.+26     	; 0x2698 <Scan_Key+0x1f8>
	{
		uint8 temp = 0;
    267e:	1b 82       	std	Y+3, r1	; 0x03
		Key_Operation(2, 0, &temp, &Display_BigNumber_Font, &FreshDisplayBufferChangeFont);
    2680:	09 ec       	ldi	r16, 0xC9	; 201
    2682:	1c e0       	ldi	r17, 0x0C	; 12
    2684:	22 e8       	ldi	r18, 0x82	; 130
    2686:	30 e0       	ldi	r19, 0x00	; 0
    2688:	ae 01       	movw	r20, r28
    268a:	4d 5f       	subi	r20, 0xFD	; 253
    268c:	5f 4f       	sbci	r21, 0xFF	; 255
    268e:	6b 81       	ldd	r22, Y+3	; 0x03
    2690:	82 e0       	ldi	r24, 0x02	; 2
    2692:	0e 94 e9 11 	call	0x23d2 <Key_Operation>
    2696:	3c c0       	rjmp	.+120    	; 0x2710 <Scan_Key+0x270>
	}
	else if(Mode == 9) //调节校对时间
    2698:	89 30       	cpi	r24, 0x09	; 9
    269a:	d1 f5       	brne	.+116    	; 0x2710 <Scan_Key+0x270>
	{
		if(KEY_UP_L) 
    269c:	9e 99       	sbic	0x13, 6	; 19
    269e:	22 c0       	rjmp	.+68     	; 0x26e4 <Scan_Key+0x244>
		__ticks = 1;
	else if (__tmp > 65535)
		__ticks = 0;	/* i.e. 65536 */
	else
		__ticks = (uint16_t)__tmp;
    26a0:	80 e2       	ldi	r24, 0x20	; 32
    26a2:	9e e4       	ldi	r25, 0x4E	; 78
    26a4:	01 97       	sbiw	r24, 0x01	; 1
    26a6:	f1 f7       	brne	.-4      	; 0x26a4 <Scan_Key+0x204>
	{
		if(KEY_UP_L) 
		{
			_delay_ms(10);
			if(KEY_UP_L)
    26a8:	9e 99       	sbic	0x13, 6	; 19
    26aa:	1a c0       	rjmp	.+52     	; 0x26e0 <Scan_Key+0x240>
			{
				uint8 value = AjustTimeTen*10 + AjustTimeOne;
    26ac:	80 91 7e 00 	lds	r24, 0x007E
    26b0:	3a e0       	ldi	r19, 0x0A	; 10
    26b2:	83 9f       	mul	r24, r19
    26b4:	c0 01       	movw	r24, r0
    26b6:	11 24       	eor	r1, r1
    26b8:	20 91 7f 00 	lds	r18, 0x007F
    26bc:	28 0f       	add	r18, r24
				value ++;
    26be:	2f 5f       	subi	r18, 0xFF	; 255
				if(value > 20)
    26c0:	25 31       	cpi	r18, 0x15	; 21
    26c2:	08 f0       	brcs	.+2      	; 0x26c6 <Scan_Key+0x226>
				{
					value = 0;
    26c4:	20 e0       	ldi	r18, 0x00	; 0
				}
				AjustTimeTen = value/10;
    26c6:	82 2f       	mov	r24, r18
    26c8:	63 2f       	mov	r22, r19
    26ca:	0e 94 33 15 	call	0x2a66 <__udivmodqi4>
    26ce:	80 93 7e 00 	sts	0x007E, r24
				AjustTimeOne = value%10;
    26d2:	82 2f       	mov	r24, r18
    26d4:	0e 94 33 15 	call	0x2a66 <__udivmodqi4>
    26d8:	90 93 7f 00 	sts	0x007F, r25
				FreshDisplayBufferAjustProofTime();
    26dc:	0e 94 ea 0c 	call	0x19d4 <FreshDisplayBufferAjustProofTime>
			}
			while(KEY_UP_L);	
    26e0:	9e 9b       	sbis	0x13, 6	; 19
    26e2:	fe cf       	rjmp	.-4      	; 0x26e0 <Scan_Key+0x240>
		}
		if(KEY_DOWN_L) 
    26e4:	9f 99       	sbic	0x13, 7	; 19
    26e6:	14 c0       	rjmp	.+40     	; 0x2710 <Scan_Key+0x270>
		__ticks = 1;
	else if (__tmp > 65535)
		__ticks = 0;	/* i.e. 65536 */
	else
		__ticks = (uint16_t)__tmp;
    26e8:	80 e2       	ldi	r24, 0x20	; 32
    26ea:	9e e4       	ldi	r25, 0x4E	; 78
    26ec:	01 97       	sbiw	r24, 0x01	; 1
    26ee:	f1 f7       	brne	.-4      	; 0x26ec <Scan_Key+0x24c>
		}
		if(KEY_DOWN_L) 
		{
			_delay_ms(10);
			if(KEY_DOWN_L)
    26f0:	9f 99       	sbic	0x13, 7	; 19
    26f2:	0c c0       	rjmp	.+24     	; 0x270c <Scan_Key+0x26c>
			{
				if(AjustTimeMode)
    26f4:	80 91 7d 00 	lds	r24, 0x007D
    26f8:	88 23       	and	r24, r24
    26fa:	19 f0       	breq	.+6      	; 0x2702 <Scan_Key+0x262>
				{
					AjustTimeMode = 0;
    26fc:	10 92 7d 00 	sts	0x007D, r1
    2700:	03 c0       	rjmp	.+6      	; 0x2708 <Scan_Key+0x268>
				}
				else
				{
					AjustTimeMode = 1;
    2702:	81 e0       	ldi	r24, 0x01	; 1
    2704:	80 93 7d 00 	sts	0x007D, r24
				}
				FreshDisplayBufferAjustProofTime();
    2708:	0e 94 ea 0c 	call	0x19d4 <FreshDisplayBufferAjustProofTime>
			}
			while(KEY_DOWN_L);	
    270c:	9f 9b       	sbis	0x13, 7	; 19
    270e:	fe cf       	rjmp	.-4      	; 0x270c <Scan_Key+0x26c>
		}
	}
	//////////////////////////////////////////////////////////
	if(KEY_MODE_L) //模式调节
    2710:	80 99       	sbic	0x10, 0	; 16
    2712:	67 c0       	rjmp	.+206    	; 0x27e2 <Scan_Key+0x342>
		__ticks = 1;
	else if (__tmp > 65535)
		__ticks = 0;	/* i.e. 65536 */
	else
		__ticks = (uint16_t)__tmp;
    2714:	80 e2       	ldi	r24, 0x20	; 32
    2716:	9e e4       	ldi	r25, 0x4E	; 78
    2718:	01 97       	sbiw	r24, 0x01	; 1
    271a:	f1 f7       	brne	.-4      	; 0x2718 <Scan_Key+0x278>
	//////////////////////////////////////////////////////////
	if(KEY_MODE_L) //模式调节
	{
		_delay_ms(10);
		if(KEY_MODE_L)
    271c:	80 b3       	in	r24, 0x10	; 16
    271e:	99 27       	eor	r25, r25
    2720:	9c 01       	movw	r18, r24
    2722:	21 70       	andi	r18, 0x01	; 1
    2724:	30 70       	andi	r19, 0x00	; 0
    2726:	80 fd       	sbrc	r24, 0
    2728:	5a c0       	rjmp	.+180    	; 0x27de <Scan_Key+0x33e>
		{
			KEY_Time_count = 0;
    272a:	30 93 8a 02 	sts	0x028A, r19
    272e:	20 93 89 02 	sts	0x0289, r18
			Mode ++;
    2732:	80 91 7c 00 	lds	r24, 0x007C
    2736:	8f 5f       	subi	r24, 0xFF	; 255
    2738:	80 93 7c 00 	sts	0x007C, r24
			if(Mode > 9)
    273c:	8a 30       	cpi	r24, 0x0A	; 10
    273e:	10 f0       	brcs	.+4      	; 0x2744 <Scan_Key+0x2a4>
			{
				Mode = 0;
    2740:	10 92 7c 00 	sts	0x007C, r1
			}
			switch(Mode){
    2744:	80 91 7c 00 	lds	r24, 0x007C
    2748:	99 27       	eor	r25, r25
    274a:	84 30       	cpi	r24, 0x04	; 4
    274c:	91 05       	cpc	r25, r1
    274e:	b1 f1       	breq	.+108    	; 0x27bc <Scan_Key+0x31c>
    2750:	85 30       	cpi	r24, 0x05	; 5
    2752:	91 05       	cpc	r25, r1
    2754:	7c f4       	brge	.+30     	; 0x2774 <Scan_Key+0x2d4>
    2756:	81 30       	cpi	r24, 0x01	; 1
    2758:	91 05       	cpc	r25, r1
    275a:	39 f1       	breq	.+78     	; 0x27aa <Scan_Key+0x30a>
    275c:	82 30       	cpi	r24, 0x02	; 2
    275e:	91 05       	cpc	r25, r1
    2760:	1c f4       	brge	.+6      	; 0x2768 <Scan_Key+0x2c8>
    2762:	89 2b       	or	r24, r25
    2764:	c9 f0       	breq	.+50     	; 0x2798 <Scan_Key+0x2f8>
    2766:	3b c0       	rjmp	.+118    	; 0x27de <Scan_Key+0x33e>
    2768:	82 30       	cpi	r24, 0x02	; 2
    276a:	91 05       	cpc	r25, r1
    276c:	09 f1       	breq	.+66     	; 0x27b0 <Scan_Key+0x310>
    276e:	03 97       	sbiw	r24, 0x03	; 3
    2770:	11 f1       	breq	.+68     	; 0x27b6 <Scan_Key+0x316>
    2772:	35 c0       	rjmp	.+106    	; 0x27de <Scan_Key+0x33e>
    2774:	87 30       	cpi	r24, 0x07	; 7
    2776:	91 05       	cpc	r25, r1
    2778:	51 f1       	breq	.+84     	; 0x27ce <Scan_Key+0x32e>
    277a:	88 30       	cpi	r24, 0x08	; 8
    277c:	91 05       	cpc	r25, r1
    277e:	34 f4       	brge	.+12     	; 0x278c <Scan_Key+0x2ec>
    2780:	85 30       	cpi	r24, 0x05	; 5
    2782:	91 05       	cpc	r25, r1
    2784:	f1 f0       	breq	.+60     	; 0x27c2 <Scan_Key+0x322>
    2786:	06 97       	sbiw	r24, 0x06	; 6
    2788:	f9 f0       	breq	.+62     	; 0x27c8 <Scan_Key+0x328>
    278a:	29 c0       	rjmp	.+82     	; 0x27de <Scan_Key+0x33e>
    278c:	88 30       	cpi	r24, 0x08	; 8
    278e:	91 05       	cpc	r25, r1
    2790:	09 f1       	breq	.+66     	; 0x27d4 <Scan_Key+0x334>
    2792:	09 97       	sbiw	r24, 0x09	; 9
    2794:	11 f1       	breq	.+68     	; 0x27da <Scan_Key+0x33a>
    2796:	23 c0       	rjmp	.+70     	; 0x27de <Scan_Key+0x33e>
				case 0:	//正常运行
					//保存时间到时钟芯片
					Write_time();
    2798:	0e 94 0f 11 	call	0x221e <Write_time>
					//保存运行参数到eepROM
					SaveRunParameter();
    279c:	0e 94 21 09 	call	0x1242 <SaveRunParameter>
					clearScreen(); //清屏
    27a0:	0e 94 dc 09 	call	0x13b8 <clearScreen>
					FreshDisplayBufferNormal(); //加载正常走时模式
    27a4:	0e 94 1d 0d 	call	0x1a3a <FreshDisplayBufferNormal>
					break; 
    27a8:	1a c0       	rjmp	.+52     	; 0x27de <Scan_Key+0x33e>
				case 1:	//调节年
					FreshDisplayBufferAjustYear();
    27aa:	0e 94 08 0c 	call	0x1810 <FreshDisplayBufferAjustYear>
					break; 
    27ae:	17 c0       	rjmp	.+46     	; 0x27de <Scan_Key+0x33e>
				case 2:	//调节月
					FreshDisplayBufferAjustMonth();
    27b0:	0e 94 10 0c 	call	0x1820 <FreshDisplayBufferAjustMonth>
					break; 
    27b4:	14 c0       	rjmp	.+40     	; 0x27de <Scan_Key+0x33e>
				case 3:	//调节日
					FreshDisplayBufferAjustDay();
    27b6:	0e 94 18 0c 	call	0x1830 <FreshDisplayBufferAjustDay>
					break; 
    27ba:	11 c0       	rjmp	.+34     	; 0x27de <Scan_Key+0x33e>
				case 4:	//调节时
					FreshDisplayBufferAjustHour();
    27bc:	0e 94 20 0c 	call	0x1840 <FreshDisplayBufferAjustHour>
					break; 
    27c0:	0e c0       	rjmp	.+28     	; 0x27de <Scan_Key+0x33e>
				case 5:	//调节分
					FreshDisplayBufferAjustMinute();
    27c2:	0e 94 28 0c 	call	0x1850 <FreshDisplayBufferAjustMinute>
					break;
    27c6:	0b c0       	rjmp	.+22     	; 0x27de <Scan_Key+0x33e>
				case 6:	//调节星期
					FreshDisplayBufferAjustWeek();
    27c8:	0e 94 30 0c 	call	0x1860 <FreshDisplayBufferAjustWeek>
					break;  
    27cc:	08 c0       	rjmp	.+16     	; 0x27de <Scan_Key+0x33e>
				case 7:	//调节亮度模式
					FreshDisplayBufferAjustLightMode();
    27ce:	0e 94 74 0c 	call	0x18e8 <FreshDisplayBufferAjustLightMode>
					break;
    27d2:	05 c0       	rjmp	.+10     	; 0x27de <Scan_Key+0x33e>
				case 8:	//设置字体
					FreshDisplayBufferChangeFont();
    27d4:	0e 94 c9 0c 	call	0x1992 <FreshDisplayBufferChangeFont>
					break;
    27d8:	02 c0       	rjmp	.+4      	; 0x27de <Scan_Key+0x33e>
				case 9:	//调节校队时间
					FreshDisplayBufferAjustProofTime();
    27da:	0e 94 ea 0c 	call	0x19d4 <FreshDisplayBufferAjustProofTime>
					break;  
				default:
					break; 
			} 
		}
		while(KEY_MODE_L);	
    27de:	80 9b       	sbis	0x10, 0	; 16
    27e0:	fe cf       	rjmp	.-4      	; 0x27de <Scan_Key+0x33e>
    27e2:	23 96       	adiw	r28, 0x03	; 3
    27e4:	0f b6       	in	r0, 0x3f	; 63
    27e6:	f8 94       	cli
    27e8:	de bf       	out	0x3e, r29	; 62
    27ea:	0f be       	out	0x3f, r0	; 63
    27ec:	cd bf       	out	0x3d, r28	; 61
    27ee:	df 91       	pop	r29
    27f0:	cf 91       	pop	r28
    27f2:	1f 91       	pop	r17
    27f4:	0f 91       	pop	r16
    27f6:	08 95       	ret

000027f8 <StartAD>:
uint16 AD_time_count;

void StartAD()
{
	ADCSRA=0x00;
    27f8:	16 b8       	out	0x06, r1	; 6
	ADMUX=0x40;
    27fa:	80 e4       	ldi	r24, 0x40	; 64
    27fc:	87 b9       	out	0x07, r24	; 7
	ADCSRA=(1<<ADEN)|(1<<ADSC)|(1<<ADIF)|0x07;   //128分频，连续转换
    27fe:	87 ed       	ldi	r24, 0xD7	; 215
    2800:	86 b9       	out	0x06, r24	; 6
    2802:	08 95       	ret

00002804 <GetDispalyLight>:
}

void GetDispalyLight()
{
	uint8 ten_1;
	uint16 adc_data0,adc_l0,adc_h0;
	adc_l0=ADCL;
    2804:	84 b1       	in	r24, 0x04	; 4
    2806:	28 2f       	mov	r18, r24
    2808:	33 27       	eor	r19, r19
	adc_h0=ADCH;
    280a:	85 b1       	in	r24, 0x05	; 5
    280c:	99 27       	eor	r25, r25
	adc_data0=adc_h0<<8|adc_l0;                  
    280e:	98 2f       	mov	r25, r24
    2810:	88 27       	eor	r24, r24
    2812:	82 2b       	or	r24, r18
    2814:	93 2b       	or	r25, r19
	adc_data0=adc_data0>>1;               //放弃一位的精度
    2816:	96 95       	lsr	r25
    2818:	87 95       	ror	r24
	adc_data0-=35;                        //修正
	ten_1=(adc_data0)/60;
    281a:	83 97       	sbiw	r24, 0x23	; 35
    281c:	6c e3       	ldi	r22, 0x3C	; 60
    281e:	70 e0       	ldi	r23, 0x00	; 0
    2820:	0e 94 3f 15 	call	0x2a7e <__udivmodhi4>
    2824:	cb 01       	movw	r24, r22
	display_light = 8 - ten_1;
    2826:	98 e0       	ldi	r25, 0x08	; 8
    2828:	29 2f       	mov	r18, r25
    282a:	28 1b       	sub	r18, r24
    282c:	20 93 7a 00 	sts	0x007A, r18
	if(display_light > 8)
    2830:	92 17       	cp	r25, r18
    2832:	18 f4       	brcc	.+6      	; 0x283a <GetDispalyLight+0x36>
	{
		display_light = 8;
    2834:	90 93 7a 00 	sts	0x007A, r25
    2838:	05 c0       	rjmp	.+10     	; 0x2844 <GetDispalyLight+0x40>
	}
	else if(display_light < 1)
    283a:	22 23       	and	r18, r18
    283c:	19 f4       	brne	.+6      	; 0x2844 <GetDispalyLight+0x40>
	{
		display_light = 1;
    283e:	81 e0       	ldi	r24, 0x01	; 1
    2840:	80 93 7a 00 	sts	0x007A, r24
	}
	SET_DISPLAY_LIGHT;
    2844:	90 91 7a 00 	lds	r25, 0x007A
    2848:	89 e1       	ldi	r24, 0x19	; 25
    284a:	98 9f       	mul	r25, r24
    284c:	c0 01       	movw	r24, r0
    284e:	11 24       	eor	r1, r1
    2850:	88 51       	subi	r24, 0x18	; 24
    2852:	8c bf       	out	0x3c, r24	; 60
    2854:	08 95       	ret

00002856 <timer0_init>:


void timer0_init(void)
{
	TCCR0=0x00;//停止
    2856:	13 be       	out	0x33, r1	; 51
	TCNT0=0x00;//清除定时器值
    2858:	12 be       	out	0x32, r1	; 50
	TCCR0=0x79;//快速PWM模式,匹配时OC0清零,top时置数,系统时钟1024分频,输出比较匹配清除定时器值
    285a:	89 e7       	ldi	r24, 0x79	; 121
    285c:	83 bf       	out	0x33, r24	; 51
	if(RunParameter[18] <= 8)
    285e:	80 91 79 00 	lds	r24, 0x0079
    2862:	89 30       	cpi	r24, 0x09	; 9
    2864:	40 f4       	brcc	.+16     	; 0x2876 <timer0_init+0x20>
	{
		SET_DISPLAY_LIGHT;//OCR0置初值,占空比50%，调整OCR0的值用来调整占空比
    2866:	90 91 7a 00 	lds	r25, 0x007A
    286a:	89 e1       	ldi	r24, 0x19	; 25
    286c:	98 9f       	mul	r25, r24
    286e:	c0 01       	movw	r24, r0
    2870:	11 24       	eor	r1, r1
    2872:	88 51       	subi	r24, 0x18	; 24
    2874:	01 c0       	rjmp	.+2      	; 0x2878 <timer0_init+0x22>
	}
	else
	{
		OCR0 = 0x64;
    2876:	84 e6       	ldi	r24, 0x64	; 100
    2878:	8c bf       	out	0x3c, r24	; 60
    287a:	08 95       	ret

0000287c <timer2_init>:
	}
}

void timer2_init(void)
{

	//TCNT2=0xE6;
	TCCR2 = 0x05;
    287c:	85 e0       	ldi	r24, 0x05	; 5
    287e:	85 bd       	out	0x25, r24	; 37
	TIMSK |= 1<<TOIE2;
    2880:	89 b7       	in	r24, 0x39	; 57
    2882:	80 64       	ori	r24, 0x40	; 64
    2884:	89 bf       	out	0x39, r24	; 57
    2886:	08 95       	ret

00002888 <__vector_4>:

}

/*定时器2的中断服务程序，用于显示处理*/
SIGNAL(SIG_OVERFLOW2)
{
    2888:	1f 92       	push	r1
    288a:	0f 92       	push	r0
    288c:	0f b6       	in	r0, 0x3f	; 63
    288e:	0f 92       	push	r0
    2890:	11 24       	eor	r1, r1
    2892:	2f 93       	push	r18
    2894:	3f 93       	push	r19
    2896:	4f 93       	push	r20
    2898:	5f 93       	push	r21
    289a:	6f 93       	push	r22
    289c:	7f 93       	push	r23
    289e:	8f 93       	push	r24
    28a0:	9f 93       	push	r25
    28a2:	af 93       	push	r26
    28a4:	bf 93       	push	r27
    28a6:	ef 93       	push	r30
    28a8:	ff 93       	push	r31
	//2730.58 us 0.002730s
	if( Mode == 0)
    28aa:	80 91 7c 00 	lds	r24, 0x007C
    28ae:	88 23       	and	r24, r24
    28b0:	d1 f5       	brne	.+116    	; 0x2926 <__vector_4+0x9e>
	{
		/*
		FreshDisplayBufferCount ++;
		if(FreshDisplayBufferCount > 5000)
		{
			FreshDisplayBufferNormal();
			FreshDisplayBufferCount = 0;
			freshTimeCount = 0;
		}
	
		freshTimeCount ++;
		if(freshTimeCount > 4000)
		{
			Updata_time();
			AjustTimerMonthly();
			freshTimeCount = 0;
		}	
		*/
		ReadDS18B20Count ++;
    28b2:	80 91 83 02 	lds	r24, 0x0283
    28b6:	90 91 84 02 	lds	r25, 0x0284
    28ba:	01 96       	adiw	r24, 0x01	; 1
    28bc:	90 93 84 02 	sts	0x0284, r25
    28c0:	80 93 83 02 	sts	0x0283, r24
		if(ReadDS18B20Count == 51250)
    28c4:	82 53       	subi	r24, 0x32	; 50
    28c6:	98 4c       	sbci	r25, 0xC8	; 200
    28c8:	11 f4       	brne	.+4      	; 0x28ce <__vector_4+0x46>
		{
			ds1820_start();    
    28ca:	0e 94 87 08 	call	0x110e <ds1820_start>
		}
		
		if(ReadDS18B20Count > 60000)
    28ce:	80 91 83 02 	lds	r24, 0x0283
    28d2:	90 91 84 02 	lds	r25, 0x0284
    28d6:	81 56       	subi	r24, 0x61	; 97
    28d8:	9a 4e       	sbci	r25, 0xEA	; 234
    28da:	30 f0       	brcs	.+12     	; 0x28e8 <__vector_4+0x60>
		{
			ReadTemputer(); 
    28dc:	0e 94 90 08 	call	0x1120 <ReadTemputer>
			ReadDS18B20Count = 0;
    28e0:	10 92 84 02 	sts	0x0284, r1
    28e4:	10 92 83 02 	sts	0x0283, r1
		}	
		if(!display_light_Mode)
    28e8:	80 91 79 00 	lds	r24, 0x0079
    28ec:	88 23       	and	r24, r24
    28ee:	d9 f4       	brne	.+54     	; 0x2926 <__vector_4+0x9e>
		{
			AD_time_count ++;
    28f0:	80 91 81 02 	lds	r24, 0x0281
    28f4:	90 91 82 02 	lds	r25, 0x0282
    28f8:	01 96       	adiw	r24, 0x01	; 1
    28fa:	90 93 82 02 	sts	0x0282, r25
    28fe:	80 93 81 02 	sts	0x0281, r24
			if(AD_time_count == 100)
    2902:	84 36       	cpi	r24, 0x64	; 100
    2904:	91 05       	cpc	r25, r1
    2906:	11 f4       	brne	.+4      	; 0x290c <__vector_4+0x84>
			{
				StartAD();    
    2908:	0e 94 fc 13 	call	0x27f8 <StartAD>
			}
		
			if(AD_time_count > 200)
    290c:	80 91 81 02 	lds	r24, 0x0281
    2910:	90 91 82 02 	lds	r25, 0x0282
    2914:	89 3c       	cpi	r24, 0xC9	; 201
    2916:	91 05       	cpc	r25, r1
    2918:	30 f0       	brcs	.+12     	; 0x2926 <__vector_4+0x9e>
			{
				GetDispalyLight(); 
    291a:	0e 94 02 14 	call	0x2804 <GetDispalyLight>
				AD_time_count = 0;
    291e:	10 92 82 02 	sts	0x0282, r1
    2922:	10 92 81 02 	sts	0x0281, r1
			}	
		}
	}
	KEY_Time_count ++;	
    2926:	80 91 89 02 	lds	r24, 0x0289
    292a:	90 91 8a 02 	lds	r25, 0x028A
    292e:	01 96       	adiw	r24, 0x01	; 1
    2930:	90 93 8a 02 	sts	0x028A, r25
    2934:	80 93 89 02 	sts	0x0289, r24
	KEY_Time_count_speed_color ++;
    2938:	80 91 97 02 	lds	r24, 0x0297
    293c:	90 91 98 02 	lds	r25, 0x0298
    2940:	01 96       	adiw	r24, 0x01	; 1
    2942:	90 93 98 02 	sts	0x0298, r25
    2946:	80 93 97 02 	sts	0x0297, r24
	TCNT2=0x00;	
    294a:	14 bc       	out	0x24, r1	; 36
    294c:	ff 91       	pop	r31
    294e:	ef 91       	pop	r30
    2950:	bf 91       	pop	r27
    2952:	af 91       	pop	r26
    2954:	9f 91       	pop	r25
    2956:	8f 91       	pop	r24
    2958:	7f 91       	pop	r23
    295a:	6f 91       	pop	r22
    295c:	5f 91       	pop	r21
    295e:	4f 91       	pop	r20
    2960:	3f 91       	pop	r19
    2962:	2f 91       	pop	r18
    2964:	0f 90       	pop	r0
    2966:	0f be       	out	0x3f, r0	; 63
    2968:	0f 90       	pop	r0
    296a:	1f 90       	pop	r1
    296c:	18 95       	reti

0000296e <init_devices>:
#include "_Infrared.h"

void init_devices()
{
	cli(); //关闭所有中断
    296e:	f8 94       	cli
	MCUCR  = 0x00;
    2970:	15 be       	out	0x35, r1	; 53
	//MCUCSR = 0x80;//禁止JTAG
	GICR   = 0x00;//关闭外部中断
    2972:	1b be       	out	0x3b, r1	; 59
	LED_SCREEN_INI(); //初始化LED点阵
    2974:	0e 94 be 09 	call	0x137c <LED_SCREEN_INI>
	Key_Init();
    2978:	0e 94 e0 11 	call	0x23c0 <Key_Init>
	//USART_Init();
	timer0_init(); //初始化定时器
    297c:	0e 94 2b 14 	call	0x2856 <timer0_init>
	timer2_init();
    2980:	0e 94 3e 14 	call	0x287c <timer2_init>
	PCF8563_init();
    2984:	0e 94 9f 10 	call	0x213e <PCF8563_init>
	ReadDS18B20Count = 0;
    2988:	10 92 84 02 	sts	0x0284, r1
    298c:	10 92 83 02 	sts	0x0283, r1
	AD_time_count = 0;
    2990:	10 92 82 02 	sts	0x0282, r1
    2994:	10 92 81 02 	sts	0x0281, r1
	KEY_Time_count = 0;
    2998:	10 92 8a 02 	sts	0x028A, r1
    299c:	10 92 89 02 	sts	0x0289, r1
	ds1820_reset();  
    29a0:	0e 94 25 08 	call	0x104a <ds1820_reset>
	clearScreen();	
    29a4:	0e 94 dc 09 	call	0x13b8 <clearScreen>
	sei(); //使能中断
    29a8:	78 94       	sei
    29aa:	08 95       	ret

000029ac <main>:
}

int main()
{
    29ac:	cf e5       	ldi	r28, 0x5F	; 95
    29ae:	d4 e0       	ldi	r29, 0x04	; 4
    29b0:	de bf       	out	0x3e, r29	; 62
    29b2:	cd bf       	out	0x3d, r28	; 61
	init_devices();
    29b4:	0e 94 b7 14 	call	0x296e <init_devices>
	ds1820_start();   
    29b8:	0e 94 87 08 	call	0x110e <ds1820_start>
	_delay_100ms(6);   
    29bc:	86 e0       	ldi	r24, 0x06	; 6
    29be:	90 e0       	ldi	r25, 0x00	; 0
    29c0:	0e 94 17 08 	call	0x102e <_delay_100ms>
	ReadTemputer();
    29c4:	0e 94 90 08 	call	0x1120 <ReadTemputer>
	if(KEY_MODE_L) //判断是否加载初始化参数
    29c8:	80 99       	sbic	0x10, 0	; 16
    29ca:	1c c0       	rjmp	.+56     	; 0x2a04 <main+0x58>
		__ticks = 1;
	else if (__tmp > 65535)
		__ticks = 0;	/* i.e. 65536 */
	else
		__ticks = (uint16_t)__tmp;
    29cc:	80 e2       	ldi	r24, 0x20	; 32
    29ce:	9e e4       	ldi	r25, 0x4E	; 78
    29d0:	01 97       	sbiw	r24, 0x01	; 1
    29d2:	f1 f7       	brne	.-4      	; 0x29d0 <main+0x24>
	{
		_delay_ms(10);
		if(KEY_MODE_L)
    29d4:	80 99       	sbic	0x10, 0	; 16
    29d6:	16 c0       	rjmp	.+44     	; 0x2a04 <main+0x58>
		{
			display_light_Mode = 	1;
    29d8:	81 e0       	ldi	r24, 0x01	; 1
    29da:	80 93 79 00 	sts	0x0079, r24
			display_light = 		1;
    29de:	80 93 7a 00 	sts	0x007A, r24
			moveSpeed = 			1;
    29e2:	80 93 7b 00 	sts	0x007B, r24
			Mode = 					0;
    29e6:	10 92 7c 00 	sts	0x007C, r1
			AjustTimeMode = 		0;
    29ea:	10 92 7d 00 	sts	0x007D, r1
			AjustTimeTen = 			0;
    29ee:	10 92 7e 00 	sts	0x007E, r1
			AjustTimeOne = 			0;	
    29f2:	10 92 7f 00 	sts	0x007F, r1
			Display_color = 		0;
    29f6:	10 92 81 00 	sts	0x0081, r1
			Display_BigNumber_Font = 0;
    29fa:	10 92 82 00 	sts	0x0082, r1
			SET_DISPLAY_LIGHT;
    29fe:	8c bf       	out	0x3c, r24	; 60
			SaveRunParameter();
    2a00:	0e 94 21 09 	call	0x1242 <SaveRunParameter>
		}
	}
	ReadRunParameter();
    2a04:	0e 94 6e 09 	call	0x12dc <ReadRunParameter>
	Show_welcome();
    2a08:	0e 94 a8 0f 	call	0x1f50 <Show_welcome>
	Updata_time();
    2a0c:	0e 94 b4 10 	call	0x2168 <Updata_time>
	FreshDisplayBufferNormal();
    2a10:	0e 94 1d 0d 	call	0x1a3a <FreshDisplayBufferNormal>
	while(1)
	{
		//675 us 0.000675s
		if( Mode == 0)
    2a14:	80 91 7c 00 	lds	r24, 0x007C
    2a18:	88 23       	and	r24, r24
    2a1a:	b1 f4       	brne	.+44     	; 0x2a48 <main+0x9c>
		{
			Updata_time();
    2a1c:	0e 94 b4 10 	call	0x2168 <Updata_time>
			FreshDisplayBufferCount ++;
    2a20:	80 91 95 02 	lds	r24, 0x0295
    2a24:	90 91 96 02 	lds	r25, 0x0296
    2a28:	01 96       	adiw	r24, 0x01	; 1
    2a2a:	90 93 96 02 	sts	0x0296, r25
    2a2e:	80 93 95 02 	sts	0x0295, r24
			if(FreshDisplayBufferCount > 10000)
    2a32:	81 51       	subi	r24, 0x11	; 17
    2a34:	97 42       	sbci	r25, 0x27	; 39
    2a36:	40 f0       	brcs	.+16     	; 0x2a48 <main+0x9c>
			{
				AjustTimerMonthly();
    2a38:	0e 94 76 11 	call	0x22ec <AjustTimerMonthly>
				FreshDisplayBufferNormal();
    2a3c:	0e 94 1d 0d 	call	0x1a3a <FreshDisplayBufferNormal>
				FreshDisplayBufferCount = 0;
    2a40:	10 92 96 02 	sts	0x0296, r1
    2a44:	10 92 95 02 	sts	0x0295, r1
			}	
		}
		display();	
    2a48:	0e 94 a0 0d 	call	0x1b40 <display>
		Scan_Key();
    2a4c:	0e 94 50 12 	call	0x24a0 <Scan_Key>
    2a50:	e1 cf       	rjmp	.-62     	; 0x2a14 <main+0x68>

00002a52 <memset>:
    2a52:	dc 01       	movw	r26, r24
    2a54:	40 ff       	sbrs	r20, 0
    2a56:	03 c0       	rjmp	.+6      	; 0x2a5e <memset+0xc>
    2a58:	01 c0       	rjmp	.+2      	; 0x2a5c <memset+0xa>
    2a5a:	6d 93       	st	X+, r22
    2a5c:	6d 93       	st	X+, r22
    2a5e:	42 50       	subi	r20, 0x02	; 2
    2a60:	50 40       	sbci	r21, 0x00	; 0
    2a62:	d8 f7       	brcc	.-10     	; 0x2a5a <memset+0x8>
    2a64:	08 95       	ret

00002a66 <__udivmodqi4>:
    2a66:	99 1b       	sub	r25, r25
    2a68:	79 e0       	ldi	r23, 0x09	; 9
    2a6a:	04 c0       	rjmp	.+8      	; 0x2a74 <__udivmodqi4_ep>

00002a6c <__udivmodqi4_loop>:
    2a6c:	99 1f       	adc	r25, r25
    2a6e:	96 17       	cp	r25, r22
    2a70:	08 f0       	brcs	.+2      	; 0x2a74 <__udivmodqi4_ep>
    2a72:	96 1b       	sub	r25, r22

00002a74 <__udivmodqi4_ep>:
    2a74:	88 1f       	adc	r24, r24
    2a76:	7a 95       	dec	r23
    2a78:	c9 f7       	brne	.-14     	; 0x2a6c <__udivmodqi4_loop>
    2a7a:	80 95       	com	r24
    2a7c:	08 95       	ret

00002a7e <__udivmodhi4>:
    2a7e:	aa 1b       	sub	r26, r26
    2a80:	bb 1b       	sub	r27, r27
    2a82:	51 e1       	ldi	r21, 0x11	; 17
    2a84:	07 c0       	rjmp	.+14     	; 0x2a94 <__udivmodhi4_ep>

00002a86 <__udivmodhi4_loop>:
    2a86:	aa 1f       	adc	r26, r26
    2a88:	bb 1f       	adc	r27, r27
    2a8a:	a6 17       	cp	r26, r22
    2a8c:	b7 07       	cpc	r27, r23
    2a8e:	10 f0       	brcs	.+4      	; 0x2a94 <__udivmodhi4_ep>
    2a90:	a6 1b       	sub	r26, r22
    2a92:	b7 0b       	sbc	r27, r23

00002a94 <__udivmodhi4_ep>:
    2a94:	88 1f       	adc	r24, r24
    2a96:	99 1f       	adc	r25, r25
    2a98:	5a 95       	dec	r21
    2a9a:	a9 f7       	brne	.-22     	; 0x2a86 <__udivmodhi4_loop>
    2a9c:	80 95       	com	r24
    2a9e:	90 95       	com	r25
    2aa0:	bc 01       	movw	r22, r24
    2aa2:	cd 01       	movw	r24, r26
    2aa4:	08 95       	ret

00002aa6 <__eeprom_read_byte_1C1D1E>:
    2aa6:	e1 99       	sbic	0x1c, 1	; 28
    2aa8:	fe cf       	rjmp	.-4      	; 0x2aa6 <__eeprom_read_byte_1C1D1E>
    2aaa:	bf bb       	out	0x1f, r27	; 31
    2aac:	ae bb       	out	0x1e, r26	; 30
    2aae:	e0 9a       	sbi	0x1c, 0	; 28
    2ab0:	11 96       	adiw	r26, 0x01	; 1
    2ab2:	0d b2       	in	r0, 0x1d	; 29
    2ab4:	08 95       	ret

00002ab6 <__eeprom_write_byte_1C1D1E>:
    2ab6:	e1 99       	sbic	0x1c, 1	; 28
    2ab8:	fe cf       	rjmp	.-4      	; 0x2ab6 <__eeprom_write_byte_1C1D1E>
    2aba:	bf bb       	out	0x1f, r27	; 31
    2abc:	ae bb       	out	0x1e, r26	; 30
    2abe:	0d ba       	out	0x1d, r0	; 29
    2ac0:	11 96       	adiw	r26, 0x01	; 1
    2ac2:	0f b6       	in	r0, 0x3f	; 63
    2ac4:	f8 94       	cli
    2ac6:	e2 9a       	sbi	0x1c, 2	; 28
    2ac8:	e1 9a       	sbi	0x1c, 1	; 28
    2aca:	0f be       	out	0x3f, r0	; 63
    2acc:	08 95       	ret
