   1               		.file	"LED3264.c"
   2               		.arch atmega16
   3               	__SREG__ = 0x3f
   4               	__SP_H__ = 0x3e
   5               	__SP_L__ = 0x3d
   6               	__tmp_reg__ = 0
   7               	__zero_reg__ = 1
   8               		.global __do_copy_data
   9               		.global __do_clear_bss
  17               	.Ltext0:
  18               	.global	freshTimeCount
  19               	.global	freshTimeCount
  20               		.section .bss
  23               	freshTimeCount:
  24 0000 0000      		.skip 2,0
  25               	.global	time
  26               		.data
  29               	time:
  30 0000 40        		.byte	64
  31 0001 59        		.byte	89
  32 0002 23        		.byte	35
  33 0003 29        		.byte	41
  34 0004 05        		.byte	5
  35 0005 02        		.byte	2
  36 0006 08        		.byte	8
  37               	.global	CHINESE
  38               		.section	.progmem.data,"a",@progbits
  41               	CHINESE:
  42 0000 02        		.byte	2
  43 0001 00        		.byte	0
  44 0002 03        		.byte	3
  45 0003 80        		.byte	-128
  46 0004 06        		.byte	6
  47 0005 00        		.byte	0
  48 0006 1F        		.byte	31
  49 0007 FC        		.byte	-4
  50 0008 1F        		.byte	31
  51 0009 FC        		.byte	-4
  52 000a 18        		.byte	24
  53 000b 0C        		.byte	12
  54 000c 1F        		.byte	31
  55 000d FC        		.byte	-4
  56 000e 1F        		.byte	31
  57 000f FC        		.byte	-4
  58 0010 18        		.byte	24
  59 0011 0C        		.byte	12
  60 0012 1F        		.byte	31
  61 0013 FC        		.byte	-4
  62 0014 1F        		.byte	31
  63 0015 FC        		.byte	-4
  64 0016 18        		.byte	24
  65 0017 0C        		.byte	12
  66 0018 1F        		.byte	31
  67 0019 FC        		.byte	-4
  68 001a 1F        		.byte	31
  69 001b FC        		.byte	-4
  70 001c 18        		.byte	24
  71 001d 0C        		.byte	12
  72 001e 18        		.byte	24
  73 001f 0C        		.byte	12
  74 0020 00        		.byte	0
  75 0021 08        		.byte	8
  76 0022 3F        		.byte	63
  77 0023 FC        		.byte	-4
  78 0024 3F        		.byte	63
  79 0025 FC        		.byte	-4
  80 0026 01        		.byte	1
  81 0027 80        		.byte	-128
  82 0028 01        		.byte	1
  83 0029 80        		.byte	-128
  84 002a 3F        		.byte	63
  85 002b FC        		.byte	-4
  86 002c 1F        		.byte	31
  87 002d F8        		.byte	-8
  88 002e 01        		.byte	1
  89 002f 80        		.byte	-128
  90 0030 7F        		.byte	127
  91 0031 FF        		.byte	-1
  92 0032 7F        		.byte	127
  93 0033 FE        		.byte	-2
  94 0034 01        		.byte	1
  95 0035 80        		.byte	-128
  96 0036 01        		.byte	1
  97 0037 80        		.byte	-128
  98 0038 01        		.byte	1
  99 0039 80        		.byte	-128
 100 003a 07        		.byte	7
 101 003b 80        		.byte	-128
 102 003c 07        		.byte	7
 103 003d 80        		.byte	-128
 104 003e 00        		.byte	0
 105 003f 00        		.byte	0
 106 0040 00        		.byte	0
 107 0041 00        		.byte	0
 108 0042 00        		.byte	0
 109 0043 30        		.byte	48
 110 0044 3E        		.byte	62
 111 0045 30        		.byte	48
 112 0046 3F        		.byte	63
 113 0047 30        		.byte	48
 114 0048 01        		.byte	1
 115 0049 FE        		.byte	-2
 116 004a 01        		.byte	1
 117 004b FE        		.byte	-2
 118 004c 7F        		.byte	127
 119 004d 36        		.byte	54
 120 004e 7F        		.byte	127
 121 004f 36        		.byte	54
 122 0050 18        		.byte	24
 123 0051 76        		.byte	118
 124 0052 18        		.byte	24
 125 0053 66        		.byte	102
 126 0054 36        		.byte	54
 127 0055 66        		.byte	102
 128 0056 76        		.byte	118
 129 0057 E6        		.byte	-26
 130 0058 7E        		.byte	126
 131 0059 C6        		.byte	-58
 132 005a 39        		.byte	57
 133 005b DE        		.byte	-34
 134 005c 03        		.byte	3
 135 005d 9C        		.byte	-100
 136 005e 00        		.byte	0
 137 005f 00        		.byte	0
 138 0060 00        		.byte	0
 139 0061 00        		.byte	0
 140 0062 60        		.byte	96
 141 0063 06        		.byte	6
 142 0064 70        		.byte	112
 143 0065 0E        		.byte	14
 144 0066 70        		.byte	112
 145 0067 0E        		.byte	14
 146 0068 78        		.byte	120
 147 0069 1E        		.byte	30
 148 006a 78        		.byte	120
 149 006b 1E        		.byte	30
 150 006c 7C        		.byte	124
 151 006d 3E        		.byte	62
 152 006e 6C        		.byte	108
 153 006f 36        		.byte	54
 154 0070 6E        		.byte	110
 155 0071 76        		.byte	118
 156 0072 66        		.byte	102
 157 0073 66        		.byte	102
 158 0074 67        		.byte	103
 159 0075 C6        		.byte	-58
 160 0076 63        		.byte	99
 161 0077 C6        		.byte	-58
 162 0078 61        		.byte	97
 163 0079 86        		.byte	-122
 164 007a 61        		.byte	97
 165 007b 86        		.byte	-122
 166 007c 70        		.byte	112
 167 007d 0E        		.byte	14
 168 007e 70        		.byte	112
 169 007f 0E        		.byte	14
 170 0080 00        		.byte	0
 171 0081 00        		.byte	0
 172 0082 3F        		.byte	63
 173 0083 FF        		.byte	-1
 174 0084 3F        		.byte	63
 175 0085 FF        		.byte	-1
 176 0086 30        		.byte	48
 177 0087 C3        		.byte	-61
 178 0088 00        		.byte	0
 179 0089 C0        		.byte	-64
 180 008a 00        		.byte	0
 181 008b C0        		.byte	-64
 182 008c 00        		.byte	0
 183 008d C0        		.byte	-64
 184 008e 00        		.byte	0
 185 008f C0        		.byte	-64
 186 0090 00        		.byte	0
 187 0091 C0        		.byte	-64
 188 0092 00        		.byte	0
 189 0093 C0        		.byte	-64
 190 0094 00        		.byte	0
 191 0095 C0        		.byte	-64
 192 0096 00        		.byte	0
 193 0097 C0        		.byte	-64
 194 0098 00        		.byte	0
 195 0099 C0        		.byte	-64
 196 009a 00        		.byte	0
 197 009b C0        		.byte	-64
 198 009c 07        		.byte	7
 199 009d F8        		.byte	-8
 200 009e 07        		.byte	7
 201 009f F8        		.byte	-8
 202 00a0 00        		.byte	0
 203 00a1 00        		.byte	0
 204 00a2 03        		.byte	3
 205 00a3 FC        		.byte	-4
 206 00a4 0F        		.byte	15
 207 00a5 FE        		.byte	-2
 208 00a6 0E        		.byte	14
 209 00a7 07        		.byte	7
 210 00a8 1C        		.byte	28
 211 00a9 03        		.byte	3
 212 00aa 18        		.byte	24
 213 00ab 07        		.byte	7
 214 00ac 18        		.byte	24
 215 00ad 0E        		.byte	14
 216 00ae 00        		.byte	0
 217 00af 1C        		.byte	28
 218 00b0 00        		.byte	0
 219 00b1 38        		.byte	56
 220 00b2 00        		.byte	0
 221 00b3 70        		.byte	112
 222 00b4 00        		.byte	0
 223 00b5 E0        		.byte	-32
 224 00b6 01        		.byte	1
 225 00b7 C0        		.byte	-64
 226 00b8 03        		.byte	3
 227 00b9 80        		.byte	-128
 228 00ba 07        		.byte	7
 229 00bb 00        		.byte	0
 230 00bc 1F        		.byte	31
 231 00bd FF        		.byte	-1
 232 00be 1F        		.byte	31
 233 00bf FF        		.byte	-1
 234               	.global	SCROLL_STYLE3
 237               	SCROLL_STYLE3:
 238 00c0 7C        		.byte	124
 239 00c1 82        		.byte	-126
 240 00c2 82        		.byte	-126
 241 00c3 82        		.byte	-126
 242 00c4 82        		.byte	-126
 243 00c5 82        		.byte	-126
 244 00c6 82        		.byte	-126
 245 00c7 82        		.byte	-126
 246 00c8 82        		.byte	-126
 247 00c9 7C        		.byte	124
 248 00ca 10        		.byte	16
 249 00cb 30        		.byte	48
 250 00cc 50        		.byte	80
 251 00cd 10        		.byte	16
 252 00ce 10        		.byte	16
 253 00cf 10        		.byte	16
 254 00d0 10        		.byte	16
 255 00d1 10        		.byte	16
 256 00d2 10        		.byte	16
 257 00d3 FE        		.byte	-2
 258 00d4 7C        		.byte	124
 259 00d5 82        		.byte	-126
 260 00d6 02        		.byte	2
 261 00d7 02        		.byte	2
 262 00d8 02        		.byte	2
 263 00d9 7C        		.byte	124
 264 00da 80        		.byte	-128
 265 00db 80        		.byte	-128
 266 00dc 80        		.byte	-128
 267 00dd FE        		.byte	-2
 268 00de 7C        		.byte	124
 269 00df 82        		.byte	-126
 270 00e0 02        		.byte	2
 271 00e1 02        		.byte	2
 272 00e2 02        		.byte	2
 273 00e3 7C        		.byte	124
 274 00e4 02        		.byte	2
 275 00e5 02        		.byte	2
 276 00e6 82        		.byte	-126
 277 00e7 7C        		.byte	124
 278 00e8 88        		.byte	-120
 279 00e9 88        		.byte	-120
 280 00ea 88        		.byte	-120
 281 00eb 88        		.byte	-120
 282 00ec 88        		.byte	-120
 283 00ed FE        		.byte	-2
 284 00ee 08        		.byte	8
 285 00ef 08        		.byte	8
 286 00f0 08        		.byte	8
 287 00f1 08        		.byte	8
 288 00f2 FE        		.byte	-2
 289 00f3 80        		.byte	-128
 290 00f4 80        		.byte	-128
 291 00f5 80        		.byte	-128
 292 00f6 80        		.byte	-128
 293 00f7 FC        		.byte	-4
 294 00f8 02        		.byte	2
 295 00f9 02        		.byte	2
 296 00fa 82        		.byte	-126
 297 00fb 7C        		.byte	124
 298 00fc 80        		.byte	-128
 299 00fd 80        		.byte	-128
 300 00fe 80        		.byte	-128
 301 00ff 80        		.byte	-128
 302 0100 80        		.byte	-128
 303 0101 FC        		.byte	-4
 304 0102 82        		.byte	-126
 305 0103 82        		.byte	-126
 306 0104 82        		.byte	-126
 307 0105 7C        		.byte	124
 308 0106 FE        		.byte	-2
 309 0107 02        		.byte	2
 310 0108 02        		.byte	2
 311 0109 02        		.byte	2
 312 010a 02        		.byte	2
 313 010b 02        		.byte	2
 314 010c 02        		.byte	2
 315 010d 02        		.byte	2
 316 010e 02        		.byte	2
 317 010f 02        		.byte	2
 318 0110 7C        		.byte	124
 319 0111 82        		.byte	-126
 320 0112 82        		.byte	-126
 321 0113 82        		.byte	-126
 322 0114 82        		.byte	-126
 323 0115 FE        		.byte	-2
 324 0116 82        		.byte	-126
 325 0117 82        		.byte	-126
 326 0118 82        		.byte	-126
 327 0119 7C        		.byte	124
 328 011a 7C        		.byte	124
 329 011b 82        		.byte	-126
 330 011c 82        		.byte	-126
 331 011d 82        		.byte	-126
 332 011e 82        		.byte	-126
 333 011f 7E        		.byte	126
 334 0120 02        		.byte	2
 335 0121 02        		.byte	2
 336 0122 02        		.byte	2
 337 0123 02        		.byte	2
 338 0124 40        		.byte	64
 339 0125 7E        		.byte	126
 340 0126 88        		.byte	-120
 341 0127 7E        		.byte	126
 342 0128 48        		.byte	72
 343 0129 48        		.byte	72
 344 012a FE        		.byte	-2
 345 012b 08        		.byte	8
 346 012c 08        		.byte	8
 347 012d 08        		.byte	8
 348 012e 7E        		.byte	126
 349 012f 42        		.byte	66
 350 0130 42        		.byte	66
 351 0131 7E        		.byte	126
 352 0132 42        		.byte	66
 353 0133 42        		.byte	66
 354 0134 7E        		.byte	126
 355 0135 42        		.byte	66
 356 0136 46        		.byte	70
 357 0137 82        		.byte	-126
 358 0138 7E        		.byte	126
 359 0139 92        		.byte	-110
 360 013a BA        		.byte	-70
 361 013b 92        		.byte	-110
 362 013c BA        		.byte	-70
 363 013d 82        		.byte	-126
 364 013e BA        		.byte	-70
 365 013f AA        		.byte	-86
 366 0140 BA        		.byte	-70
 367 0141 86        		.byte	-122
 368 0142 BC        		.byte	-68
 369 0143 42        		.byte	66
 370 0144 40        		.byte	64
 371 0145 40        		.byte	64
 372 0146 40        		.byte	64
 373 0147 40        		.byte	64
 374 0148 40        		.byte	64
 375 0149 40        		.byte	64
 376 014a 42        		.byte	66
 377 014b 3C        		.byte	60
 378 014c 00        		.byte	0
 379 014d 00        		.byte	0
 380 014e 00        		.byte	0
 381 014f 00        		.byte	0
 382 0150 FE        		.byte	-2
 383 0151 00        		.byte	0
 384 0152 00        		.byte	0
 385 0153 00        		.byte	0
 386 0154 00        		.byte	0
 387 0155 00        		.byte	0
 388 0156 00        		.byte	0
 389 0157 00        		.byte	0
 390 0158 00        		.byte	0
 391 0159 7E        		.byte	126
 392 015a 00        		.byte	0
 393 015b 00        		.byte	0
 394 015c 00        		.byte	0
 395 015d FF        		.byte	-1
 396 015e 00        		.byte	0
 397 015f 00        		.byte	0
 398 0160 00        		.byte	0
 399 0161 7E        		.byte	126
 400 0162 00        		.byte	0
 401 0163 00        		.byte	0
 402 0164 00        		.byte	0
 403 0165 3C        		.byte	60
 404 0166 00        		.byte	0
 405 0167 00        		.byte	0
 406 0168 00        		.byte	0
 407 0169 FF        		.byte	-1
 408 016a FF        		.byte	-1
 409 016b A9        		.byte	-87
 410 016c A9        		.byte	-87
 411 016d A9        		.byte	-87
 412 016e A9        		.byte	-87
 413 016f A9        		.byte	-87
 414 0170 C7        		.byte	-57
 415 0171 81        		.byte	-127
 416 0172 FF        		.byte	-1
 417 0173 81        		.byte	-127
 418 0174 7E        		.byte	126
 419 0175 10        		.byte	16
 420 0176 10        		.byte	16
 421 0177 10        		.byte	16
 422 0178 7C        		.byte	124
 423 0179 14        		.byte	20
 424 017a 14        		.byte	20
 425 017b 14        		.byte	20
 426 017c 14        		.byte	20
 427 017d FF        		.byte	-1
 428 017e 20        		.byte	32
 429 017f 10        		.byte	16
 430 0180 FE        		.byte	-2
 431 0181 00        		.byte	0
 432 0182 44        		.byte	68
 433 0183 44        		.byte	68
 434 0184 44        		.byte	68
 435 0185 44        		.byte	68
 436 0186 44        		.byte	68
 437 0187 82        		.byte	-126
 438 0188 7E        		.byte	126
 439 0189 42        		.byte	66
 440 018a 42        		.byte	66
 441 018b 42        		.byte	66
 442 018c 7E        		.byte	126
 443 018d 42        		.byte	66
 444 018e 42        		.byte	66
 445 018f 42        		.byte	66
 446 0190 42        		.byte	66
 447 0191 7E        		.byte	126
 448 0192 00        		.byte	0
 449 0193 00        		.byte	0
 450 0194 00        		.byte	0
 451 0195 00        		.byte	0
 452 0196 00        		.byte	0
 453 0197 00        		.byte	0
 454 0198 00        		.byte	0
 455 0199 00        		.byte	0
 456 019a 18        		.byte	24
 457 019b 18        		.byte	24
 458 019c 00        		.byte	0
 459 019d 00        		.byte	0
 460 019e 00        		.byte	0
 461 019f 00        		.byte	0
 462 01a0 00        		.byte	0
 463 01a1 00        		.byte	0
 464 01a2 00        		.byte	0
 465 01a3 00        		.byte	0
 466 01a4 00        		.byte	0
 467 01a5 00        		.byte	0
 468               	.global	SCROLL_STYLE2
 471               	SCROLL_STYLE2:
 472 01a6 FE        		.byte	-2
 473 01a7 82        		.byte	-126
 474 01a8 82        		.byte	-126
 475 01a9 82        		.byte	-126
 476 01aa 82        		.byte	-126
 477 01ab 82        		.byte	-126
 478 01ac 82        		.byte	-126
 479 01ad 82        		.byte	-126
 480 01ae 82        		.byte	-126
 481 01af FE        		.byte	-2
 482 01b0 10        		.byte	16
 483 01b1 10        		.byte	16
 484 01b2 10        		.byte	16
 485 01b3 10        		.byte	16
 486 01b4 10        		.byte	16
 487 01b5 10        		.byte	16
 488 01b6 10        		.byte	16
 489 01b7 10        		.byte	16
 490 01b8 10        		.byte	16
 491 01b9 10        		.byte	16
 492 01ba FE        		.byte	-2
 493 01bb 02        		.byte	2
 494 01bc 02        		.byte	2
 495 01bd 02        		.byte	2
 496 01be 02        		.byte	2
 497 01bf FE        		.byte	-2
 498 01c0 80        		.byte	-128
 499 01c1 80        		.byte	-128
 500 01c2 80        		.byte	-128
 501 01c3 FE        		.byte	-2
 502 01c4 FE        		.byte	-2
 503 01c5 02        		.byte	2
 504 01c6 02        		.byte	2
 505 01c7 02        		.byte	2
 506 01c8 02        		.byte	2
 507 01c9 FE        		.byte	-2
 508 01ca 02        		.byte	2
 509 01cb 02        		.byte	2
 510 01cc 02        		.byte	2
 511 01cd FE        		.byte	-2
 512 01ce 82        		.byte	-126
 513 01cf 82        		.byte	-126
 514 01d0 82        		.byte	-126
 515 01d1 82        		.byte	-126
 516 01d2 82        		.byte	-126
 517 01d3 FE        		.byte	-2
 518 01d4 02        		.byte	2
 519 01d5 02        		.byte	2
 520 01d6 02        		.byte	2
 521 01d7 02        		.byte	2
 522 01d8 FE        		.byte	-2
 523 01d9 80        		.byte	-128
 524 01da 80        		.byte	-128
 525 01db 80        		.byte	-128
 526 01dc 80        		.byte	-128
 527 01dd FE        		.byte	-2
 528 01de 02        		.byte	2
 529 01df 02        		.byte	2
 530 01e0 02        		.byte	2
 531 01e1 FE        		.byte	-2
 532 01e2 FE        		.byte	-2
 533 01e3 80        		.byte	-128
 534 01e4 80        		.byte	-128
 535 01e5 80        		.byte	-128
 536 01e6 80        		.byte	-128
 537 01e7 FE        		.byte	-2
 538 01e8 82        		.byte	-126
 539 01e9 82        		.byte	-126
 540 01ea 82        		.byte	-126
 541 01eb FE        		.byte	-2
 542 01ec FE        		.byte	-2
 543 01ed 02        		.byte	2
 544 01ee 02        		.byte	2
 545 01ef 02        		.byte	2
 546 01f0 02        		.byte	2
 547 01f1 02        		.byte	2
 548 01f2 02        		.byte	2
 549 01f3 02        		.byte	2
 550 01f4 02        		.byte	2
 551 01f5 02        		.byte	2
 552 01f6 FE        		.byte	-2
 553 01f7 82        		.byte	-126
 554 01f8 82        		.byte	-126
 555 01f9 82        		.byte	-126
 556 01fa 82        		.byte	-126
 557 01fb FE        		.byte	-2
 558 01fc 82        		.byte	-126
 559 01fd 82        		.byte	-126
 560 01fe 82        		.byte	-126
 561 01ff FE        		.byte	-2
 562 0200 FE        		.byte	-2
 563 0201 82        		.byte	-126
 564 0202 82        		.byte	-126
 565 0203 82        		.byte	-126
 566 0204 82        		.byte	-126
 567 0205 FE        		.byte	-2
 568 0206 02        		.byte	2
 569 0207 02        		.byte	2
 570 0208 02        		.byte	2
 571 0209 FE        		.byte	-2
 572 020a 80        		.byte	-128
 573 020b FE        		.byte	-2
 574 020c 88        		.byte	-120
 575 020d 7E        		.byte	126
 576 020e 48        		.byte	72
 577 020f 48        		.byte	72
 578 0210 FE        		.byte	-2
 579 0211 08        		.byte	8
 580 0212 08        		.byte	8
 581 0213 08        		.byte	8
 582 0214 7E        		.byte	126
 583 0215 42        		.byte	66
 584 0216 42        		.byte	66
 585 0217 7E        		.byte	126
 586 0218 42        		.byte	66
 587 0219 42        		.byte	66
 588 021a 7E        		.byte	126
 589 021b 42        		.byte	66
 590 021c 42        		.byte	66
 591 021d 46        		.byte	70
 592 021e FE        		.byte	-2
 593 021f 92        		.byte	-110
 594 0220 BA        		.byte	-70
 595 0221 92        		.byte	-110
 596 0222 BA        		.byte	-70
 597 0223 82        		.byte	-126
 598 0224 BA        		.byte	-70
 599 0225 AA        		.byte	-86
 600 0226 BA        		.byte	-70
 601 0227 86        		.byte	-122
 602 0228 DF        		.byte	-33
 603 0229 D0        		.byte	-48
 604 022a 10        		.byte	16
 605 022b 10        		.byte	16
 606 022c 10        		.byte	16
 607 022d 10        		.byte	16
 608 022e 10        		.byte	16
 609 022f 10        		.byte	16
 610 0230 10        		.byte	16
 611 0231 1F        		.byte	31
 612 0232 00        		.byte	0
 613 0233 00        		.byte	0
 614 0234 00        		.byte	0
 615 0235 00        		.byte	0
 616 0236 FE        		.byte	-2
 617 0237 00        		.byte	0
 618 0238 00        		.byte	0
 619 0239 00        		.byte	0
 620 023a 00        		.byte	0
 621 023b 00        		.byte	0
 622 023c 00        		.byte	0
 623 023d 7C        		.byte	124
 624 023e 00        		.byte	0
 625 023f 00        		.byte	0
 626 0240 00        		.byte	0
 627 0241 00        		.byte	0
 628 0242 00        		.byte	0
 629 0243 00        		.byte	0
 630 0244 00        		.byte	0
 631 0245 FE        		.byte	-2
 632 0246 FE        		.byte	-2
 633 0247 00        		.byte	0
 634 0248 00        		.byte	0
 635 0249 00        		.byte	0
 636 024a 7C        		.byte	124
 637 024b 00        		.byte	0
 638 024c 00        		.byte	0
 639 024d 00        		.byte	0
 640 024e 00        		.byte	0
 641 024f FE        		.byte	-2
 642 0250 FE        		.byte	-2
 643 0251 AA        		.byte	-86
 644 0252 AA        		.byte	-86
 645 0253 AA        		.byte	-86
 646 0254 AA        		.byte	-86
 647 0255 EE        		.byte	-18
 648 0256 82        		.byte	-126
 649 0257 82        		.byte	-126
 650 0258 82        		.byte	-126
 651 0259 FE        		.byte	-2
 652 025a FE        		.byte	-2
 653 025b 20        		.byte	32
 654 025c 20        		.byte	32
 655 025d 20        		.byte	32
 656 025e FC        		.byte	-4
 657 025f 24        		.byte	36
 658 0260 24        		.byte	36
 659 0261 24        		.byte	36
 660 0262 24        		.byte	36
 661 0263 FE        		.byte	-2
 662 0264 20        		.byte	32
 663 0265 10        		.byte	16
 664 0266 10        		.byte	16
 665 0267 FE        		.byte	-2
 666 0268 44        		.byte	68
 667 0269 44        		.byte	68
 668 026a 44        		.byte	68
 669 026b 44        		.byte	68
 670 026c 44        		.byte	68
 671 026d 44        		.byte	68
 672 026e 7E        		.byte	126
 673 026f 42        		.byte	66
 674 0270 42        		.byte	66
 675 0271 42        		.byte	66
 676 0272 7E        		.byte	126
 677 0273 42        		.byte	66
 678 0274 42        		.byte	66
 679 0275 42        		.byte	66
 680 0276 42        		.byte	66
 681 0277 7E        		.byte	126
 682 0278 00        		.byte	0
 683 0279 00        		.byte	0
 684 027a 00        		.byte	0
 685 027b 00        		.byte	0
 686 027c 00        		.byte	0
 687 027d 00        		.byte	0
 688 027e 00        		.byte	0
 689 027f 00        		.byte	0
 690 0280 18        		.byte	24
 691 0281 18        		.byte	24
 692 0282 00        		.byte	0
 693 0283 00        		.byte	0
 694 0284 00        		.byte	0
 695 0285 00        		.byte	0
 696 0286 00        		.byte	0
 697 0287 00        		.byte	0
 698 0288 00        		.byte	0
 699 0289 00        		.byte	0
 700 028a 00        		.byte	0
 701 028b 00        		.byte	0
 702               	.global	SCROLL_STYLE1
 705               	SCROLL_STYLE1:
 706 028c 7C        		.byte	124
 707 028d 82        		.byte	-126
 708 028e 82        		.byte	-126
 709 028f 82        		.byte	-126
 710 0290 82        		.byte	-126
 711 0291 82        		.byte	-126
 712 0292 82        		.byte	-126
 713 0293 82        		.byte	-126
 714 0294 82        		.byte	-126
 715 0295 7C        		.byte	124
 716 0296 10        		.byte	16
 717 0297 30        		.byte	48
 718 0298 50        		.byte	80
 719 0299 10        		.byte	16
 720 029a 10        		.byte	16
 721 029b 10        		.byte	16
 722 029c 10        		.byte	16
 723 029d 10        		.byte	16
 724 029e 10        		.byte	16
 725 029f FE        		.byte	-2
 726 02a0 38        		.byte	56
 727 02a1 44        		.byte	68
 728 02a2 82        		.byte	-126
 729 02a3 82        		.byte	-126
 730 02a4 04        		.byte	4
 731 02a5 08        		.byte	8
 732 02a6 10        		.byte	16
 733 02a7 20        		.byte	32
 734 02a8 40        		.byte	64
 735 02a9 FE        		.byte	-2
 736 02aa 7C        		.byte	124
 737 02ab 82        		.byte	-126
 738 02ac 02        		.byte	2
 739 02ad 02        		.byte	2
 740 02ae 3C        		.byte	60
 741 02af 02        		.byte	2
 742 02b0 02        		.byte	2
 743 02b1 82        		.byte	-126
 744 02b2 82        		.byte	-126
 745 02b3 7C        		.byte	124
 746 02b4 06        		.byte	6
 747 02b5 0C        		.byte	12
 748 02b6 14        		.byte	20
 749 02b7 24        		.byte	36
 750 02b8 44        		.byte	68
 751 02b9 84        		.byte	-124
 752 02ba FE        		.byte	-2
 753 02bb 04        		.byte	4
 754 02bc 04        		.byte	4
 755 02bd 04        		.byte	4
 756 02be FE        		.byte	-2
 757 02bf 80        		.byte	-128
 758 02c0 80        		.byte	-128
 759 02c1 FC        		.byte	-4
 760 02c2 02        		.byte	2
 761 02c3 02        		.byte	2
 762 02c4 02        		.byte	2
 763 02c5 82        		.byte	-126
 764 02c6 82        		.byte	-126
 765 02c7 7C        		.byte	124
 766 02c8 7C        		.byte	124
 767 02c9 82        		.byte	-126
 768 02ca 80        		.byte	-128
 769 02cb 80        		.byte	-128
 770 02cc FC        		.byte	-4
 771 02cd 82        		.byte	-126
 772 02ce 82        		.byte	-126
 773 02cf 82        		.byte	-126
 774 02d0 82        		.byte	-126
 775 02d1 7C        		.byte	124
 776 02d2 7E        		.byte	126
 777 02d3 82        		.byte	-126
 778 02d4 02        		.byte	2
 779 02d5 04        		.byte	4
 780 02d6 08        		.byte	8
 781 02d7 10        		.byte	16
 782 02d8 20        		.byte	32
 783 02d9 20        		.byte	32
 784 02da 20        		.byte	32
 785 02db 20        		.byte	32
 786 02dc 7C        		.byte	124
 787 02dd 82        		.byte	-126
 788 02de 82        		.byte	-126
 789 02df 82        		.byte	-126
 790 02e0 7C        		.byte	124
 791 02e1 82        		.byte	-126
 792 02e2 82        		.byte	-126
 793 02e3 82        		.byte	-126
 794 02e4 82        		.byte	-126
 795 02e5 7C        		.byte	124
 796 02e6 7C        		.byte	124
 797 02e7 82        		.byte	-126
 798 02e8 82        		.byte	-126
 799 02e9 82        		.byte	-126
 800 02ea 82        		.byte	-126
 801 02eb 7E        		.byte	126
 802 02ec 02        		.byte	2
 803 02ed 02        		.byte	2
 804 02ee 82        		.byte	-126
 805 02ef 7C        		.byte	124
 806 02f0 40        		.byte	64
 807 02f1 7E        		.byte	126
 808 02f2 88        		.byte	-120
 809 02f3 7E        		.byte	126
 810 02f4 48        		.byte	72
 811 02f5 48        		.byte	72
 812 02f6 FE        		.byte	-2
 813 02f7 08        		.byte	8
 814 02f8 08        		.byte	8
 815 02f9 08        		.byte	8
 816 02fa 7E        		.byte	126
 817 02fb 42        		.byte	66
 818 02fc 42        		.byte	66
 819 02fd 7E        		.byte	126
 820 02fe 42        		.byte	66
 821 02ff 42        		.byte	66
 822 0300 7E        		.byte	126
 823 0301 42        		.byte	66
 824 0302 46        		.byte	70
 825 0303 82        		.byte	-126
 826 0304 7E        		.byte	126
 827 0305 92        		.byte	-110
 828 0306 BA        		.byte	-70
 829 0307 92        		.byte	-110
 830 0308 BA        		.byte	-70
 831 0309 82        		.byte	-126
 832 030a BA        		.byte	-70
 833 030b AA        		.byte	-86
 834 030c BA        		.byte	-70
 835 030d 86        		.byte	-122
 836 030e 08        		.byte	8
 837 030f 7E        		.byte	126
 838 0310 54        		.byte	84
 839 0311 7E        		.byte	126
 840 0312 5C        		.byte	92
 841 0313 40        		.byte	64
 842 0314 5C        		.byte	92
 843 0315 54        		.byte	84
 844 0316 48        		.byte	72
 845 0317 96        		.byte	-106
 846 0318 00        		.byte	0
 847 0319 00        		.byte	0
 848 031a 00        		.byte	0
 849 031b 00        		.byte	0
 850 031c FE        		.byte	-2
 851 031d 00        		.byte	0
 852 031e 00        		.byte	0
 853 031f 00        		.byte	0
 854 0320 00        		.byte	0
 855 0321 00        		.byte	0
 856 0322 00        		.byte	0
 857 0323 00        		.byte	0
 858 0324 00        		.byte	0
 859 0325 7E        		.byte	126
 860 0326 00        		.byte	0
 861 0327 00        		.byte	0
 862 0328 00        		.byte	0
 863 0329 FF        		.byte	-1
 864 032a 00        		.byte	0
 865 032b 00        		.byte	0
 866 032c 00        		.byte	0
 867 032d 7E        		.byte	126
 868 032e 00        		.byte	0
 869 032f 00        		.byte	0
 870 0330 00        		.byte	0
 871 0331 3C        		.byte	60
 872 0332 00        		.byte	0
 873 0333 00        		.byte	0
 874 0334 00        		.byte	0
 875 0335 FF        		.byte	-1
 876 0336 FF        		.byte	-1
 877 0337 A9        		.byte	-87
 878 0338 A9        		.byte	-87
 879 0339 A9        		.byte	-87
 880 033a A9        		.byte	-87
 881 033b A9        		.byte	-87
 882 033c C7        		.byte	-57
 883 033d 81        		.byte	-127
 884 033e FF        		.byte	-1
 885 033f 81        		.byte	-127
 886 0340 7E        		.byte	126
 887 0341 10        		.byte	16
 888 0342 10        		.byte	16
 889 0343 10        		.byte	16
 890 0344 7C        		.byte	124
 891 0345 14        		.byte	20
 892 0346 14        		.byte	20
 893 0347 14        		.byte	20
 894 0348 14        		.byte	20
 895 0349 FF        		.byte	-1
 896 034a 30        		.byte	48
 897 034b 18        		.byte	24
 898 034c 08        		.byte	8
 899 034d FF        		.byte	-1
 900 034e 00        		.byte	0
 901 034f 24        		.byte	36
 902 0350 24        		.byte	36
 903 0351 66        		.byte	102
 904 0352 66        		.byte	102
 905 0353 C2        		.byte	-62
 906 0354 7F        		.byte	127
 907 0355 41        		.byte	65
 908 0356 41        		.byte	65
 909 0357 41        		.byte	65
 910 0358 7F        		.byte	127
 911 0359 41        		.byte	65
 912 035a 41        		.byte	65
 913 035b 41        		.byte	65
 914 035c 41        		.byte	65
 915 035d 7F        		.byte	127
 916 035e 00        		.byte	0
 917 035f 00        		.byte	0
 918 0360 00        		.byte	0
 919 0361 00        		.byte	0
 920 0362 00        		.byte	0
 921 0363 00        		.byte	0
 922 0364 00        		.byte	0
 923 0365 00        		.byte	0
 924 0366 18        		.byte	24
 925 0367 18        		.byte	24
 926 0368 00        		.byte	0
 927 0369 00        		.byte	0
 928 036a 00        		.byte	0
 929 036b 00        		.byte	0
 930 036c 00        		.byte	0
 931 036d 00        		.byte	0
 932 036e 00        		.byte	0
 933 036f 00        		.byte	0
 934 0370 00        		.byte	0
 935 0371 00        		.byte	0
 936               	.global	SCROLL
 939               	SCROLL:
 940 0372 7C        		.byte	124
 941 0373 82        		.byte	-126
 942 0374 82        		.byte	-126
 943 0375 82        		.byte	-126
 944 0376 82        		.byte	-126
 945 0377 82        		.byte	-126
 946 0378 82        		.byte	-126
 947 0379 82        		.byte	-126
 948 037a 82        		.byte	-126
 949 037b 7C        		.byte	124
 950 037c 10        		.byte	16
 951 037d 30        		.byte	48
 952 037e 50        		.byte	80
 953 037f 10        		.byte	16
 954 0380 10        		.byte	16
 955 0381 10        		.byte	16
 956 0382 10        		.byte	16
 957 0383 10        		.byte	16
 958 0384 10        		.byte	16
 959 0385 FE        		.byte	-2
 960 0386 38        		.byte	56
 961 0387 44        		.byte	68
 962 0388 82        		.byte	-126
 963 0389 82        		.byte	-126
 964 038a 04        		.byte	4
 965 038b 08        		.byte	8
 966 038c 10        		.byte	16
 967 038d 20        		.byte	32
 968 038e 40        		.byte	64
 969 038f FE        		.byte	-2
 970 0390 7C        		.byte	124
 971 0391 82        		.byte	-126
 972 0392 02        		.byte	2
 973 0393 02        		.byte	2
 974 0394 3C        		.byte	60
 975 0395 02        		.byte	2
 976 0396 02        		.byte	2
 977 0397 82        		.byte	-126
 978 0398 82        		.byte	-126
 979 0399 7C        		.byte	124
 980 039a 06        		.byte	6
 981 039b 0C        		.byte	12
 982 039c 14        		.byte	20
 983 039d 24        		.byte	36
 984 039e 44        		.byte	68
 985 039f 84        		.byte	-124
 986 03a0 FE        		.byte	-2
 987 03a1 04        		.byte	4
 988 03a2 04        		.byte	4
 989 03a3 04        		.byte	4
 990 03a4 FE        		.byte	-2
 991 03a5 80        		.byte	-128
 992 03a6 80        		.byte	-128
 993 03a7 FC        		.byte	-4
 994 03a8 02        		.byte	2
 995 03a9 02        		.byte	2
 996 03aa 02        		.byte	2
 997 03ab 82        		.byte	-126
 998 03ac 82        		.byte	-126
 999 03ad 7C        		.byte	124
 1000 03ae 7C        		.byte	124
 1001 03af 82        		.byte	-126
 1002 03b0 80        		.byte	-128
 1003 03b1 80        		.byte	-128
 1004 03b2 FC        		.byte	-4
 1005 03b3 82        		.byte	-126
 1006 03b4 82        		.byte	-126
 1007 03b5 82        		.byte	-126
 1008 03b6 82        		.byte	-126
 1009 03b7 7C        		.byte	124
 1010 03b8 7E        		.byte	126
 1011 03b9 82        		.byte	-126
 1012 03ba 02        		.byte	2
 1013 03bb 04        		.byte	4
 1014 03bc 08        		.byte	8
 1015 03bd 10        		.byte	16
 1016 03be 20        		.byte	32
 1017 03bf 20        		.byte	32
 1018 03c0 20        		.byte	32
 1019 03c1 20        		.byte	32
 1020 03c2 7C        		.byte	124
 1021 03c3 82        		.byte	-126
 1022 03c4 82        		.byte	-126
 1023 03c5 82        		.byte	-126
 1024 03c6 7C        		.byte	124
 1025 03c7 82        		.byte	-126
 1026 03c8 82        		.byte	-126
 1027 03c9 82        		.byte	-126
 1028 03ca 82        		.byte	-126
 1029 03cb 7C        		.byte	124
 1030 03cc 7C        		.byte	124
 1031 03cd 82        		.byte	-126
 1032 03ce 82        		.byte	-126
 1033 03cf 82        		.byte	-126
 1034 03d0 82        		.byte	-126
 1035 03d1 7E        		.byte	126
 1036 03d2 02        		.byte	2
 1037 03d3 02        		.byte	2
 1038 03d4 82        		.byte	-126
 1039 03d5 7C        		.byte	124
 1040 03d6 40        		.byte	64
 1041 03d7 7E        		.byte	126
 1042 03d8 88        		.byte	-120
 1043 03d9 7E        		.byte	126
 1044 03da 48        		.byte	72
 1045 03db 48        		.byte	72
 1046 03dc FE        		.byte	-2
 1047 03dd 08        		.byte	8
 1048 03de 08        		.byte	8
 1049 03df 08        		.byte	8
 1050 03e0 7E        		.byte	126
 1051 03e1 42        		.byte	66
 1052 03e2 42        		.byte	66
 1053 03e3 7E        		.byte	126
 1054 03e4 42        		.byte	66
 1055 03e5 42        		.byte	66
 1056 03e6 7E        		.byte	126
 1057 03e7 42        		.byte	66
 1058 03e8 46        		.byte	70
 1059 03e9 82        		.byte	-126
 1060 03ea 7E        		.byte	126
 1061 03eb 92        		.byte	-110
 1062 03ec BA        		.byte	-70
 1063 03ed 92        		.byte	-110
 1064 03ee BA        		.byte	-70
 1065 03ef 82        		.byte	-126
 1066 03f0 BA        		.byte	-70
 1067 03f1 AA        		.byte	-86
 1068 03f2 BA        		.byte	-70
 1069 03f3 86        		.byte	-122
 1070 03f4 08        		.byte	8
 1071 03f5 7E        		.byte	126
 1072 03f6 54        		.byte	84
 1073 03f7 7E        		.byte	126
 1074 03f8 5C        		.byte	92
 1075 03f9 40        		.byte	64
 1076 03fa 5C        		.byte	92
 1077 03fb 54        		.byte	84
 1078 03fc 48        		.byte	72
 1079 03fd 96        		.byte	-106
 1080 03fe 00        		.byte	0
 1081 03ff 00        		.byte	0
 1082 0400 00        		.byte	0
 1083 0401 00        		.byte	0
 1084 0402 FE        		.byte	-2
 1085 0403 00        		.byte	0
 1086 0404 00        		.byte	0
 1087 0405 00        		.byte	0
 1088 0406 00        		.byte	0
 1089 0407 00        		.byte	0
 1090 0408 00        		.byte	0
 1091 0409 00        		.byte	0
 1092 040a 00        		.byte	0
 1093 040b 7E        		.byte	126
 1094 040c 00        		.byte	0
 1095 040d 00        		.byte	0
 1096 040e 00        		.byte	0
 1097 040f FF        		.byte	-1
 1098 0410 00        		.byte	0
 1099 0411 00        		.byte	0
 1100 0412 00        		.byte	0
 1101 0413 7E        		.byte	126
 1102 0414 00        		.byte	0
 1103 0415 00        		.byte	0
 1104 0416 00        		.byte	0
 1105 0417 3C        		.byte	60
 1106 0418 00        		.byte	0
 1107 0419 00        		.byte	0
 1108 041a 00        		.byte	0
 1109 041b FF        		.byte	-1
 1110 041c FF        		.byte	-1
 1111 041d A9        		.byte	-87
 1112 041e A9        		.byte	-87
 1113 041f A9        		.byte	-87
 1114 0420 A9        		.byte	-87
 1115 0421 A9        		.byte	-87
 1116 0422 C7        		.byte	-57
 1117 0423 81        		.byte	-127
 1118 0424 FF        		.byte	-1
 1119 0425 81        		.byte	-127
 1120 0426 7E        		.byte	126
 1121 0427 10        		.byte	16
 1122 0428 10        		.byte	16
 1123 0429 10        		.byte	16
 1124 042a 7C        		.byte	124
 1125 042b 14        		.byte	20
 1126 042c 14        		.byte	20
 1127 042d 14        		.byte	20
 1128 042e 14        		.byte	20
 1129 042f FF        		.byte	-1
 1130 0430 30        		.byte	48
 1131 0431 18        		.byte	24
 1132 0432 08        		.byte	8
 1133 0433 FF        		.byte	-1
 1134 0434 00        		.byte	0
 1135 0435 24        		.byte	36
 1136 0436 24        		.byte	36
 1137 0437 66        		.byte	102
 1138 0438 66        		.byte	102
 1139 0439 C2        		.byte	-62
 1140 043a 7F        		.byte	127
 1141 043b 41        		.byte	65
 1142 043c 41        		.byte	65
 1143 043d 41        		.byte	65
 1144 043e 7F        		.byte	127
 1145 043f 41        		.byte	65
 1146 0440 41        		.byte	65
 1147 0441 41        		.byte	65
 1148 0442 41        		.byte	65
 1149 0443 7F        		.byte	127
 1150 0444 00        		.byte	0
 1151 0445 00        		.byte	0
 1152 0446 00        		.byte	0
 1153 0447 00        		.byte	0
 1154 0448 00        		.byte	0
 1155 0449 00        		.byte	0
 1156 044a 00        		.byte	0
 1157 044b 00        		.byte	0
 1158 044c 18        		.byte	24
 1159 044d 18        		.byte	24
 1160 044e 00        		.byte	0
 1161 044f 00        		.byte	0
 1162 0450 00        		.byte	0
 1163 0451 00        		.byte	0
 1164 0452 00        		.byte	0
 1165 0453 00        		.byte	0
 1166 0454 00        		.byte	0
 1167 0455 00        		.byte	0
 1168 0456 00        		.byte	0
 1169 0457 00        		.byte	0
 1170 0458 02        		.byte	2
 1171 0459 E2        		.byte	-30
 1172 045a BF        		.byte	-65
 1173 045b A2        		.byte	-94
 1174 045c EA        		.byte	-22
 1175 045d AA        		.byte	-86
 1176 045e A2        		.byte	-94
 1177 045f AA        		.byte	-86
 1178 0460 E6        		.byte	-26
 1179 0461 02        		.byte	2
 1180 0462 38        		.byte	56
 1181 0463 24        		.byte	36
 1182 0464 24        		.byte	36
 1183 0465 42        		.byte	66
 1184 0466 BD        		.byte	-67
 1185 0467 24        		.byte	36
 1186 0468 24        		.byte	36
 1187 0469 24        		.byte	36
 1188 046a 44        		.byte	68
 1189 046b 8C        		.byte	-116
 1190 046c 10        		.byte	16
 1191 046d FF        		.byte	-1
 1192 046e 3C        		.byte	60
 1193 046f 24        		.byte	36
 1194 0470 3C        		.byte	60
 1195 0471 FF        		.byte	-1
 1196 0472 81        		.byte	-127
 1197 0473 3C        		.byte	60
 1198 0474 24        		.byte	36
 1199 0475 47        		.byte	71
 1200 0476 20        		.byte	32
 1201 0477 3E        		.byte	62
 1202 0478 40        		.byte	64
 1203 0479 BE        		.byte	-66
 1204 047a 2A        		.byte	42
 1205 047b FF        		.byte	-1
 1206 047c 32        		.byte	50
 1207 047d 7E        		.byte	126
 1208 047e 02        		.byte	2
 1209 047f 04        		.byte	4
 1210 0480 40        		.byte	64
 1211 0481 40        		.byte	64
 1212 0482 40        		.byte	64
 1213 0483 F7        		.byte	-9
 1214 0484 55        		.byte	85
 1215 0485 55        		.byte	85
 1216 0486 55        		.byte	85
 1217 0487 57        		.byte	87
 1218 0488 50        		.byte	80
 1219 0489 B0        		.byte	-80
 1220 048a 5C        		.byte	92
 1221 048b 14        		.byte	20
 1222 048c D4        		.byte	-44
 1223 048d 76        		.byte	118
 1224 048e 40        		.byte	64
 1225 048f 5C        		.byte	92
 1226 0490 54        		.byte	84
 1227 0491 54        		.byte	84
 1228 0492 68        		.byte	104
 1229 0493 56        		.byte	86
 1230 0494 7E        		.byte	126
 1231 0495 5A        		.byte	90
 1232 0496 7E        		.byte	126
 1233 0497 FF        		.byte	-1
 1234 0498 7E        		.byte	126
 1235 0499 42        		.byte	66
 1236 049a 7E        		.byte	126
 1237 049b 7E        		.byte	126
 1238 049c 42        		.byte	66
 1239 049d FF        		.byte	-1
 1240 049e 00        		.byte	0
 1241 049f 00        		.byte	0
 1242 04a0 00        		.byte	0
 1243 04a1 00        		.byte	0
 1244 04a2 00        		.byte	0
 1245 04a3 60        		.byte	96
 1246 04a4 60        		.byte	96
 1247 04a5 00        		.byte	0
 1248 04a6 60        		.byte	96
 1249 04a7 60        		.byte	96
 1250 04a8 10        		.byte	16
 1251 04a9 10        		.byte	16
 1252 04aa 7E        		.byte	126
 1253 04ab 42        		.byte	66
 1254 04ac 7E        		.byte	126
 1255 04ad 42        		.byte	66
 1256 04ae 7E        		.byte	126
 1257 04af 42        		.byte	66
 1258 04b0 7E        		.byte	126
 1259 04b1 42        		.byte	66
 1260 04b2 04        		.byte	4
 1261 04b3 7E        		.byte	126
 1262 04b4 08        		.byte	8
 1263 04b5 7E        		.byte	126
 1264 04b6 08        		.byte	8
 1265 04b7 FF        		.byte	-1
 1266 04b8 08        		.byte	8
 1267 04b9 08        		.byte	8
 1268 04ba 28        		.byte	40
 1269 04bb 18        		.byte	24
 1270 04bc 02        		.byte	2
 1271 04bd 02        		.byte	2
 1272 04be BF        		.byte	-65
 1273 04bf 62        		.byte	98
 1274 04c0 3A        		.byte	58
 1275 04c1 22        		.byte	34
 1276 04c2 7A        		.byte	122
 1277 04c3 BB        		.byte	-69
 1278 04c4 22        		.byte	34
 1279 04c5 45        		.byte	69
 1280 04c6 48        		.byte	72
 1281 04c7 48        		.byte	72
 1282 04c8 7E        		.byte	126
 1283 04c9 D4        		.byte	-44
 1284 04ca 62        		.byte	98
 1285 04cb 54        		.byte	84
 1286 04cc D4        		.byte	-44
 1287 04cd 48        		.byte	72
 1288 04ce 54        		.byte	84
 1289 04cf 62        		.byte	98
 1290 04d0 10        		.byte	16
 1291 04d1 FE        		.byte	-2
 1292 04d2 92        		.byte	-110
 1293 04d3 FE        		.byte	-2
 1294 04d4 92        		.byte	-110
 1295 04d5 92        		.byte	-110
 1296 04d6 FE        		.byte	-2
 1297 04d7 10        		.byte	16
 1298 04d8 12        		.byte	18
 1299 04d9 1E        		.byte	30
 1300 04da FE        		.byte	-2
 1301 04db 04        		.byte	4
 1302 04dc 08        		.byte	8
 1303 04dd 10        		.byte	16
 1304 04de FE        		.byte	-2
 1305 04df 10        		.byte	16
 1306 04e0 10        		.byte	16
 1307 04e1 10        		.byte	16
 1308 04e2 50        		.byte	80
 1309 04e3 30        		.byte	48
 1310 04e4 FE        		.byte	-2
 1311 04e5 40        		.byte	64
 1312 04e6 50        		.byte	80
 1313 04e7 7E        		.byte	126
 1314 04e8 52        		.byte	82
 1315 04e9 52        		.byte	82
 1316 04ea 52        		.byte	82
 1317 04eb 52        		.byte	82
 1318 04ec 52        		.byte	82
 1319 04ed A4        		.byte	-92
 1320 04ee 00        		.byte	0
 1321 04ef 00        		.byte	0
 1322 04f0 00        		.byte	0
 1323 04f1 00        		.byte	0
 1324 04f2 7E        		.byte	126
 1325 04f3 7E        		.byte	126
 1326 04f4 00        		.byte	0
 1327 04f5 00        		.byte	0
 1328 04f6 00        		.byte	0
 1329 04f7 00        		.byte	0
 1330 04f8 7E        		.byte	126
 1331 04f9 41        		.byte	65
 1332 04fa 41        		.byte	65
 1333 04fb 41        		.byte	65
 1334 04fc 7E        		.byte	126
 1335 04fd 41        		.byte	65
 1336 04fe 41        		.byte	65
 1337 04ff 41        		.byte	65
 1338 0500 41        		.byte	65
 1339 0501 7E        		.byte	126
 1340 0502 41        		.byte	65
 1341 0503 41        		.byte	65
 1342 0504 22        		.byte	34
 1343 0505 14        		.byte	20
 1344 0506 08        		.byte	8
 1345 0507 14        		.byte	20
 1346 0508 22        		.byte	34
 1347 0509 22        		.byte	34
 1348 050a 41        		.byte	65
 1349 050b 41        		.byte	65
 1350 050c 41        		.byte	65
 1351 050d 41        		.byte	65
 1352 050e 41        		.byte	65
 1353 050f 22        		.byte	34
 1354 0510 14        		.byte	20
 1355 0511 08        		.byte	8
 1356 0512 08        		.byte	8
 1357 0513 08        		.byte	8
 1358 0514 08        		.byte	8
 1359 0515 08        		.byte	8
 1360 0516 FE        		.byte	-2
 1361 0517 82        		.byte	-126
 1362 0518 82        		.byte	-126
 1363 0519 82        		.byte	-126
 1364 051a FE        		.byte	-2
 1365 051b 82        		.byte	-126
 1366 051c 82        		.byte	-126
 1367 051d 82        		.byte	-126
 1368 051e 82        		.byte	-126
 1369 051f FE        		.byte	-2
 1370 0520 84        		.byte	-124
 1371 0521 5F        		.byte	95
 1372 0522 C4        		.byte	-60
 1373 0523 5F        		.byte	95
 1374 0524 55        		.byte	85
 1375 0525 5F        		.byte	95
 1376 0526 44        		.byte	68
 1377 0527 4E        		.byte	78
 1378 0528 55        		.byte	85
 1379 0529 BF        		.byte	-65
 1380 052a 08        		.byte	8
 1381 052b FF        		.byte	-1
 1382 052c 81        		.byte	-127
 1383 052d 7E        		.byte	126
 1384 052e 04        		.byte	4
 1385 052f FF        		.byte	-1
 1386 0530 08        		.byte	8
 1387 0531 08        		.byte	8
 1388 0532 38        		.byte	56
 1389 0533 08        		.byte	8
 1390 0534 24        		.byte	36
 1391 0535 44        		.byte	68
 1392 0536 FF        		.byte	-1
 1393 0537 4E        		.byte	78
 1394 0538 55        		.byte	85
 1395 0539 55        		.byte	85
 1396 053a 5F        		.byte	95
 1397 053b 65        		.byte	101
 1398 053c 44        		.byte	68
 1399 053d 44        		.byte	68
 1400               	.global	BIG_NUMBER_STYLE3
 1403               	BIG_NUMBER_STYLE3:
 1404 053e 3F        		.byte	63
 1405 053f E0        		.byte	-32
 1406 0540 7F        		.byte	127
 1407 0541 F0        		.byte	-16
 1408 0542 FF        		.byte	-1
 1409 0543 F8        		.byte	-8
 1410 0544 E0        		.byte	-32
 1411 0545 38        		.byte	56
 1412 0546 E0        		.byte	-32
 1413 0547 38        		.byte	56
 1414 0548 E0        		.byte	-32
 1415 0549 38        		.byte	56
 1416 054a E0        		.byte	-32
 1417 054b 38        		.byte	56
 1418 054c E0        		.byte	-32
 1419 054d 38        		.byte	56
 1420 054e E0        		.byte	-32
 1421 054f 38        		.byte	56
 1422 0550 E0        		.byte	-32
 1423 0551 38        		.byte	56
 1424 0552 E0        		.byte	-32
 1425 0553 38        		.byte	56
 1426 0554 E0        		.byte	-32
 1427 0555 38        		.byte	56
 1428 0556 E0        		.byte	-32
 1429 0557 38        		.byte	56
 1430 0558 E0        		.byte	-32
 1431 0559 38        		.byte	56
 1432 055a E0        		.byte	-32
 1433 055b 38        		.byte	56
 1434 055c E0        		.byte	-32
 1435 055d 38        		.byte	56
 1436 055e E0        		.byte	-32
 1437 055f 38        		.byte	56
 1438 0560 E0        		.byte	-32
 1439 0561 38        		.byte	56
 1440 0562 FF        		.byte	-1
 1441 0563 F8        		.byte	-8
 1442 0564 7F        		.byte	127
 1443 0565 F0        		.byte	-16
 1444 0566 3F        		.byte	63
 1445 0567 E0        		.byte	-32
 1446 0568 07        		.byte	7
 1447 0569 00        		.byte	0
 1448 056a 0F        		.byte	15
 1449 056b 00        		.byte	0
 1450 056c 1F        		.byte	31
 1451 056d 00        		.byte	0
 1452 056e 1F        		.byte	31
 1453 056f 00        		.byte	0
 1454 0570 1F        		.byte	31
 1455 0571 00        		.byte	0
 1456 0572 07        		.byte	7
 1457 0573 00        		.byte	0
 1458 0574 07        		.byte	7
 1459 0575 00        		.byte	0
 1460 0576 07        		.byte	7
 1461 0577 00        		.byte	0
 1462 0578 07        		.byte	7
 1463 0579 00        		.byte	0
 1464 057a 07        		.byte	7
 1465 057b 00        		.byte	0
 1466 057c 07        		.byte	7
 1467 057d 00        		.byte	0
 1468 057e 07        		.byte	7
 1469 057f 00        		.byte	0
 1470 0580 07        		.byte	7
 1471 0581 00        		.byte	0
 1472 0582 07        		.byte	7
 1473 0583 00        		.byte	0
 1474 0584 07        		.byte	7
 1475 0585 00        		.byte	0
 1476 0586 07        		.byte	7
 1477 0587 00        		.byte	0
 1478 0588 07        		.byte	7
 1479 0589 00        		.byte	0
 1480 058a 07        		.byte	7
 1481 058b 00        		.byte	0
 1482 058c FF        		.byte	-1
 1483 058d F8        		.byte	-8
 1484 058e FF        		.byte	-1
 1485 058f F8        		.byte	-8
 1486 0590 FF        		.byte	-1
 1487 0591 F8        		.byte	-8
 1488 0592 3F        		.byte	63
 1489 0593 E0        		.byte	-32
 1490 0594 7F        		.byte	127
 1491 0595 F0        		.byte	-16
 1492 0596 FF        		.byte	-1
 1493 0597 F8        		.byte	-8
 1494 0598 E0        		.byte	-32
 1495 0599 38        		.byte	56
 1496 059a 00        		.byte	0
 1497 059b 38        		.byte	56
 1498 059c 00        		.byte	0
 1499 059d 38        		.byte	56
 1500 059e 00        		.byte	0
 1501 059f 38        		.byte	56
 1502 05a0 00        		.byte	0
 1503 05a1 38        		.byte	56
 1504 05a2 00        		.byte	0
 1505 05a3 38        		.byte	56
 1506 05a4 3F        		.byte	63
 1507 05a5 F8        		.byte	-8
 1508 05a6 7F        		.byte	127
 1509 05a7 F0        		.byte	-16
 1510 05a8 FF        		.byte	-1
 1511 05a9 E0        		.byte	-32
 1512 05aa E0        		.byte	-32
 1513 05ab 00        		.byte	0
 1514 05ac E0        		.byte	-32
 1515 05ad 00        		.byte	0
 1516 05ae E0        		.byte	-32
 1517 05af 00        		.byte	0
 1518 05b0 E0        		.byte	-32
 1519 05b1 00        		.byte	0
 1520 05b2 E0        		.byte	-32
 1521 05b3 00        		.byte	0
 1522 05b4 E0        		.byte	-32
 1523 05b5 00        		.byte	0
 1524 05b6 FF        		.byte	-1
 1525 05b7 F8        		.byte	-8
 1526 05b8 FF        		.byte	-1
 1527 05b9 F8        		.byte	-8
 1528 05ba FF        		.byte	-1
 1529 05bb F8        		.byte	-8
 1530 05bc 3F        		.byte	63
 1531 05bd E0        		.byte	-32
 1532 05be 7F        		.byte	127
 1533 05bf F0        		.byte	-16
 1534 05c0 FF        		.byte	-1
 1535 05c1 F8        		.byte	-8
 1536 05c2 E0        		.byte	-32
 1537 05c3 38        		.byte	56
 1538 05c4 00        		.byte	0
 1539 05c5 38        		.byte	56
 1540 05c6 00        		.byte	0
 1541 05c7 38        		.byte	56
 1542 05c8 00        		.byte	0
 1543 05c9 38        		.byte	56
 1544 05ca 00        		.byte	0
 1545 05cb 38        		.byte	56
 1546 05cc 00        		.byte	0
 1547 05cd 38        		.byte	56
 1548 05ce 1F        		.byte	31
 1549 05cf F0        		.byte	-16
 1550 05d0 1F        		.byte	31
 1551 05d1 E0        		.byte	-32
 1552 05d2 1F        		.byte	31
 1553 05d3 F0        		.byte	-16
 1554 05d4 00        		.byte	0
 1555 05d5 38        		.byte	56
 1556 05d6 00        		.byte	0
 1557 05d7 38        		.byte	56
 1558 05d8 00        		.byte	0
 1559 05d9 38        		.byte	56
 1560 05da 00        		.byte	0
 1561 05db 38        		.byte	56
 1562 05dc 00        		.byte	0
 1563 05dd 38        		.byte	56
 1564 05de E0        		.byte	-32
 1565 05df 38        		.byte	56
 1566 05e0 FF        		.byte	-1
 1567 05e1 F8        		.byte	-8
 1568 05e2 7F        		.byte	127
 1569 05e3 F0        		.byte	-16
 1570 05e4 3F        		.byte	63
 1571 05e5 E0        		.byte	-32
 1572 05e6 E1        		.byte	-31
 1573 05e7 C0        		.byte	-64
 1574 05e8 E1        		.byte	-31
 1575 05e9 C0        		.byte	-64
 1576 05ea E1        		.byte	-31
 1577 05eb C0        		.byte	-64
 1578 05ec E1        		.byte	-31
 1579 05ed C0        		.byte	-64
 1580 05ee E1        		.byte	-31
 1581 05ef C0        		.byte	-64
 1582 05f0 E1        		.byte	-31
 1583 05f1 C0        		.byte	-64
 1584 05f2 E1        		.byte	-31
 1585 05f3 C0        		.byte	-64
 1586 05f4 E1        		.byte	-31
 1587 05f5 C0        		.byte	-64
 1588 05f6 E1        		.byte	-31
 1589 05f7 C0        		.byte	-64
 1590 05f8 FF        		.byte	-1
 1591 05f9 F8        		.byte	-8
 1592 05fa FF        		.byte	-1
 1593 05fb F8        		.byte	-8
 1594 05fc FF        		.byte	-1
 1595 05fd F8        		.byte	-8
 1596 05fe 01        		.byte	1
 1597 05ff C0        		.byte	-64
 1598 0600 01        		.byte	1
 1599 0601 C0        		.byte	-64
 1600 0602 01        		.byte	1
 1601 0603 C0        		.byte	-64
 1602 0604 01        		.byte	1
 1603 0605 C0        		.byte	-64
 1604 0606 01        		.byte	1
 1605 0607 C0        		.byte	-64
 1606 0608 01        		.byte	1
 1607 0609 C0        		.byte	-64
 1608 060a 01        		.byte	1
 1609 060b C0        		.byte	-64
 1610 060c 01        		.byte	1
 1611 060d C0        		.byte	-64
 1612 060e 01        		.byte	1
 1613 060f C0        		.byte	-64
 1614 0610 FF        		.byte	-1
 1615 0611 F8        		.byte	-8
 1616 0612 FF        		.byte	-1
 1617 0613 F8        		.byte	-8
 1618 0614 FF        		.byte	-1
 1619 0615 F8        		.byte	-8
 1620 0616 E0        		.byte	-32
 1621 0617 00        		.byte	0
 1622 0618 E0        		.byte	-32
 1623 0619 00        		.byte	0
 1624 061a E0        		.byte	-32
 1625 061b 00        		.byte	0
 1626 061c E0        		.byte	-32
 1627 061d 00        		.byte	0
 1628 061e E0        		.byte	-32
 1629 061f 00        		.byte	0
 1630 0620 E0        		.byte	-32
 1631 0621 00        		.byte	0
 1632 0622 FF        		.byte	-1
 1633 0623 E0        		.byte	-32
 1634 0624 FF        		.byte	-1
 1635 0625 F0        		.byte	-16
 1636 0626 FF        		.byte	-1
 1637 0627 F8        		.byte	-8
 1638 0628 00        		.byte	0
 1639 0629 38        		.byte	56
 1640 062a 00        		.byte	0
 1641 062b 38        		.byte	56
 1642 062c 00        		.byte	0
 1643 062d 38        		.byte	56
 1644 062e 00        		.byte	0
 1645 062f 38        		.byte	56
 1646 0630 00        		.byte	0
 1647 0631 38        		.byte	56
 1648 0632 E0        		.byte	-32
 1649 0633 38        		.byte	56
 1650 0634 FF        		.byte	-1
 1651 0635 F8        		.byte	-8
 1652 0636 7F        		.byte	127
 1653 0637 F0        		.byte	-16
 1654 0638 3F        		.byte	63
 1655 0639 E0        		.byte	-32
 1656 063a E0        		.byte	-32
 1657 063b 00        		.byte	0
 1658 063c E0        		.byte	-32
 1659 063d 00        		.byte	0
 1660 063e E0        		.byte	-32
 1661 063f 00        		.byte	0
 1662 0640 E0        		.byte	-32
 1663 0641 00        		.byte	0
 1664 0642 E0        		.byte	-32
 1665 0643 00        		.byte	0
 1666 0644 E0        		.byte	-32
 1667 0645 00        		.byte	0
 1668 0646 E0        		.byte	-32
 1669 0647 00        		.byte	0
 1670 0648 E0        		.byte	-32
 1671 0649 00        		.byte	0
 1672 064a E0        		.byte	-32
 1673 064b 00        		.byte	0
 1674 064c FF        		.byte	-1
 1675 064d E0        		.byte	-32
 1676 064e FF        		.byte	-1
 1677 064f F0        		.byte	-16
 1678 0650 FF        		.byte	-1
 1679 0651 F8        		.byte	-8
 1680 0652 E0        		.byte	-32
 1681 0653 38        		.byte	56
 1682 0654 E0        		.byte	-32
 1683 0655 38        		.byte	56
 1684 0656 E0        		.byte	-32
 1685 0657 38        		.byte	56
 1686 0658 E0        		.byte	-32
 1687 0659 38        		.byte	56
 1688 065a E0        		.byte	-32
 1689 065b 38        		.byte	56
 1690 065c E0        		.byte	-32
 1691 065d 38        		.byte	56
 1692 065e FF        		.byte	-1
 1693 065f F8        		.byte	-8
 1694 0660 7F        		.byte	127
 1695 0661 F0        		.byte	-16
 1696 0662 3F        		.byte	63
 1697 0663 E0        		.byte	-32
 1698 0664 FF        		.byte	-1
 1699 0665 F8        		.byte	-8
 1700 0666 FF        		.byte	-1
 1701 0667 F8        		.byte	-8
 1702 0668 FF        		.byte	-1
 1703 0669 F8        		.byte	-8
 1704 066a 00        		.byte	0
 1705 066b 38        		.byte	56
 1706 066c 00        		.byte	0
 1707 066d 38        		.byte	56
 1708 066e 00        		.byte	0
 1709 066f 38        		.byte	56
 1710 0670 00        		.byte	0
 1711 0671 38        		.byte	56
 1712 0672 00        		.byte	0
 1713 0673 38        		.byte	56
 1714 0674 00        		.byte	0
 1715 0675 38        		.byte	56
 1716 0676 00        		.byte	0
 1717 0677 38        		.byte	56
 1718 0678 00        		.byte	0
 1719 0679 38        		.byte	56
 1720 067a 00        		.byte	0
 1721 067b 38        		.byte	56
 1722 067c 00        		.byte	0
 1723 067d 38        		.byte	56
 1724 067e 00        		.byte	0
 1725 067f 38        		.byte	56
 1726 0680 00        		.byte	0
 1727 0681 38        		.byte	56
 1728 0682 00        		.byte	0
 1729 0683 38        		.byte	56
 1730 0684 00        		.byte	0
 1731 0685 38        		.byte	56
 1732 0686 00        		.byte	0
 1733 0687 38        		.byte	56
 1734 0688 00        		.byte	0
 1735 0689 38        		.byte	56
 1736 068a 00        		.byte	0
 1737 068b 38        		.byte	56
 1738 068c 00        		.byte	0
 1739 068d 38        		.byte	56
 1740 068e 3F        		.byte	63
 1741 068f E0        		.byte	-32
 1742 0690 7F        		.byte	127
 1743 0691 F0        		.byte	-16
 1744 0692 FF        		.byte	-1
 1745 0693 F8        		.byte	-8
 1746 0694 E0        		.byte	-32
 1747 0695 38        		.byte	56
 1748 0696 E0        		.byte	-32
 1749 0697 38        		.byte	56
 1750 0698 E0        		.byte	-32
 1751 0699 38        		.byte	56
 1752 069a E0        		.byte	-32
 1753 069b 38        		.byte	56
 1754 069c E0        		.byte	-32
 1755 069d 38        		.byte	56
 1756 069e 70        		.byte	112
 1757 069f 70        		.byte	112
 1758 06a0 3F        		.byte	63
 1759 06a1 E0        		.byte	-32
 1760 06a2 1F        		.byte	31
 1761 06a3 C0        		.byte	-64
 1762 06a4 3F        		.byte	63
 1763 06a5 E0        		.byte	-32
 1764 06a6 70        		.byte	112
 1765 06a7 70        		.byte	112
 1766 06a8 E0        		.byte	-32
 1767 06a9 38        		.byte	56
 1768 06aa E0        		.byte	-32
 1769 06ab 38        		.byte	56
 1770 06ac E0        		.byte	-32
 1771 06ad 38        		.byte	56
 1772 06ae E0        		.byte	-32
 1773 06af 38        		.byte	56
 1774 06b0 E0        		.byte	-32
 1775 06b1 38        		.byte	56
 1776 06b2 FF        		.byte	-1
 1777 06b3 F8        		.byte	-8
 1778 06b4 7F        		.byte	127
 1779 06b5 F0        		.byte	-16
 1780 06b6 3F        		.byte	63
 1781 06b7 E0        		.byte	-32
 1782 06b8 3F        		.byte	63
 1783 06b9 E0        		.byte	-32
 1784 06ba 7F        		.byte	127
 1785 06bb F0        		.byte	-16
 1786 06bc FF        		.byte	-1
 1787 06bd F8        		.byte	-8
 1788 06be E0        		.byte	-32
 1789 06bf 38        		.byte	56
 1790 06c0 E0        		.byte	-32
 1791 06c1 38        		.byte	56
 1792 06c2 E0        		.byte	-32
 1793 06c3 38        		.byte	56
 1794 06c4 E0        		.byte	-32
 1795 06c5 38        		.byte	56
 1796 06c6 E0        		.byte	-32
 1797 06c7 38        		.byte	56
 1798 06c8 E0        		.byte	-32
 1799 06c9 38        		.byte	56
 1800 06ca FF        		.byte	-1
 1801 06cb F8        		.byte	-8
 1802 06cc 7F        		.byte	127
 1803 06cd F8        		.byte	-8
 1804 06ce 3F        		.byte	63
 1805 06cf F8        		.byte	-8
 1806 06d0 00        		.byte	0
 1807 06d1 38        		.byte	56
 1808 06d2 00        		.byte	0
 1809 06d3 38        		.byte	56
 1810 06d4 00        		.byte	0
 1811 06d5 38        		.byte	56
 1812 06d6 00        		.byte	0
 1813 06d7 38        		.byte	56
 1814 06d8 00        		.byte	0
 1815 06d9 38        		.byte	56
 1816 06da 00        		.byte	0
 1817 06db 38        		.byte	56
 1818 06dc 00        		.byte	0
 1819 06dd 38        		.byte	56
 1820 06de 00        		.byte	0
 1821 06df 38        		.byte	56
 1822 06e0 00        		.byte	0
 1823 06e1 38        		.byte	56
 1824               	.global	BIG_NUMBER_STYLE2
 1827               	BIG_NUMBER_STYLE2:
 1828 06e2 FF        		.byte	-1
 1829 06e3 F8        		.byte	-8
 1830 06e4 FF        		.byte	-1
 1831 06e5 F8        		.byte	-8
 1832 06e6 FF        		.byte	-1
 1833 06e7 F8        		.byte	-8
 1834 06e8 E0        		.byte	-32
 1835 06e9 38        		.byte	56
 1836 06ea E0        		.byte	-32
 1837 06eb 38        		.byte	56
 1838 06ec E0        		.byte	-32
 1839 06ed 38        		.byte	56
 1840 06ee E0        		.byte	-32
 1841 06ef 38        		.byte	56
 1842 06f0 E0        		.byte	-32
 1843 06f1 38        		.byte	56
 1844 06f2 E0        		.byte	-32
 1845 06f3 38        		.byte	56
 1846 06f4 E0        		.byte	-32
 1847 06f5 38        		.byte	56
 1848 06f6 E0        		.byte	-32
 1849 06f7 38        		.byte	56
 1850 06f8 E0        		.byte	-32
 1851 06f9 38        		.byte	56
 1852 06fa E0        		.byte	-32
 1853 06fb 38        		.byte	56
 1854 06fc E0        		.byte	-32
 1855 06fd 38        		.byte	56
 1856 06fe E0        		.byte	-32
 1857 06ff 38        		.byte	56
 1858 0700 E0        		.byte	-32
 1859 0701 38        		.byte	56
 1860 0702 E0        		.byte	-32
 1861 0703 38        		.byte	56
 1862 0704 E0        		.byte	-32
 1863 0705 38        		.byte	56
 1864 0706 FF        		.byte	-1
 1865 0707 F8        		.byte	-8
 1866 0708 FF        		.byte	-1
 1867 0709 F8        		.byte	-8
 1868 070a FF        		.byte	-1
 1869 070b F8        		.byte	-8
 1870 070c 07        		.byte	7
 1871 070d 00        		.byte	0
 1872 070e 07        		.byte	7
 1873 070f 00        		.byte	0
 1874 0710 07        		.byte	7
 1875 0711 00        		.byte	0
 1876 0712 07        		.byte	7
 1877 0713 00        		.byte	0
 1878 0714 07        		.byte	7
 1879 0715 00        		.byte	0
 1880 0716 07        		.byte	7
 1881 0717 00        		.byte	0
 1882 0718 07        		.byte	7
 1883 0719 00        		.byte	0
 1884 071a 07        		.byte	7
 1885 071b 00        		.byte	0
 1886 071c 07        		.byte	7
 1887 071d 00        		.byte	0
 1888 071e 07        		.byte	7
 1889 071f 00        		.byte	0
 1890 0720 07        		.byte	7
 1891 0721 00        		.byte	0
 1892 0722 07        		.byte	7
 1893 0723 00        		.byte	0
 1894 0724 07        		.byte	7
 1895 0725 00        		.byte	0
 1896 0726 07        		.byte	7
 1897 0727 00        		.byte	0
 1898 0728 07        		.byte	7
 1899 0729 00        		.byte	0
 1900 072a 07        		.byte	7
 1901 072b 00        		.byte	0
 1902 072c 07        		.byte	7
 1903 072d 00        		.byte	0
 1904 072e 07        		.byte	7
 1905 072f 00        		.byte	0
 1906 0730 07        		.byte	7
 1907 0731 00        		.byte	0
 1908 0732 07        		.byte	7
 1909 0733 00        		.byte	0
 1910 0734 07        		.byte	7
 1911 0735 00        		.byte	0
 1912 0736 FF        		.byte	-1
 1913 0737 F8        		.byte	-8
 1914 0738 FF        		.byte	-1
 1915 0739 F8        		.byte	-8
 1916 073a FF        		.byte	-1
 1917 073b F8        		.byte	-8
 1918 073c 00        		.byte	0
 1919 073d 38        		.byte	56
 1920 073e 00        		.byte	0
 1921 073f 38        		.byte	56
 1922 0740 00        		.byte	0
 1923 0741 38        		.byte	56
 1924 0742 00        		.byte	0
 1925 0743 38        		.byte	56
 1926 0744 00        		.byte	0
 1927 0745 38        		.byte	56
 1928 0746 00        		.byte	0
 1929 0747 38        		.byte	56
 1930 0748 FF        		.byte	-1
 1931 0749 F8        		.byte	-8
 1932 074a FF        		.byte	-1
 1933 074b F8        		.byte	-8
 1934 074c FF        		.byte	-1
 1935 074d F8        		.byte	-8
 1936 074e E0        		.byte	-32
 1937 074f 00        		.byte	0
 1938 0750 E0        		.byte	-32
 1939 0751 00        		.byte	0
 1940 0752 E0        		.byte	-32
 1941 0753 00        		.byte	0
 1942 0754 E0        		.byte	-32
 1943 0755 00        		.byte	0
 1944 0756 E0        		.byte	-32
 1945 0757 00        		.byte	0
 1946 0758 E0        		.byte	-32
 1947 0759 00        		.byte	0
 1948 075a FF        		.byte	-1
 1949 075b F8        		.byte	-8
 1950 075c FF        		.byte	-1
 1951 075d F8        		.byte	-8
 1952 075e FF        		.byte	-1
 1953 075f F8        		.byte	-8
 1954 0760 FF        		.byte	-1
 1955 0761 F8        		.byte	-8
 1956 0762 FF        		.byte	-1
 1957 0763 F8        		.byte	-8
 1958 0764 FF        		.byte	-1
 1959 0765 F8        		.byte	-8
 1960 0766 00        		.byte	0
 1961 0767 38        		.byte	56
 1962 0768 00        		.byte	0
 1963 0769 38        		.byte	56
 1964 076a 00        		.byte	0
 1965 076b 38        		.byte	56
 1966 076c 00        		.byte	0
 1967 076d 38        		.byte	56
 1968 076e 00        		.byte	0
 1969 076f 38        		.byte	56
 1970 0770 00        		.byte	0
 1971 0771 38        		.byte	56
 1972 0772 FF        		.byte	-1
 1973 0773 F8        		.byte	-8
 1974 0774 FF        		.byte	-1
 1975 0775 F8        		.byte	-8
 1976 0776 FF        		.byte	-1
 1977 0777 F8        		.byte	-8
 1978 0778 00        		.byte	0
 1979 0779 38        		.byte	56
 1980 077a 00        		.byte	0
 1981 077b 38        		.byte	56
 1982 077c 00        		.byte	0
 1983 077d 38        		.byte	56
 1984 077e 00        		.byte	0
 1985 077f 38        		.byte	56
 1986 0780 00        		.byte	0
 1987 0781 38        		.byte	56
 1988 0782 00        		.byte	0
 1989 0783 38        		.byte	56
 1990 0784 FF        		.byte	-1
 1991 0785 F8        		.byte	-8
 1992 0786 FF        		.byte	-1
 1993 0787 F8        		.byte	-8
 1994 0788 FF        		.byte	-1
 1995 0789 F8        		.byte	-8
 1996 078a E0        		.byte	-32
 1997 078b 38        		.byte	56
 1998 078c E0        		.byte	-32
 1999 078d 38        		.byte	56
 2000 078e E0        		.byte	-32
 2001 078f 38        		.byte	56
 2002 0790 E0        		.byte	-32
 2003 0791 38        		.byte	56
 2004 0792 E0        		.byte	-32
 2005 0793 38        		.byte	56
 2006 0794 E0        		.byte	-32
 2007 0795 38        		.byte	56
 2008 0796 E0        		.byte	-32
 2009 0797 38        		.byte	56
 2010 0798 E0        		.byte	-32
 2011 0799 38        		.byte	56
 2012 079a E0        		.byte	-32
 2013 079b 38        		.byte	56
 2014 079c FF        		.byte	-1
 2015 079d F8        		.byte	-8
 2016 079e FF        		.byte	-1
 2017 079f F8        		.byte	-8
 2018 07a0 FF        		.byte	-1
 2019 07a1 F8        		.byte	-8
 2020 07a2 00        		.byte	0
 2021 07a3 38        		.byte	56
 2022 07a4 00        		.byte	0
 2023 07a5 38        		.byte	56
 2024 07a6 00        		.byte	0
 2025 07a7 38        		.byte	56
 2026 07a8 00        		.byte	0
 2027 07a9 38        		.byte	56
 2028 07aa 00        		.byte	0
 2029 07ab 38        		.byte	56
 2030 07ac 00        		.byte	0
 2031 07ad 38        		.byte	56
 2032 07ae 00        		.byte	0
 2033 07af 38        		.byte	56
 2034 07b0 00        		.byte	0
 2035 07b1 38        		.byte	56
 2036 07b2 00        		.byte	0
 2037 07b3 38        		.byte	56
 2038 07b4 FF        		.byte	-1
 2039 07b5 F8        		.byte	-8
 2040 07b6 FF        		.byte	-1
 2041 07b7 F8        		.byte	-8
 2042 07b8 FF        		.byte	-1
 2043 07b9 F8        		.byte	-8
 2044 07ba E0        		.byte	-32
 2045 07bb 00        		.byte	0
 2046 07bc E0        		.byte	-32
 2047 07bd 00        		.byte	0
 2048 07be E0        		.byte	-32
 2049 07bf 00        		.byte	0
 2050 07c0 E0        		.byte	-32
 2051 07c1 00        		.byte	0
 2052 07c2 E0        		.byte	-32
 2053 07c3 00        		.byte	0
 2054 07c4 E0        		.byte	-32
 2055 07c5 00        		.byte	0
 2056 07c6 FF        		.byte	-1
 2057 07c7 F8        		.byte	-8
 2058 07c8 FF        		.byte	-1
 2059 07c9 F8        		.byte	-8
 2060 07ca FF        		.byte	-1
 2061 07cb F8        		.byte	-8
 2062 07cc 00        		.byte	0
 2063 07cd 38        		.byte	56
 2064 07ce 00        		.byte	0
 2065 07cf 38        		.byte	56
 2066 07d0 00        		.byte	0
 2067 07d1 38        		.byte	56
 2068 07d2 00        		.byte	0
 2069 07d3 38        		.byte	56
 2070 07d4 00        		.byte	0
 2071 07d5 38        		.byte	56
 2072 07d6 00        		.byte	0
 2073 07d7 38        		.byte	56
 2074 07d8 FF        		.byte	-1
 2075 07d9 F8        		.byte	-8
 2076 07da FF        		.byte	-1
 2077 07db F8        		.byte	-8
 2078 07dc FF        		.byte	-1
 2079 07dd F8        		.byte	-8
 2080 07de FF        		.byte	-1
 2081 07df F8        		.byte	-8
 2082 07e0 FF        		.byte	-1
 2083 07e1 F8        		.byte	-8
 2084 07e2 FF        		.byte	-1
 2085 07e3 F8        		.byte	-8
 2086 07e4 E0        		.byte	-32
 2087 07e5 00        		.byte	0
 2088 07e6 E0        		.byte	-32
 2089 07e7 00        		.byte	0
 2090 07e8 E0        		.byte	-32
 2091 07e9 00        		.byte	0
 2092 07ea E0        		.byte	-32
 2093 07eb 00        		.byte	0
 2094 07ec E0        		.byte	-32
 2095 07ed 00        		.byte	0
 2096 07ee E0        		.byte	-32
 2097 07ef 00        		.byte	0
 2098 07f0 FF        		.byte	-1
 2099 07f1 F8        		.byte	-8
 2100 07f2 FF        		.byte	-1
 2101 07f3 F8        		.byte	-8
 2102 07f4 FF        		.byte	-1
 2103 07f5 F8        		.byte	-8
 2104 07f6 E0        		.byte	-32
 2105 07f7 38        		.byte	56
 2106 07f8 E0        		.byte	-32
 2107 07f9 38        		.byte	56
 2108 07fa E0        		.byte	-32
 2109 07fb 38        		.byte	56
 2110 07fc E0        		.byte	-32
 2111 07fd 38        		.byte	56
 2112 07fe E0        		.byte	-32
 2113 07ff 38        		.byte	56
 2114 0800 E0        		.byte	-32
 2115 0801 38        		.byte	56
 2116 0802 FF        		.byte	-1
 2117 0803 F8        		.byte	-8
 2118 0804 FF        		.byte	-1
 2119 0805 F8        		.byte	-8
 2120 0806 FF        		.byte	-1
 2121 0807 F8        		.byte	-8
 2122 0808 FF        		.byte	-1
 2123 0809 F8        		.byte	-8
 2124 080a FF        		.byte	-1
 2125 080b F8        		.byte	-8
 2126 080c FF        		.byte	-1
 2127 080d F8        		.byte	-8
 2128 080e 00        		.byte	0
 2129 080f 38        		.byte	56
 2130 0810 00        		.byte	0
 2131 0811 38        		.byte	56
 2132 0812 00        		.byte	0
 2133 0813 38        		.byte	56
 2134 0814 00        		.byte	0
 2135 0815 38        		.byte	56
 2136 0816 00        		.byte	0
 2137 0817 38        		.byte	56
 2138 0818 00        		.byte	0
 2139 0819 38        		.byte	56
 2140 081a 00        		.byte	0
 2141 081b 38        		.byte	56
 2142 081c 00        		.byte	0
 2143 081d 38        		.byte	56
 2144 081e 00        		.byte	0
 2145 081f 38        		.byte	56
 2146 0820 00        		.byte	0
 2147 0821 38        		.byte	56
 2148 0822 00        		.byte	0
 2149 0823 38        		.byte	56
 2150 0824 00        		.byte	0
 2151 0825 38        		.byte	56
 2152 0826 00        		.byte	0
 2153 0827 38        		.byte	56
 2154 0828 00        		.byte	0
 2155 0829 38        		.byte	56
 2156 082a 00        		.byte	0
 2157 082b 38        		.byte	56
 2158 082c 00        		.byte	0
 2159 082d 38        		.byte	56
 2160 082e 00        		.byte	0
 2161 082f 38        		.byte	56
 2162 0830 00        		.byte	0
 2163 0831 38        		.byte	56
 2164 0832 FF        		.byte	-1
 2165 0833 F8        		.byte	-8
 2166 0834 FF        		.byte	-1
 2167 0835 F8        		.byte	-8
 2168 0836 FF        		.byte	-1
 2169 0837 F8        		.byte	-8
 2170 0838 E0        		.byte	-32
 2171 0839 38        		.byte	56
 2172 083a E0        		.byte	-32
 2173 083b 38        		.byte	56
 2174 083c E0        		.byte	-32
 2175 083d 38        		.byte	56
 2176 083e E0        		.byte	-32
 2177 083f 38        		.byte	56
 2178 0840 E0        		.byte	-32
 2179 0841 38        		.byte	56
 2180 0842 E0        		.byte	-32
 2181 0843 38        		.byte	56
 2182 0844 FF        		.byte	-1
 2183 0845 F8        		.byte	-8
 2184 0846 FF        		.byte	-1
 2185 0847 F8        		.byte	-8
 2186 0848 FF        		.byte	-1
 2187 0849 F8        		.byte	-8
 2188 084a E0        		.byte	-32
 2189 084b 38        		.byte	56
 2190 084c E0        		.byte	-32
 2191 084d 38        		.byte	56
 2192 084e E0        		.byte	-32
 2193 084f 38        		.byte	56
 2194 0850 E0        		.byte	-32
 2195 0851 38        		.byte	56
 2196 0852 E0        		.byte	-32
 2197 0853 38        		.byte	56
 2198 0854 E0        		.byte	-32
 2199 0855 38        		.byte	56
 2200 0856 FF        		.byte	-1
 2201 0857 F8        		.byte	-8
 2202 0858 FF        		.byte	-1
 2203 0859 F8        		.byte	-8
 2204 085a FF        		.byte	-1
 2205 085b F8        		.byte	-8
 2206 085c FF        		.byte	-1
 2207 085d F8        		.byte	-8
 2208 085e FF        		.byte	-1
 2209 085f F8        		.byte	-8
 2210 0860 FF        		.byte	-1
 2211 0861 F8        		.byte	-8
 2212 0862 E0        		.byte	-32
 2213 0863 38        		.byte	56
 2214 0864 E0        		.byte	-32
 2215 0865 38        		.byte	56
 2216 0866 E0        		.byte	-32
 2217 0867 38        		.byte	56
 2218 0868 E0        		.byte	-32
 2219 0869 38        		.byte	56
 2220 086a E0        		.byte	-32
 2221 086b 38        		.byte	56
 2222 086c E0        		.byte	-32
 2223 086d 38        		.byte	56
 2224 086e FF        		.byte	-1
 2225 086f F8        		.byte	-8
 2226 0870 FF        		.byte	-1
 2227 0871 F8        		.byte	-8
 2228 0872 FF        		.byte	-1
 2229 0873 F8        		.byte	-8
 2230 0874 00        		.byte	0
 2231 0875 38        		.byte	56
 2232 0876 00        		.byte	0
 2233 0877 38        		.byte	56
 2234 0878 00        		.byte	0
 2235 0879 38        		.byte	56
 2236 087a 00        		.byte	0
 2237 087b 38        		.byte	56
 2238 087c 00        		.byte	0
 2239 087d 38        		.byte	56
 2240 087e 00        		.byte	0
 2241 087f 38        		.byte	56
 2242 0880 FF        		.byte	-1
 2243 0881 F8        		.byte	-8
 2244 0882 FF        		.byte	-1
 2245 0883 F8        		.byte	-8
 2246 0884 FF        		.byte	-1
 2247 0885 F8        		.byte	-8
 2248               	.global	BIG_NUMBER_STYLE1
 2251               	BIG_NUMBER_STYLE1:
 2252 0886 07        		.byte	7
 2253 0887 80        		.byte	-128
 2254 0888 0F        		.byte	15
 2255 0889 C0        		.byte	-64
 2256 088a 3F        		.byte	63
 2257 088b E0        		.byte	-32
 2258 088c 38        		.byte	56
 2259 088d 70        		.byte	112
 2260 088e 70        		.byte	112
 2261 088f 70        		.byte	112
 2262 0890 70        		.byte	112
 2263 0891 38        		.byte	56
 2264 0892 70        		.byte	112
 2265 0893 38        		.byte	56
 2266 0894 60        		.byte	96
 2267 0895 38        		.byte	56
 2268 0896 E0        		.byte	-32
 2269 0897 38        		.byte	56
 2270 0898 E0        		.byte	-32
 2271 0899 38        		.byte	56
 2272 089a E0        		.byte	-32
 2273 089b 38        		.byte	56
 2274 089c E0        		.byte	-32
 2275 089d 38        		.byte	56
 2276 089e E0        		.byte	-32
 2277 089f 38        		.byte	56
 2278 08a0 60        		.byte	96
 2279 08a1 38        		.byte	56
 2280 08a2 70        		.byte	112
 2281 08a3 38        		.byte	56
 2282 08a4 70        		.byte	112
 2283 08a5 30        		.byte	48
 2284 08a6 70        		.byte	112
 2285 08a7 70        		.byte	112
 2286 08a8 3C        		.byte	60
 2287 08a9 E0        		.byte	-32
 2288 08aa 1F        		.byte	31
 2289 08ab E0        		.byte	-32
 2290 08ac 0F        		.byte	15
 2291 08ad 80        		.byte	-128
 2292 08ae 06        		.byte	6
 2293 08af 00        		.byte	0
 2294 08b0 03        		.byte	3
 2295 08b1 00        		.byte	0
 2296 08b2 1F        		.byte	31
 2297 08b3 00        		.byte	0
 2298 08b4 FF        		.byte	-1
 2299 08b5 00        		.byte	0
 2300 08b6 FF        		.byte	-1
 2301 08b7 00        		.byte	0
 2302 08b8 C7        		.byte	-57
 2303 08b9 00        		.byte	0
 2304 08ba 07        		.byte	7
 2305 08bb 00        		.byte	0
 2306 08bc 07        		.byte	7
 2307 08bd 00        		.byte	0
 2308 08be 07        		.byte	7
 2309 08bf 00        		.byte	0
 2310 08c0 07        		.byte	7
 2311 08c1 00        		.byte	0
 2312 08c2 07        		.byte	7
 2313 08c3 00        		.byte	0
 2314 08c4 07        		.byte	7
 2315 08c5 00        		.byte	0
 2316 08c6 07        		.byte	7
 2317 08c7 00        		.byte	0
 2318 08c8 07        		.byte	7
 2319 08c9 00        		.byte	0
 2320 08ca 07        		.byte	7
 2321 08cb 00        		.byte	0
 2322 08cc 07        		.byte	7
 2323 08cd 00        		.byte	0
 2324 08ce 07        		.byte	7
 2325 08cf 00        		.byte	0
 2326 08d0 07        		.byte	7
 2327 08d1 00        		.byte	0
 2328 08d2 07        		.byte	7
 2329 08d3 00        		.byte	0
 2330 08d4 07        		.byte	7
 2331 08d5 00        		.byte	0
 2332 08d6 7F        		.byte	127
 2333 08d7 F8        		.byte	-8
 2334 08d8 7F        		.byte	127
 2335 08d9 F8        		.byte	-8
 2336 08da 0F        		.byte	15
 2337 08db C0        		.byte	-64
 2338 08dc 3F        		.byte	63
 2339 08dd F0        		.byte	-16
 2340 08de 3F        		.byte	63
 2341 08df F8        		.byte	-8
 2342 08e0 30        		.byte	48
 2343 08e1 38        		.byte	56
 2344 08e2 00        		.byte	0
 2345 08e3 38        		.byte	56
 2346 08e4 00        		.byte	0
 2347 08e5 18        		.byte	24
 2348 08e6 00        		.byte	0
 2349 08e7 18        		.byte	24
 2350 08e8 00        		.byte	0
 2351 08e9 38        		.byte	56
 2352 08ea 00        		.byte	0
 2353 08eb 38        		.byte	56
 2354 08ec 00        		.byte	0
 2355 08ed 38        		.byte	56
 2356 08ee 00        		.byte	0
 2357 08ef 70        		.byte	112
 2358 08f0 00        		.byte	0
 2359 08f1 E0        		.byte	-32
 2360 08f2 01        		.byte	1
 2361 08f3 C0        		.byte	-64
 2362 08f4 03        		.byte	3
 2363 08f5 80        		.byte	-128
 2364 08f6 07        		.byte	7
 2365 08f7 00        		.byte	0
 2366 08f8 0E        		.byte	14
 2367 08f9 00        		.byte	0
 2368 08fa 1C        		.byte	28
 2369 08fb 00        		.byte	0
 2370 08fc 38        		.byte	56
 2371 08fd 00        		.byte	0
 2372 08fe 70        		.byte	112
 2373 08ff 00        		.byte	0
 2374 0900 7F        		.byte	127
 2375 0901 F8        		.byte	-8
 2376 0902 7F        		.byte	127
 2377 0903 F8        		.byte	-8
 2378 0904 1F        		.byte	31
 2379 0905 80        		.byte	-128
 2380 0906 3F        		.byte	63
 2381 0907 E0        		.byte	-32
 2382 0908 3F        		.byte	63
 2383 0909 F0        		.byte	-16
 2384 090a 20        		.byte	32
 2385 090b 78        		.byte	120
 2386 090c 00        		.byte	0
 2387 090d 38        		.byte	56
 2388 090e 00        		.byte	0
 2389 090f 38        		.byte	56
 2390 0910 00        		.byte	0
 2391 0911 70        		.byte	112
 2392 0912 00        		.byte	0
 2393 0913 E0        		.byte	-32
 2394 0914 1F        		.byte	31
 2395 0915 C0        		.byte	-64
 2396 0916 1F        		.byte	31
 2397 0917 C0        		.byte	-64
 2398 0918 1F        		.byte	31
 2399 0919 F0        		.byte	-16
 2400 091a 00        		.byte	0
 2401 091b 38        		.byte	56
 2402 091c 00        		.byte	0
 2403 091d 38        		.byte	56
 2404 091e 00        		.byte	0
 2405 091f 38        		.byte	56
 2406 0920 00        		.byte	0
 2407 0921 38        		.byte	56
 2408 0922 00        		.byte	0
 2409 0923 38        		.byte	56
 2410 0924 00        		.byte	0
 2411 0925 38        		.byte	56
 2412 0926 60        		.byte	96
 2413 0927 F0        		.byte	-16
 2414 0928 7F        		.byte	127
 2415 0929 F0        		.byte	-16
 2416 092a 7F        		.byte	127
 2417 092b C0        		.byte	-64
 2418 092c 0E        		.byte	14
 2419 092d 00        		.byte	0
 2420 092e 01        		.byte	1
 2421 092f E0        		.byte	-32
 2422 0930 01        		.byte	1
 2423 0931 E0        		.byte	-32
 2424 0932 03        		.byte	3
 2425 0933 E0        		.byte	-32
 2426 0934 03        		.byte	3
 2427 0935 E0        		.byte	-32
 2428 0936 06        		.byte	6
 2429 0937 E0        		.byte	-32
 2430 0938 0E        		.byte	14
 2431 0939 E0        		.byte	-32
 2432 093a 1C        		.byte	28
 2433 093b E0        		.byte	-32
 2434 093c 18        		.byte	24
 2435 093d E0        		.byte	-32
 2436 093e 30        		.byte	48
 2437 093f E0        		.byte	-32
 2438 0940 70        		.byte	112
 2439 0941 E0        		.byte	-32
 2440 0942 60        		.byte	96
 2441 0943 E0        		.byte	-32
 2442 0944 E0        		.byte	-32
 2443 0945 E0        		.byte	-32
 2444 0946 C0        		.byte	-64
 2445 0947 E0        		.byte	-32
 2446 0948 FF        		.byte	-1
 2447 0949 F8        		.byte	-8
 2448 094a FF        		.byte	-1
 2449 094b F8        		.byte	-8
 2450 094c FF        		.byte	-1
 2451 094d F8        		.byte	-8
 2452 094e 00        		.byte	0
 2453 094f E0        		.byte	-32
 2454 0950 00        		.byte	0
 2455 0951 E0        		.byte	-32
 2456 0952 00        		.byte	0
 2457 0953 E0        		.byte	-32
 2458 0954 00        		.byte	0
 2459 0955 E0        		.byte	-32
 2460 0956 00        		.byte	0
 2461 0957 E0        		.byte	-32
 2462 0958 3F        		.byte	63
 2463 0959 F8        		.byte	-8
 2464 095a 3F        		.byte	63
 2465 095b F8        		.byte	-8
 2466 095c 3F        		.byte	63
 2467 095d F8        		.byte	-8
 2468 095e 38        		.byte	56
 2469 095f 00        		.byte	0
 2470 0960 38        		.byte	56
 2471 0961 00        		.byte	0
 2472 0962 38        		.byte	56
 2473 0963 00        		.byte	0
 2474 0964 38        		.byte	56
 2475 0965 00        		.byte	0
 2476 0966 3F        		.byte	63
 2477 0967 80        		.byte	-128
 2478 0968 3F        		.byte	63
 2479 0969 E0        		.byte	-32
 2480 096a 3F        		.byte	63
 2481 096b F0        		.byte	-16
 2482 096c 00        		.byte	0
 2483 096d 78        		.byte	120
 2484 096e 00        		.byte	0
 2485 096f 38        		.byte	56
 2486 0970 00        		.byte	0
 2487 0971 38        		.byte	56
 2488 0972 00        		.byte	0
 2489 0973 18        		.byte	24
 2490 0974 00        		.byte	0
 2491 0975 18        		.byte	24
 2492 0976 00        		.byte	0
 2493 0977 18        		.byte	24
 2494 0978 00        		.byte	0
 2495 0979 38        		.byte	56
 2496 097a 70        		.byte	112
 2497 097b F0        		.byte	-16
 2498 097c 7F        		.byte	127
 2499 097d F0        		.byte	-16
 2500 097e 3F        		.byte	63
 2501 097f C0        		.byte	-64
 2502 0980 0E        		.byte	14
 2503 0981 00        		.byte	0
 2504 0982 03        		.byte	3
 2505 0983 C0        		.byte	-64
 2506 0984 0F        		.byte	15
 2507 0985 E0        		.byte	-32
 2508 0986 1F        		.byte	31
 2509 0987 F0        		.byte	-16
 2510 0988 3C        		.byte	60
 2511 0989 00        		.byte	0
 2512 098a 70        		.byte	112
 2513 098b 00        		.byte	0
 2514 098c 70        		.byte	112
 2515 098d 00        		.byte	0
 2516 098e E0        		.byte	-32
 2517 098f 00        		.byte	0
 2518 0990 E7        		.byte	-25
 2519 0991 C0        		.byte	-64
 2520 0992 FF        		.byte	-1
 2521 0993 E0        		.byte	-32
 2522 0994 FF        		.byte	-1
 2523 0995 F0        		.byte	-16
 2524 0996 F0        		.byte	-16
 2525 0997 78        		.byte	120
 2526 0998 E0        		.byte	-32
 2527 0999 38        		.byte	56
 2528 099a E0        		.byte	-32
 2529 099b 38        		.byte	56
 2530 099c E0        		.byte	-32
 2531 099d 38        		.byte	56
 2532 099e E0        		.byte	-32
 2533 099f 38        		.byte	56
 2534 09a0 E0        		.byte	-32
 2535 09a1 38        		.byte	56
 2536 09a2 70        		.byte	112
 2537 09a3 78        		.byte	120
 2538 09a4 78        		.byte	120
 2539 09a5 70        		.byte	112
 2540 09a6 3F        		.byte	63
 2541 09a7 E0        		.byte	-32
 2542 09a8 1F        		.byte	31
 2543 09a9 C0        		.byte	-64
 2544 09aa 07        		.byte	7
 2545 09ab 00        		.byte	0
 2546 09ac FF        		.byte	-1
 2547 09ad F8        		.byte	-8
 2548 09ae FF        		.byte	-1
 2549 09af F8        		.byte	-8
 2550 09b0 FF        		.byte	-1
 2551 09b1 F0        		.byte	-16
 2552 09b2 00        		.byte	0
 2553 09b3 70        		.byte	112
 2554 09b4 00        		.byte	0
 2555 09b5 70        		.byte	112
 2556 09b6 00        		.byte	0
 2557 09b7 60        		.byte	96
 2558 09b8 00        		.byte	0
 2559 09b9 E0        		.byte	-32
 2560 09ba 00        		.byte	0
 2561 09bb C0        		.byte	-64
 2562 09bc 01        		.byte	1
 2563 09bd C0        		.byte	-64
 2564 09be 01        		.byte	1
 2565 09bf C0        		.byte	-64
 2566 09c0 03        		.byte	3
 2567 09c1 80        		.byte	-128
 2568 09c2 03        		.byte	3
 2569 09c3 80        		.byte	-128
 2570 09c4 03        		.byte	3
 2571 09c5 00        		.byte	0
 2572 09c6 07        		.byte	7
 2573 09c7 00        		.byte	0
 2574 09c8 07        		.byte	7
 2575 09c9 00        		.byte	0
 2576 09ca 0E        		.byte	14
 2577 09cb 00        		.byte	0
 2578 09cc 0E        		.byte	14
 2579 09cd 00        		.byte	0
 2580 09ce 1C        		.byte	28
 2581 09cf 00        		.byte	0
 2582 09d0 1C        		.byte	28
 2583 09d1 00        		.byte	0
 2584 09d2 1C        		.byte	28
 2585 09d3 00        		.byte	0
 2586 09d4 38        		.byte	56
 2587 09d5 00        		.byte	0
 2588 09d6 0F        		.byte	15
 2589 09d7 80        		.byte	-128
 2590 09d8 3F        		.byte	63
 2591 09d9 E0        		.byte	-32
 2592 09da 7F        		.byte	127
 2593 09db F0        		.byte	-16
 2594 09dc 70        		.byte	112
 2595 09dd 70        		.byte	112
 2596 09de E0        		.byte	-32
 2597 09df 70        		.byte	112
 2598 09e0 E0        		.byte	-32
 2599 09e1 70        		.byte	112
 2600 09e2 70        		.byte	112
 2601 09e3 70        		.byte	112
 2602 09e4 79        		.byte	121
 2603 09e5 E0        		.byte	-32
 2604 09e6 1F        		.byte	31
 2605 09e7 C0        		.byte	-64
 2606 09e8 1F        		.byte	31
 2607 09e9 80        		.byte	-128
 2608 09ea 3F        		.byte	63
 2609 09eb E0        		.byte	-32
 2610 09ec 70        		.byte	112
 2611 09ed F0        		.byte	-16
 2612 09ee E0        		.byte	-32
 2613 09ef 70        		.byte	112
 2614 09f0 E0        		.byte	-32
 2615 09f1 38        		.byte	56
 2616 09f2 C0        		.byte	-64
 2617 09f3 38        		.byte	56
 2618 09f4 E0        		.byte	-32
 2619 09f5 38        		.byte	56
 2620 09f6 E0        		.byte	-32
 2621 09f7 38        		.byte	56
 2622 09f8 F0        		.byte	-16
 2623 09f9 F0        		.byte	-16
 2624 09fa 7F        		.byte	127
 2625 09fb F0        		.byte	-16
 2626 09fc 3F        		.byte	63
 2627 09fd C0        		.byte	-64
 2628 09fe 06        		.byte	6
 2629 09ff 00        		.byte	0
 2630 0a00 1F        		.byte	31
 2631 0a01 80        		.byte	-128
 2632 0a02 3F        		.byte	63
 2633 0a03 C0        		.byte	-64
 2634 0a04 7F        		.byte	127
 2635 0a05 E0        		.byte	-32
 2636 0a06 E0        		.byte	-32
 2637 0a07 70        		.byte	112
 2638 0a08 E0        		.byte	-32
 2639 0a09 70        		.byte	112
 2640 0a0a C0        		.byte	-64
 2641 0a0b 30        		.byte	48
 2642 0a0c C0        		.byte	-64
 2643 0a0d 38        		.byte	56
 2644 0a0e E0        		.byte	-32
 2645 0a0f 38        		.byte	56
 2646 0a10 E0        		.byte	-32
 2647 0a11 78        		.byte	120
 2648 0a12 F0        		.byte	-16
 2649 0a13 F8        		.byte	-8
 2650 0a14 7F        		.byte	127
 2651 0a15 F8        		.byte	-8
 2652 0a16 3F        		.byte	63
 2653 0a17 B8        		.byte	-72
 2654 0a18 00        		.byte	0
 2655 0a19 30        		.byte	48
 2656 0a1a 00        		.byte	0
 2657 0a1b 30        		.byte	48
 2658 0a1c 00        		.byte	0
 2659 0a1d 70        		.byte	112
 2660 0a1e 00        		.byte	0
 2661 0a1f 70        		.byte	112
 2662 0a20 00        		.byte	0
 2663 0a21 E0        		.byte	-32
 2664 0a22 43        		.byte	67
 2665 0a23 E0        		.byte	-32
 2666 0a24 7F        		.byte	127
 2667 0a25 C0        		.byte	-64
 2668 0a26 7F        		.byte	127
 2669 0a27 00        		.byte	0
 2670 0a28 1C        		.byte	28
 2671 0a29 00        		.byte	0
 2672               	.global	RunParameter
 2673               		.data
 2676               	RunParameter:
 2677 0007 02        		.byte	2
 2678 0008 00        		.byte	0
 2679 0009 01        		.byte	1
 2680 000a 02        		.byte	2
 2681 000b 00        		.byte	0
 2682 000c 01        		.byte	1
 2683 000d 01        		.byte	1
 2684 000e 07        		.byte	7
 2685 000f 02        		.byte	2
 2686 0010 02        		.byte	2
 2687 0011 01        		.byte	1
 2688 0012 09        		.byte	9
 2689 0013 00        		.byte	0
 2690 0014 00        		.byte	0
 2691 0015 02        		.byte	2
 2692 0016 02        		.byte	2
 2693 0017 03        		.byte	3
 2694 0018 04        		.byte	4
 2695 0019 00        		.byte	0
 2696 001a 07        		.byte	7
 2697 001b 01        		.byte	1
 2698 001c 00        		.byte	0
 2699 001d 00        		.byte	0
 2700 001e 00        		.byte	0
 2701 001f 00        		.byte	0
 2702 0020 00        		.byte	0
 2703 0021 00        		.byte	0
 2704 0022 00        		.byte	0
 2705               		.text
 2706               	.global	s_10us
 2708               	s_10us:
 2709               	.LFB12:
 2710               	.LM1:
 2711               	/* prologue: frame size=0 */
 2712               	/* prologue end (size=0) */
 2713               	.L33:
 2714               	.LM2:
 2715 0000 0097      		sbiw r24,0
 2716 0002 41F0      		breq .L11
 2717               	.LM3:
 2718 0004 2FE3      		ldi r18,lo8(63)
 2719 0006 30E0      		ldi r19,hi8(63)
 2720               	.L8:
 2721 0008 2450      		subi r18,lo8(-(-4))
 2722 000a 3040      		sbci r19,hi8(-(-4))
 2723 000c 37FF      		sbrs r19,7
 2724 000e FCCF      		rjmp .L8
 2725               	.LM4:
 2726 0010 0197      		sbiw r24,1
 2727 0012 F6CF      		rjmp .L33
 2728               	.L11:
 2729 0014 0895      		ret
 2730               	/* epilogue: frame size=0 */
 2731               	/* epilogue: noreturn */
 2732               	/* epilogue end (size=0) */
 2733               	/* function s_10us size 11 (11) */
 2734               	.LFE12:
 2736               	.global	_delay_100ms
 2738               	_delay_100ms:
 2739               	.LFB13:
 2740               	.LM5:
 2741               	/* prologue: frame size=0 */
 2742 0016 CF93      		push r28
 2743 0018 DF93      		push r29
 2744               	/* prologue end (size=2) */
 2745 001a EC01      		movw r28,r24
 2746               	.LM6:
 2747 001c 892B      		or r24,r25
 2748 001e 31F0      		breq .L40
 2749               	.L38:
 2750               	.LM7:
 2751 0020 80E1      		ldi r24,lo8(10000)
 2752 0022 97E2      		ldi r25,hi8(10000)
 2753 0024 0E94 0000 		call s_10us
 2754               	.LM8:
 2755 0028 2197      		sbiw r28,1
 2756 002a D1F7      		brne .L38
 2757               	.L40:
 2758               	/* epilogue: frame size=0 */
 2759 002c DF91      		pop r29
 2760 002e CF91      		pop r28
 2761 0030 0895      		ret
 2762               	/* epilogue end (size=3) */
 2763               	/* function _delay_100ms size 15 (10) */
 2764               	.LFE13:
 2766               	.global	ds1820_reset
 2768               	ds1820_reset:
 2769               	.LFB14:
 2770               	.LM9:
 2771               	/* prologue: frame size=0 */
 2772               	/* prologue end (size=0) */
 2773               	.LM10:
 2774 0032 8FB7      		in r24,95-0x20
 2775 0034 8093 0000 		sts init_f,r24
 2776               	.LM11:
 2777               	/* #APP */
 2778 0038 F894      		cli
 2779               	.LM12:
 2780               	/* #NOAPP */
 2781 003a 8F9A      		sbi 49-0x20,7
 2782               	.LM13:
 2783 003c 9798      		cbi 50-0x20,7
 2784               	.LM14:
 2785 003e 8CE3      		ldi r24,lo8(60)
 2786 0040 90E0      		ldi r25,hi8(60)
 2787 0042 0E94 0000 		call s_10us
 2788               	.LM15:
 2789 0046 979A      		sbi 50-0x20,7
 2790               	.LM16:
 2791 0048 8F98      		cbi 49-0x20,7
 2792               	.LM17:
 2793 004a 85E0      		ldi r24,lo8(5)
 2794 004c 90E0      		ldi r25,hi8(5)
 2795 004e 0E94 0000 		call s_10us
 2796               	.LM18:
 2797 0052 80B3      		in r24,48-0x20
 2798               	.LM19:
 2799 0054 82E3      		ldi r24,lo8(50)
 2800 0056 90E0      		ldi r25,hi8(50)
 2801 0058 0E94 0000 		call s_10us
 2802               	.LM20:
 2803 005c 8091 0000 		lds r24,init_f
 2804 0060 87FF      		sbrs r24,7
 2805 0062 01C0      		rjmp .L41
 2806               	.LM21:
 2807               	/* #APP */
 2808 0064 7894      		sei
 2809               	/* #NOAPP */
 2810               	.L41:
 2811 0066 0895      		ret
 2812               	/* epilogue: frame size=0 */
 2813               	/* epilogue: noreturn */
 2814               	/* epilogue end (size=0) */
 2815               	/* function ds1820_reset size 29 (29) */
 2816               	.LFE14:
 2818               	.global	ds1820_read_byte
 2820               	ds1820_read_byte:
 2821               	.LFB15:
 2822               	.LM22:
 2823               	/* prologue: frame size=0 */
 2824 0068 1F93      		push r17
 2825 006a CF93      		push r28
 2826               	/* prologue end (size=2) */
 2827               	.LM23:
 2828 006c 10E0      		ldi r17,lo8(0)
 2829               	.LM24:
 2830 006e 8FB7      		in r24,95-0x20
 2831 0070 8093 0000 		sts init_f,r24
 2832               	.LM25:
 2833               	/* #APP */
 2834 0074 F894      		cli
 2835               	.LM26:
 2836               	/* #NOAPP */
 2837 0076 C8E0      		ldi r28,lo8(8)
 2838               	.L48:
 2839               	.LM27:
 2840 0078 1695      		lsr r17
 2841               	.LM28:
 2842 007a 8F9A      		sbi 49-0x20,7
 2843               	.LM29:
 2844 007c 9798      		cbi 50-0x20,7
 2845               	.LM30:
 2846 007e 81E0      		ldi r24,lo8(1)
 2847 0080 90E0      		ldi r25,hi8(1)
 2848 0082 0E94 0000 		call s_10us
 2849               	.LM31:
 2850 0086 979A      		sbi 50-0x20,7
 2851               	.LM32:
 2852 0088 8F98      		cbi 49-0x20,7
 2853               	.LM33:
 2854 008a 81E0      		ldi r24,lo8(1)
 2855 008c 90E0      		ldi r25,hi8(1)
 2856 008e 0E94 0000 		call s_10us
 2857               	.LM34:
 2858 0092 8799      		sbic 48-0x20,7
 2859               	.LM35:
 2860 0094 1068      		ori r17,lo8(-128)
 2861               	.L47:
 2862               	.LM36:
 2863 0096 83E0      		ldi r24,lo8(3)
 2864 0098 90E0      		ldi r25,hi8(3)
 2865 009a 0E94 0000 		call s_10us
 2866               	.LM37:
 2867 009e C150      		subi r28,lo8(-(-1))
 2868 00a0 59F7      		brne .L48
 2869               	.LM38:
 2870 00a2 8091 0000 		lds r24,init_f
 2871 00a6 87FF      		sbrs r24,7
 2872 00a8 01C0      		rjmp .L49
 2873               	.LM39:
 2874               	/* #APP */
 2875 00aa 7894      		sei
 2876               	/* #NOAPP */
 2877               	.L49:
 2878               	.LM40:
 2879 00ac 812F      		mov r24,r17
 2880 00ae 9927      		clr r25
 2881               	/* epilogue: frame size=0 */
 2882 00b0 CF91      		pop r28
 2883 00b2 1F91      		pop r17
 2884 00b4 0895      		ret
 2885               	/* epilogue end (size=3) */
 2886               	/* function ds1820_read_byte size 43 (38) */
 2887               	.LFE15:
 2889               	.global	ds1820_write_byte
 2891               	ds1820_write_byte:
 2892               	.LFB16:
 2893               	.LM41:
 2894               	/* prologue: frame size=0 */
 2895 00b6 1F93      		push r17
 2896 00b8 CF93      		push r28
 2897               	/* prologue end (size=2) */
 2898 00ba C82F      		mov r28,r24
 2899               	.LM42:
 2900 00bc 8FB7      		in r24,95-0x20
 2901 00be 8093 0000 		sts init_f,r24
 2902               	.LM43:
 2903               	/* #APP */
 2904 00c2 F894      		cli
 2905               	.LM44:
 2906               	/* #NOAPP */
 2907 00c4 18E0      		ldi r17,lo8(8)
 2908               	.L57:
 2909               	.LM45:
 2910 00c6 8F9A      		sbi 49-0x20,7
 2911               	.LM46:
 2912 00c8 9798      		cbi 50-0x20,7
 2913               	.LM47:
 2914 00ca 81E0      		ldi r24,lo8(1)
 2915 00cc 90E0      		ldi r25,hi8(1)
 2916 00ce 0E94 0000 		call s_10us
 2917               	.LM48:
 2918 00d2 C0FD      		sbrc r28,0
 2919               	.LM49:
 2920 00d4 979A      		sbi 50-0x20,7
 2921               	.L56:
 2922               	.LM50:
 2923 00d6 84E0      		ldi r24,lo8(4)
 2924 00d8 90E0      		ldi r25,hi8(4)
 2925 00da 0E94 0000 		call s_10us
 2926               	.LM51:
 2927 00de 979A      		sbi 50-0x20,7
 2928               	.LM52:
 2929 00e0 C695      		lsr r28
 2930               	.LM53:
 2931 00e2 1150      		subi r17,lo8(-(-1))
 2932 00e4 81F7      		brne .L57
 2933               	.LM54:
 2934 00e6 8091 0000 		lds r24,init_f
 2935 00ea 87FF      		sbrs r24,7
 2936 00ec 01C0      		rjmp .L52
 2937               	.LM55:
 2938               	/* #APP */
 2939 00ee 7894      		sei
 2940               	/* #NOAPP */
 2941               	.L52:
 2942               	/* epilogue: frame size=0 */
 2943 00f0 CF91      		pop r28
 2944 00f2 1F91      		pop r17
 2945 00f4 0895      		ret
 2946               	/* epilogue end (size=3) */
 2947               	/* function ds1820_write_byte size 36 (31) */
 2948               	.LFE16:
 2950               	.global	ds1820_start
 2952               	ds1820_start:
 2953               	.LFB17:
 2954               	.LM56:
 2955               	/* prologue: frame size=0 */
 2956               	/* prologue end (size=0) */
 2957               	.LM57:
 2958 00f6 0E94 0000 		call ds1820_reset
 2959               	.LM58:
 2960 00fa 8CEC      		ldi r24,lo8(-52)
 2961 00fc 0E94 0000 		call ds1820_write_byte
 2962               	.LM59:
 2963 0100 84E4      		ldi r24,lo8(68)
 2964 0102 0E94 0000 		call ds1820_write_byte
 2965               	/* epilogue: frame size=0 */
 2966 0106 0895      		ret
 2967               	/* epilogue end (size=1) */
 2968               	/* function ds1820_start size 9 (8) */
 2969               	.LFE17:
 2971               	.global	ReadTemputer
 2973               	ReadTemputer:
 2974               	.LFB18:
 2975               	.LM60:
 2976               	/* prologue: frame size=2 */
 2977 0108 CF92      		push r12
 2978 010a DF92      		push r13
 2979 010c EF92      		push r14
 2980 010e FF92      		push r15
 2981 0110 0F93      		push r16
 2982 0112 1F93      		push r17
 2983 0114 CF93      		push r28
 2984 0116 DF93      		push r29
 2985 0118 CDB7      		in r28,__SP_L__
 2986 011a DEB7      		in r29,__SP_H__
 2987 011c 2297      		sbiw r28,2
 2988 011e 0FB6      		in __tmp_reg__,__SREG__
 2989 0120 F894      		cli
 2990 0122 DEBF      		out __SP_H__,r29
 2991 0124 0FBE      		out __SREG__,__tmp_reg__
 2992 0126 CDBF      		out __SP_L__,r28
 2993               	/* prologue end (size=16) */
 2994               	.LM61:
 2995 0128 0E94 0000 		call ds1820_reset
 2996               	.LM62:
 2997 012c 8CEC      		ldi r24,lo8(-52)
 2998 012e 0E94 0000 		call ds1820_write_byte
 2999               	.LM63:
 3000 0132 8EEB      		ldi r24,lo8(-66)
 3001 0134 0E94 0000 		call ds1820_write_byte
 3002               	.LM64:
 3003 0138 EE24      		clr r14
 3004 013a FF24      		clr r15
 3005               	.L66:
 3006               	.LM65:
 3007 013c 6E01      		movw r12,r28
 3008 013e 0894      		sec
 3009 0140 C11C      		adc r12,__zero_reg__
 3010 0142 D11C      		adc r13,__zero_reg__
 3011 0144 8701      		movw r16,r14
 3012 0146 0C0D      		add r16,r12
 3013 0148 1D1D      		adc r17,r13
 3014 014a 0E94 0000 		call ds1820_read_byte
 3015 014e F801      		movw r30,r16
 3016 0150 8083      		st Z,r24
 3017               	.LM66:
 3018 0152 0894      		sec
 3019 0154 E11C      		adc r14,__zero_reg__
 3020 0156 F11C      		adc r15,__zero_reg__
 3021 0158 F2E0      		ldi r31,lo8(2)
 3022 015a EF16      		cp r14,r31
 3023 015c F104      		cpc r15,__zero_reg__
 3024 015e 70F3      		brlo .L66
 3025               	.LM67:
 3026 0160 F601      		movw r30,r12
 3027 0162 8181      		ldd r24,Z+1
 3028 0164 E82E      		mov r14,r24
 3029 0166 FF24      		clr r15
 3030               	.LM68:
 3031 0168 FE2C      		mov r15,r14
 3032 016a EE24      		clr r14
 3033               	.LM69:
 3034 016c 8981      		ldd r24,Y+1
 3035 016e 9927      		clr r25
 3036 0170 E82A      		or r14,r24
 3037 0172 F92A      		or r15,r25
 3038               	.LM70:
 3039 0174 C701      		movw r24,r14
 3040 0176 8070      		andi r24,lo8(-4096)
 3041 0178 907F      		andi r25,hi8(-4096)
 3042 017a 8050      		subi r24,lo8(-4096)
 3043 017c 904F      		sbci r25,hi8(-4096)
 3044 017e 31F4      		brne .L67
 3045               	.LM71:
 3046 0180 41E0      		ldi r20,lo8(1)
 3047               	.LM72:
 3048 0182 F094      		com r15
 3049 0184 E194      		neg r14
 3050 0186 F108      		sbc r15,__zero_reg__
 3051 0188 F394      		inc r15
 3052 018a 01C0      		rjmp .L68
 3053               	.L67:
 3054               	.LM73:
 3055 018c 40E0      		ldi r20,lo8(0)
 3056               	.L68:
 3057               	.LM74:
 3058 018e 9701      		movw r18,r14
 3059 0190 2F70      		andi r18,lo8(15)
 3060 0192 3070      		andi r19,hi8(15)
 3061               	.LM75:
 3062 0194 81E7      		ldi r24,lo8(625)
 3063 0196 92E0      		ldi r25,hi8(625)
 3064 0198 289F      		mul r18,r24
 3065 019a B001      		movw r22,r0
 3066 019c 299F      		mul r18,r25
 3067 019e 700D      		add r23,r0
 3068 01a0 389F      		mul r19,r24
 3069 01a2 700D      		add r23,r0
 3070 01a4 1124      		clr r1
 3071 01a6 CB01      		movw r24,r22
 3072 01a8 68EE      		ldi r22,lo8(1000)
 3073 01aa 73E0      		ldi r23,hi8(1000)
 3074 01ac 0E94 0000 		call __udivmodhi4
 3075 01b0 9B01      		movw r18,r22
 3076               	.LM76:
 3077 01b2 C701      		movw r24,r14
 3078 01b4 53E0      		ldi r21,3
 3079 01b6 880F      	1:	lsl r24
 3080 01b8 991F      		rol r25
 3081 01ba 5A95      		dec r21
 3082 01bc E1F7      		brne 1b
 3083 01be 8E0D      		add r24,r14
 3084 01c0 9F1D      		adc r25,r15
 3085 01c2 8E0D      		add r24,r14
 3086 01c4 9F1D      		adc r25,r15
 3087               	.LM77:
 3088 01c6 34E0      		ldi r19,4
 3089 01c8 9695      	1:	lsr r25
 3090 01ca 8795      		ror r24
 3091 01cc 3A95      		dec r19
 3092 01ce E1F7      		brne 1b
 3093 01d0 68EE      		ldi r22,lo8(1000)
 3094 01d2 73E0      		ldi r23,hi8(1000)
 3095 01d4 0E94 0000 		call __udivmodhi4
 3096 01d8 7C01      		movw r14,r24
 3097               	.LM78:
 3098 01da 64E6      		ldi r22,lo8(100)
 3099 01dc 70E0      		ldi r23,hi8(100)
 3100 01de 0E94 0000 		call __udivmodhi4
 3101               	.LM79:
 3102 01e2 4130      		cpi r20,lo8(1)
 3103 01e4 21F4      		brne .L69
 3104               	.LM80:
 3105 01e6 8EE0      		ldi r24,lo8(14)
 3106 01e8 8093 0000 		sts RunParameter+15,r24
 3107 01ec 02C0      		rjmp .L70
 3108               	.L69:
 3109               	.LM81:
 3110 01ee 6093 0000 		sts RunParameter+15,r22
 3111               	.L70:
 3112               	.LM82:
 3113 01f2 C701      		movw r24,r14
 3114 01f4 64E6      		ldi r22,lo8(100)
 3115 01f6 70E0      		ldi r23,hi8(100)
 3116 01f8 0E94 0000 		call __udivmodhi4
 3117               	.LM83:
 3118 01fc 6AE0      		ldi r22,lo8(10)
 3119 01fe 70E0      		ldi r23,hi8(10)
 3120 0200 0E94 0000 		call __udivmodhi4
 3121               	.LM84:
 3122 0204 6093 0000 		sts RunParameter+16,r22
 3123               	.LM85:
 3124 0208 2093 0000 		sts RunParameter+17,r18
 3125               	/* epilogue: frame size=2 */
 3126 020c 2296      		adiw r28,2
 3127 020e 0FB6      		in __tmp_reg__,__SREG__
 3128 0210 F894      		cli
 3129 0212 DEBF      		out __SP_H__,r29
 3130 0214 0FBE      		out __SREG__,__tmp_reg__
 3131 0216 CDBF      		out __SP_L__,r28
 3132 0218 DF91      		pop r29
 3133 021a CF91      		pop r28
 3134 021c 1F91      		pop r17
 3135 021e 0F91      		pop r16
 3136 0220 FF90      		pop r15
 3137 0222 EF90      		pop r14
 3138 0224 DF90      		pop r13
 3139 0226 CF90      		pop r12
 3140 0228 0895      		ret
 3141               	/* epilogue end (size=15) */
 3142               	/* function ReadTemputer size 146 (115) */
 3143               	.LFE18:
 3145               	.global	SaveRunParameter
 3147               	SaveRunParameter:
 3148               	.LFB19:
 3149               	.LM86:
 3150               	/* prologue: frame size=0 */
 3151               	/* prologue end (size=0) */
 3152               	.LM87:
 3153               	/* #APP */
 3154 022a F894      		cli
 3155               	.LM88:
 3156               	/* #NOAPP */
 3157 022c 8CB3      		in r24,60-0x20
 3158 022e 9927      		clr r25
 3159 0230 DC01      		movw r26,r24
 3160 0232 A270      		andi r26,lo8(2)
 3161 0234 B070      		andi r27,hi8(2)
 3162 0236 81FD      		sbrc r24,1
 3163 0238 43C0      		rjmp .L74
 3164               	.LBB2:
 3165               	.LM89:
 3166 023a 8CEC      		ldi r24,lo8(-52)
 3167               	.LBB3:
 3168               	.LM90:
 3169               	/* #APP */
 3170 023c 082E      		mov __tmp_reg__,r24
 3171 023e 0E94 0000 		call __eeprom_write_byte_1C1D1E
 3172               	/* #NOAPP */
 3173               	.LBE3:
 3174               	.LBE2:
 3175               	.LBB4:
 3176               	.LM91:
 3177 0242 A1E0      		ldi r26,lo8(1)
 3178 0244 B0E0      		ldi r27,hi8(1)
 3179 0246 8091 0000 		lds r24,RunParameter+18
 3180               	.LBB5:
 3181               	.LM92:
 3182               	/* #APP */
 3183 024a 082E      		mov __tmp_reg__,r24
 3184 024c 0E94 0000 		call __eeprom_write_byte_1C1D1E
 3185               	/* #NOAPP */
 3186               	.LBE5:
 3187               	.LBE4:
 3188               	.LBB6:
 3189               	.LM93:
 3190 0250 A2E0      		ldi r26,lo8(2)
 3191 0252 B0E0      		ldi r27,hi8(2)
 3192 0254 8091 0000 		lds r24,RunParameter+19
 3193               	.LBB7:
 3194               	.LM94:
 3195               	/* #APP */
 3196 0258 082E      		mov __tmp_reg__,r24
 3197 025a 0E94 0000 		call __eeprom_write_byte_1C1D1E
 3198               	/* #NOAPP */
 3199               	.LBE7:
 3200               	.LBE6:
 3201               	.LBB8:
 3202               	.LM95:
 3203 025e A3E0      		ldi r26,lo8(3)
 3204 0260 B0E0      		ldi r27,hi8(3)
 3205 0262 8091 0000 		lds r24,RunParameter+20
 3206               	.LBB9:
 3207               	.LM96:
 3208               	/* #APP */
 3209 0266 082E      		mov __tmp_reg__,r24
 3210 0268 0E94 0000 		call __eeprom_write_byte_1C1D1E
 3211               	/* #NOAPP */
 3212               	.LBE9:
 3213               	.LBE8:
 3214               	.LBB10:
 3215               	.LM97:
 3216 026c A4E0      		ldi r26,lo8(4)
 3217 026e B0E0      		ldi r27,hi8(4)
 3218 0270 8091 0000 		lds r24,RunParameter+21
 3219               	.LBB11:
 3220               	.LM98:
 3221               	/* #APP */
 3222 0274 082E      		mov __tmp_reg__,r24
 3223 0276 0E94 0000 		call __eeprom_write_byte_1C1D1E
 3224               	/* #NOAPP */
 3225               	.LBE11:
 3226               	.LBE10:
 3227               	.LBB12:
 3228               	.LM99:
 3229 027a A5E0      		ldi r26,lo8(5)
 3230 027c B0E0      		ldi r27,hi8(5)
 3231 027e 8091 0000 		lds r24,RunParameter+22
 3232               	.LBB13:
 3233               	.LM100:
 3234               	/* #APP */
 3235 0282 082E      		mov __tmp_reg__,r24
 3236 0284 0E94 0000 		call __eeprom_write_byte_1C1D1E
 3237               	/* #NOAPP */
 3238               	.LBE13:
 3239               	.LBE12:
 3240               	.LBB14:
 3241               	.LM101:
 3242 0288 A6E0      		ldi r26,lo8(6)
 3243 028a B0E0      		ldi r27,hi8(6)
 3244 028c 8091 0000 		lds r24,RunParameter+23
 3245               	.LBB15:
 3246               	.LM102:
 3247               	/* #APP */
 3248 0290 082E      		mov __tmp_reg__,r24
 3249 0292 0E94 0000 		call __eeprom_write_byte_1C1D1E
 3250               	/* #NOAPP */
 3251               	.LBE15:
 3252               	.LBE14:
 3253               	.LBB16:
 3254               	.LM103:
 3255 0296 A7E0      		ldi r26,lo8(7)
 3256 0298 B0E0      		ldi r27,hi8(7)
 3257 029a 8091 0000 		lds r24,RunParameter+24
 3258               	.LBB17:
 3259               	.LM104:
 3260               	/* #APP */
 3261 029e 082E      		mov __tmp_reg__,r24
 3262 02a0 0E94 0000 		call __eeprom_write_byte_1C1D1E
 3263               	/* #NOAPP */
 3264               	.LBE17:
 3265               	.LBE16:
 3266               	.LBB18:
 3267               	.LM105:
 3268 02a4 A8E0      		ldi r26,lo8(8)
 3269 02a6 B0E0      		ldi r27,hi8(8)
 3270 02a8 8091 0000 		lds r24,RunParameter+26
 3271               	.LBB19:
 3272               	.LM106:
 3273               	/* #APP */
 3274 02ac 082E      		mov __tmp_reg__,r24
 3275 02ae 0E94 0000 		call __eeprom_write_byte_1C1D1E
 3276               	/* #NOAPP */
 3277               	.LBE19:
 3278               	.LBE18:
 3279               	.LBB20:
 3280               	.LM107:
 3281 02b2 A9E0      		ldi r26,lo8(9)
 3282 02b4 B0E0      		ldi r27,hi8(9)
 3283 02b6 8091 0000 		lds r24,RunParameter+27
 3284               	.LBB21:
 3285               	.LM108:
 3286               	/* #APP */
 3287 02ba 082E      		mov __tmp_reg__,r24
 3288 02bc 0E94 0000 		call __eeprom_write_byte_1C1D1E
 3289               	/* #NOAPP */
 3290               	.L74:
 3291               	.LBE21:
 3292               	.LBE20:
 3293               	.LM109:
 3294               	/* #APP */
 3295 02c0 7894      		sei
 3296               	/* #NOAPP */
 3297               	/* epilogue: frame size=0 */
 3298 02c2 0895      		ret
 3299               	/* epilogue end (size=1) */
 3300               	/* function SaveRunParameter size 89 (88) */
 3301               	.LFE19:
 3303               	.global	ReadRunParameter
 3305               	ReadRunParameter:
 3306               	.LFB20:
 3307               	.LM110:
 3308               	/* prologue: frame size=0 */
 3309               	/* prologue end (size=0) */
 3310               	.LM111:
 3311               	/* #APP */
 3312 02c4 F894      		cli
 3313               	.LM112:
 3314               	/* #NOAPP */
 3315 02c6 8CB3      		in r24,60-0x20
 3316 02c8 9927      		clr r25
 3317 02ca DC01      		movw r26,r24
 3318 02cc A270      		andi r26,lo8(2)
 3319 02ce B070      		andi r27,hi8(2)
 3320 02d0 81FD      		sbrc r24,1
 3321 02d2 46C0      		rjmp .L86
 3322               	.LBB22:
 3323               	.LBB23:
 3324               	.LM113:
 3325               	/* #APP */
 3326 02d4 0E94 0000 		call __eeprom_read_byte_1C1D1E
 3327 02d8 802D      		mov r24,__tmp_reg__
 3328               	/* #NOAPP */
 3329               	.LBE23:
 3330               	.LBE22:
 3331               	.LM114:
 3332 02da 8C3C      		cpi r24,lo8(-52)
 3333 02dc 09F0      		breq .+2
 3334 02de 38C0      		rjmp .L87
 3335               	.LBB24:
 3336 02e0 A1E0      		ldi r26,lo8(1)
 3337 02e2 B0E0      		ldi r27,hi8(1)
 3338               	.LBB25:
 3339               	.LM115:
 3340               	/* #APP */
 3341 02e4 0E94 0000 		call __eeprom_read_byte_1C1D1E
 3342 02e8 802D      		mov r24,__tmp_reg__
 3343               	/* #NOAPP */
 3344               	.LBE25:
 3345               	.LBE24:
 3346               	.LM116:
 3347 02ea 8093 0000 		sts RunParameter+18,r24
 3348               	.LBB26:
 3349 02ee A2E0      		ldi r26,lo8(2)
 3350 02f0 B0E0      		ldi r27,hi8(2)
 3351               	.LBB27:
 3352               	.LM117:
 3353               	/* #APP */
 3354 02f2 0E94 0000 		call __eeprom_read_byte_1C1D1E
 3355 02f6 802D      		mov r24,__tmp_reg__
 3356               	/* #NOAPP */
 3357               	.LBE27:
 3358               	.LBE26:
 3359               	.LM118:
 3360 02f8 8093 0000 		sts RunParameter+19,r24
 3361               	.LBB28:
 3362 02fc A3E0      		ldi r26,lo8(3)
 3363 02fe B0E0      		ldi r27,hi8(3)
 3364               	.LBB29:
 3365               	.LM119:
 3366               	/* #APP */
 3367 0300 0E94 0000 		call __eeprom_read_byte_1C1D1E
 3368 0304 802D      		mov r24,__tmp_reg__
 3369               	/* #NOAPP */
 3370               	.LBE29:
 3371               	.LBE28:
 3372               	.LM120:
 3373 0306 8093 0000 		sts RunParameter+20,r24
 3374               	.LBB30:
 3375 030a A5E0      		ldi r26,lo8(5)
 3376 030c B0E0      		ldi r27,hi8(5)
 3377               	.LBB31:
 3378               	.LM121:
 3379               	/* #APP */
 3380 030e 0E94 0000 		call __eeprom_read_byte_1C1D1E
 3381 0312 802D      		mov r24,__tmp_reg__
 3382               	/* #NOAPP */
 3383               	.LBE31:
 3384               	.LBE30:
 3385               	.LM122:
 3386 0314 8093 0000 		sts RunParameter+22,r24
 3387               	.LBB32:
 3388 0318 A6E0      		ldi r26,lo8(6)
 3389 031a B0E0      		ldi r27,hi8(6)
 3390               	.LBB33:
 3391               	.LM123:
 3392               	/* #APP */
 3393 031c 0E94 0000 		call __eeprom_read_byte_1C1D1E
 3394 0320 802D      		mov r24,__tmp_reg__
 3395               	/* #NOAPP */
 3396               	.LBE33:
 3397               	.LBE32:
 3398               	.LM124:
 3399 0322 8093 0000 		sts RunParameter+23,r24
 3400               	.LBB34:
 3401 0326 A7E0      		ldi r26,lo8(7)
 3402 0328 B0E0      		ldi r27,hi8(7)
 3403               	.LBB35:
 3404               	.LM125:
 3405               	/* #APP */
 3406 032a 0E94 0000 		call __eeprom_read_byte_1C1D1E
 3407 032e 802D      		mov r24,__tmp_reg__
 3408               	/* #NOAPP */
 3409               	.LBE35:
 3410               	.LBE34:
 3411               	.LM126:
 3412 0330 8093 0000 		sts RunParameter+24,r24
 3413               	.LBB36:
 3414 0334 A8E0      		ldi r26,lo8(8)
 3415 0336 B0E0      		ldi r27,hi8(8)
 3416               	.LBB37:
 3417               	.LM127:
 3418               	/* #APP */
 3419 0338 0E94 0000 		call __eeprom_read_byte_1C1D1E
 3420 033c 802D      		mov r24,__tmp_reg__
 3421               	/* #NOAPP */
 3422               	.LBE37:
 3423               	.LBE36:
 3424               	.LM128:
 3425 033e 8093 0000 		sts RunParameter+26,r24
 3426               	.LBB38:
 3427 0342 A9E0      		ldi r26,lo8(9)
 3428 0344 B0E0      		ldi r27,hi8(9)
 3429               	.LBB39:
 3430               	.LM129:
 3431               	/* #APP */
 3432 0346 0E94 0000 		call __eeprom_read_byte_1C1D1E
 3433 034a 802D      		mov r24,__tmp_reg__
 3434               	/* #NOAPP */
 3435               	.LBE39:
 3436               	.LBE38:
 3437               	.LM130:
 3438 034c 8093 0000 		sts RunParameter+27,r24
 3439               	.L87:
 3440               	.LM131:
 3441 0350 9091 0000 		lds r25,RunParameter+19
 3442 0354 89E1      		ldi r24,lo8(25)
 3443 0356 989F      		mul r25,r24
 3444 0358 C001      		movw r24,r0
 3445 035a 1124      		clr r1
 3446 035c 8851      		subi r24,lo8(-(-24))
 3447 035e 8CBF      		out 92-0x20,r24
 3448               	.L86:
 3449               	.LM132:
 3450               	/* #APP */
 3451 0360 7894      		sei
 3452               	/* #NOAPP */
 3453               	/* epilogue: frame size=0 */
 3454 0362 0895      		ret
 3455               	/* epilogue end (size=1) */
 3456               	/* function ReadRunParameter size 91 (90) */
 3457               	.LFE20:
 3459               	.global	LED_SCREEN_INI
 3461               	LED_SCREEN_INI:
 3462               	.LFB21:
 3463               	.LM133:
 3464               	/* prologue: frame size=0 */
 3465               	/* prologue end (size=0) */
 3466               	.LM134:
 3467 0364 BB9A      		sbi 55-0x20,3
 3468               	.LM135:
 3469 0366 B89A      		sbi 55-0x20,0
 3470               	.LM136:
 3471 0368 B99A      		sbi 55-0x20,1
 3472               	.LM137:
 3473 036a BA9A      		sbi 55-0x20,2
 3474               	.LM138:
 3475 036c BC9A      		sbi 55-0x20,4
 3476               	.LM139:
 3477 036e 8C9A      		sbi 49-0x20,4
 3478               	.LM140:
 3479 0370 8D9A      		sbi 49-0x20,5
 3480               	.LM141:
 3481 0372 BE9A      		sbi 55-0x20,6
 3482               	.LM142:
 3483 0374 BF9A      		sbi 55-0x20,7
 3484               	.LM143:
 3485 0376 8A9A      		sbi 49-0x20,2
 3486               	.LM144:
 3487 0378 8B9A      		sbi 49-0x20,3
 3488               	.LM145:
 3489 037a 1092 0000 		sts display_cnt,__zero_reg__
 3490               	.LM146:
 3491 037e 1092 0000 		sts (halfSecondCount)+1,__zero_reg__
 3492 0382 1092 0000 		sts halfSecondCount,__zero_reg__
 3493               	.LM147:
 3494 0386 1092 0000 		sts isSecondCountShow,__zero_reg__
 3495               	.LM148:
 3496 038a 1092 0000 		sts currentMoveLeft,__zero_reg__
 3497               	.LM149:
 3498 038e 1092 0000 		sts (moveSpeedTimerCount)+1,__zero_reg__
 3499 0392 1092 0000 		sts moveSpeedTimerCount,__zero_reg__
 3500               	.LM150:
 3501 0396 1092 0000 		sts (FreshDisplayBufferCount)+1,__zero_reg__
 3502 039a 1092 0000 		sts FreshDisplayBufferCount,__zero_reg__
 3503               	/* epilogue: frame size=0 */
 3504 039e 0895      		ret
 3505               	/* epilogue end (size=1) */
 3506               	/* function LED_SCREEN_INI size 30 (29) */
 3507               	.LFE21:
 3509               	.global	clearScreen
 3511               	clearScreen:
 3512               	.LFB22:
 3513               	.LM151:
 3514               	/* prologue: frame size=0 */
 3515               	/* prologue end (size=0) */
 3516               	.LM152:
 3517 03a0 80E0      		ldi r24,lo8(256)
 3518 03a2 91E0      		ldi r25,hi8(256)
 3519 03a4 E0E0      		ldi r30,lo8(display_buffer)
 3520 03a6 F0E0      		ldi r31,hi8(display_buffer)
 3521 03a8 1192      		st Z+,__zero_reg__
 3522 03aa 0197      		sbiw r24,1
 3523 03ac E9F7      		brne .-6
 3524               	/* epilogue: frame size=0 */
 3525 03ae 0895      		ret
 3526               	/* epilogue end (size=1) */
 3527               	/* function clearScreen size 8 (7) */
 3528               	.LFE22:
 3530               	.global	fullScreen
 3532               	fullScreen:
 3533               	.LFB23:
 3534               	.LM153:
 3535               	/* prologue: frame size=0 */
 3536               	/* prologue end (size=0) */
 3537               	.LM154:
 3538 03b0 40E0      		ldi r20,lo8(256)
 3539 03b2 51E0      		ldi r21,hi8(256)
 3540 03b4 6FEF      		ldi r22,lo8(255)
 3541 03b6 70E0      		ldi r23,hi8(255)
 3542 03b8 80E0      		ldi r24,lo8(display_buffer)
 3543 03ba 90E0      		ldi r25,hi8(display_buffer)
 3544 03bc 0E94 0000 		call memset
 3545               	/* epilogue: frame size=0 */
 3546 03c0 0895      		ret
 3547               	/* epilogue end (size=1) */
 3548               	/* function fullScreen size 9 (8) */
 3549               	.LFE23:
 3551               	.global	writeCloclColon
 3553               	writeCloclColon:
 3554               	.LFB24:
 3555               	.LM155:
 3556               	/* prologue: frame size=0 */
 3557 03c2 CF93      		push r28
 3558               	/* prologue end (size=1) */
 3559 03c4 9091 0000 		lds r25,display_buffer+36
 3560 03c8 2091 0000 		lds r18,display_buffer+44
 3561 03cc 3091 0000 		lds r19,display_buffer+52
 3562 03d0 4091 0000 		lds r20,display_buffer+35
 3563 03d4 5091 0000 		lds r21,display_buffer+43
 3564 03d8 6091 0000 		lds r22,display_buffer+51
 3565 03dc 7091 0000 		lds r23,display_buffer+108
 3566 03e0 E091 0000 		lds r30,display_buffer+116
 3567 03e4 F091 0000 		lds r31,display_buffer+124
 3568 03e8 A091 0000 		lds r26,display_buffer+107
 3569 03ec B091 0000 		lds r27,display_buffer+115
 3570 03f0 C091 0000 		lds r28,display_buffer+123
 3571               	.LM156:
 3572 03f4 8823      		tst r24
 3573 03f6 19F1      		breq .L101
 3574               	.LM157:
 3575 03f8 906C      		ori r25,lo8(-64)
 3576 03fa 9093 0000 		sts display_buffer+36,r25
 3577               	.LM158:
 3578 03fe 206C      		ori r18,lo8(-64)
 3579 0400 2093 0000 		sts display_buffer+44,r18
 3580               	.LM159:
 3581 0404 306C      		ori r19,lo8(-64)
 3582 0406 3093 0000 		sts display_buffer+52,r19
 3583               	.LM160:
 3584 040a 4160      		ori r20,lo8(1)
 3585 040c 4093 0000 		sts display_buffer+35,r20
 3586               	.LM161:
 3587 0410 5160      		ori r21,lo8(1)
 3588 0412 5093 0000 		sts display_buffer+43,r21
 3589               	.LM162:
 3590 0416 6160      		ori r22,lo8(1)
 3591 0418 6093 0000 		sts display_buffer+51,r22
 3592               	.LM163:
 3593 041c 706C      		ori r23,lo8(-64)
 3594 041e 7093 0000 		sts display_buffer+108,r23
 3595               	.LM164:
 3596 0422 E06C      		ori r30,lo8(-64)
 3597 0424 E093 0000 		sts display_buffer+116,r30
 3598               	.LM165:
 3599 0428 F06C      		ori r31,lo8(-64)
 3600 042a F093 0000 		sts display_buffer+124,r31
 3601               	.LM166:
 3602 042e A160      		ori r26,lo8(1)
 3603 0430 A093 0000 		sts display_buffer+107,r26
 3604               	.LM167:
 3605 0434 B160      		ori r27,lo8(1)
 3606 0436 B093 0000 		sts display_buffer+115,r27
 3607               	.LM168:
 3608 043a C160      		ori r28,lo8(1)
 3609 043c 22C0      		rjmp .L103
 3610               	.L101:
 3611               	.LM169:
 3612 043e 9F73      		andi r25,lo8(63)
 3613 0440 9093 0000 		sts display_buffer+36,r25
 3614               	.LM170:
 3615 0444 2F73      		andi r18,lo8(63)
 3616 0446 2093 0000 		sts display_buffer+44,r18
 3617               	.LM171:
 3618 044a 3F73      		andi r19,lo8(63)
 3619 044c 3093 0000 		sts display_buffer+52,r19
 3620               	.LM172:
 3621 0450 4E7F      		andi r20,lo8(-2)
 3622 0452 4093 0000 		sts display_buffer+35,r20
 3623               	.LM173:
 3624 0456 5E7F      		andi r21,lo8(-2)
 3625 0458 5093 0000 		sts display_buffer+43,r21
 3626               	.LM174:
 3627 045c 6E7F      		andi r22,lo8(-2)
 3628 045e 6093 0000 		sts display_buffer+51,r22
 3629               	.LM175:
 3630 0462 7F73      		andi r23,lo8(63)
 3631 0464 7093 0000 		sts display_buffer+108,r23
 3632               	.LM176:
 3633 0468 EF73      		andi r30,lo8(63)
 3634 046a E093 0000 		sts display_buffer+116,r30
 3635               	.LM177:
 3636 046e FF73      		andi r31,lo8(63)
 3637 0470 F093 0000 		sts display_buffer+124,r31
 3638               	.LM178:
 3639 0474 AE7F      		andi r26,lo8(-2)
 3640 0476 A093 0000 		sts display_buffer+107,r26
 3641               	.LM179:
 3642 047a BE7F      		andi r27,lo8(-2)
 3643 047c B093 0000 		sts display_buffer+115,r27
 3644               	.LM180:
 3645 0480 CE7F      		andi r28,lo8(-2)
 3646               	.L103:
 3647 0482 C093 0000 		sts display_buffer+123,r28
 3648               	/* epilogue: frame size=0 */
 3649 0486 CF91      		pop r28
 3650 0488 0895      		ret
 3651               	/* epilogue end (size=2) */
 3652               	/* function writeCloclColon size 100 (97) */
 3653               	.LFE24:
 3655               	.global	writeOneChinese
 3657               	writeOneChinese:
 3658               	.LFB25:
 3659               	.LM181:
 3660               	/* prologue: frame size=0 */
 3661               	/* prologue end (size=0) */
 3662 048a 242F      		mov r18,r20
 3663 048c 3327      		clr r19
 3664 048e A62F      		mov r26,r22
 3665 0490 BB27      		clr r27
 3666 0492 E3E0      		ldi r30,3
 3667 0494 AA0F      	1:	lsl r26
 3668 0496 BB1F      		rol r27
 3669 0498 EA95      		dec r30
 3670 049a E1F7      		brne 1b
 3671 049c A80F      		add r26,r24
 3672 049e B11D      		adc r27,__zero_reg__
 3673 04a0 A050      		subi r26,lo8(-(display_buffer))
 3674 04a2 B040      		sbci r27,hi8(-(display_buffer))
 3675 04a4 9FE0      		ldi r25,lo8(15)
 3676 04a6 75E0      		ldi r23,5
 3677 04a8 220F      	1:	lsl r18
 3678 04aa 331F      		rol r19
 3679 04ac 7A95      		dec r23
 3680 04ae E1F7      		brne 1b
 3681 04b0 A901      		movw r20,r18
 3682 04b2 4050      		subi r20,lo8(-(CHINESE+1))
 3683 04b4 5040      		sbci r21,hi8(-(CHINESE+1))
 3684 04b6 2050      		subi r18,lo8(-(CHINESE))
 3685 04b8 3040      		sbci r19,hi8(-(CHINESE))
 3686               	.L108:
 3687               	.LBB40:
 3688               	.LM182:
 3689 04ba F901      		movw r30,r18
 3690               	/* #APP */
 3691 04bc 8491      		lpm r24, Z
 3692               		
 3693               	/* #NOAPP */
 3694               	.LBE40:
 3695               	.LM183:
 3696 04be 8C93      		st X,r24
 3697               	.LBB41:
 3698               	.LM184:
 3699 04c0 FA01      		movw r30,r20
 3700               	/* #APP */
 3701 04c2 8491      		lpm r24, Z
 3702               		
 3703               	/* #NOAPP */
 3704               	.LBE41:
 3705               	.LM185:
 3706 04c4 FD01      		movw r30,r26
 3707 04c6 8183      		std Z+1,r24
 3708               	.LM186:
 3709 04c8 9150      		subi r25,lo8(-(-1))
 3710 04ca 2E5F      		subi r18,lo8(-(2))
 3711 04cc 3F4F      		sbci r19,hi8(-(2))
 3712 04ce 4E5F      		subi r20,lo8(-(2))
 3713 04d0 5F4F      		sbci r21,hi8(-(2))
 3714 04d2 1896      		adiw r26,8
 3715 04d4 97FF      		sbrs r25,7
 3716 04d6 F1CF      		rjmp .L108
 3717               	/* epilogue: frame size=0 */
 3718 04d8 0895      		ret
 3719               	/* epilogue end (size=1) */
 3720               	/* function writeOneChinese size 46 (45) */
 3721               	.LFE25:
 3723               	.global	writeOneUnSCROLL
 3725               	writeOneUnSCROLL:
 3726               	.LFB26:
 3727               	.LM187:
 3728               	/* prologue: frame size=0 */
 3729               	/* prologue end (size=0) */
 3730 04da 9AE0      		ldi r25,lo8(10)
 3731 04dc 499F      		mul r20,r25
 3732 04de A001      		movw r20,r0
 3733 04e0 1124      		clr r1
 3734 04e2 A62F      		mov r26,r22
 3735 04e4 BB27      		clr r27
 3736 04e6 F3E0      		ldi r31,3
 3737 04e8 AA0F      	1:	lsl r26
 3738 04ea BB1F      		rol r27
 3739 04ec FA95      		dec r31
 3740 04ee E1F7      		brne 1b
 3741 04f0 A80F      		add r26,r24
 3742 04f2 B11D      		adc r27,__zero_reg__
 3743 04f4 A050      		subi r26,lo8(-(display_buffer))
 3744 04f6 B040      		sbci r27,hi8(-(display_buffer))
 3745 04f8 4050      		subi r20,lo8(-(SCROLL))
 3746 04fa 5040      		sbci r21,hi8(-(SCROLL))
 3747 04fc 99E0      		ldi r25,lo8(9)
 3748               	.L115:
 3749               	.LBB42:
 3750               	.LM188:
 3751 04fe FA01      		movw r30,r20
 3752               	/* #APP */
 3753 0500 8491      		lpm r24, Z
 3754               		
 3755               	/* #NOAPP */
 3756               	.LBE42:
 3757               	.LM189:
 3758 0502 8C93      		st X,r24
 3759 0504 1896      		adiw r26,8
 3760               	.LM190:
 3761 0506 9150      		subi r25,lo8(-(-1))
 3762 0508 4F5F      		subi r20,lo8(-(1))
 3763 050a 5F4F      		sbci r21,hi8(-(1))
 3764 050c 97FF      		sbrs r25,7
 3765 050e F7CF      		rjmp .L115
 3766               	/* epilogue: frame size=0 */
 3767 0510 0895      		ret
 3768               	/* epilogue end (size=1) */
 3769               	/* function writeOneUnSCROLL size 31 (30) */
 3770               	.LFE26:
 3772               	.global	writeOneSCROLL
 3774               	writeOneSCROLL:
 3775               	.LFB27:
 3776               	.LM191:
 3777               	/* prologue: frame size=0 */
 3778               	/* prologue end (size=0) */
 3779 0512 982F      		mov r25,r24
 3780               	.LM192:
 3781 0514 8091 0000 		lds r24,RunParameter+27
 3782 0518 8823      		tst r24
 3783 051a E1F4      		brne .L119
 3784 051c 8AE0      		ldi r24,lo8(10)
 3785 051e 489F      		mul r20,r24
 3786 0520 9001      		movw r18,r0
 3787 0522 1124      		clr r1
 3788 0524 A62F      		mov r26,r22
 3789 0526 BB27      		clr r27
 3790 0528 53E0      		ldi r21,3
 3791 052a AA0F      	1:	lsl r26
 3792 052c BB1F      		rol r27
 3793 052e 5A95      		dec r21
 3794 0530 E1F7      		brne 1b
 3795 0532 A90F      		add r26,r25
 3796 0534 B11D      		adc r27,__zero_reg__
 3797 0536 A050      		subi r26,lo8(-(display_buffer))
 3798 0538 B040      		sbci r27,hi8(-(display_buffer))
 3799 053a 2050      		subi r18,lo8(-(SCROLL_STYLE1))
 3800 053c 3040      		sbci r19,hi8(-(SCROLL_STYLE1))
 3801 053e 99E0      		ldi r25,lo8(9)
 3802               	.L123:
 3803               	.LBB43:
 3804               	.LM193:
 3805 0540 F901      		movw r30,r18
 3806               	/* #APP */
 3807 0542 8491      		lpm r24, Z
 3808               		
 3809               	/* #NOAPP */
 3810               	.LBE43:
 3811               	.LM194:
 3812 0544 8C93      		st X,r24
 3813 0546 5896      		adiw r26,24
 3814               	.LM195:
 3815 0548 9150      		subi r25,lo8(-(-1))
 3816 054a 2F5F      		subi r18,lo8(-(1))
 3817 054c 3F4F      		sbci r19,hi8(-(1))
 3818 054e 97FF      		sbrs r25,7
 3819 0550 F7CF      		rjmp .L123
 3820 0552 0895      		ret
 3821               	.L119:
 3822               	.LM196:
 3823 0554 8130      		cpi r24,lo8(1)
 3824 0556 E1F4      		brne .L125
 3825 0558 8AE0      		ldi r24,lo8(10)
 3826 055a 489F      		mul r20,r24
 3827 055c 9001      		movw r18,r0
 3828 055e 1124      		clr r1
 3829 0560 A62F      		mov r26,r22
 3830 0562 BB27      		clr r27
 3831 0564 43E0      		ldi r20,3
 3832 0566 AA0F      	1:	lsl r26
 3833 0568 BB1F      		rol r27
 3834 056a 4A95      		dec r20
 3835 056c E1F7      		brne 1b
 3836 056e A90F      		add r26,r25
 3837 0570 B11D      		adc r27,__zero_reg__
 3838 0572 A050      		subi r26,lo8(-(display_buffer))
 3839 0574 B040      		sbci r27,hi8(-(display_buffer))
 3840 0576 2050      		subi r18,lo8(-(SCROLL_STYLE2))
 3841 0578 3040      		sbci r19,hi8(-(SCROLL_STYLE2))
 3842 057a 99E0      		ldi r25,lo8(9)
 3843               	.L129:
 3844               	.LBB44:
 3845               	.LM197:
 3846 057c F901      		movw r30,r18
 3847               	/* #APP */
 3848 057e 8491      		lpm r24, Z
 3849               		
 3850               	/* #NOAPP */
 3851               	.LBE44:
 3852               	.LM198:
 3853 0580 8C93      		st X,r24
 3854 0582 5896      		adiw r26,24
 3855               	.LM199:
 3856 0584 9150      		subi r25,lo8(-(-1))
 3857 0586 2F5F      		subi r18,lo8(-(1))
 3858 0588 3F4F      		sbci r19,hi8(-(1))
 3859 058a 97FF      		sbrs r25,7
 3860 058c F7CF      		rjmp .L129
 3861 058e 0895      		ret
 3862               	.L125:
 3863 0590 8AE0      		ldi r24,lo8(10)
 3864 0592 489F      		mul r20,r24
 3865 0594 9001      		movw r18,r0
 3866 0596 1124      		clr r1
 3867 0598 A62F      		mov r26,r22
 3868 059a BB27      		clr r27
 3869 059c 83E0      		ldi r24,3
 3870 059e AA0F      	1:	lsl r26
 3871 05a0 BB1F      		rol r27
 3872 05a2 8A95      		dec r24
 3873 05a4 E1F7      		brne 1b
 3874 05a6 A90F      		add r26,r25
 3875 05a8 B11D      		adc r27,__zero_reg__
 3876 05aa A050      		subi r26,lo8(-(display_buffer))
 3877 05ac B040      		sbci r27,hi8(-(display_buffer))
 3878 05ae 2050      		subi r18,lo8(-(SCROLL_STYLE3))
 3879 05b0 3040      		sbci r19,hi8(-(SCROLL_STYLE3))
 3880 05b2 99E0      		ldi r25,lo8(9)
 3881               	.L134:
 3882               	.LBB45:
 3883               	.LM200:
 3884 05b4 F901      		movw r30,r18
 3885               	/* #APP */
 3886 05b6 8491      		lpm r24, Z
 3887               		
 3888               	/* #NOAPP */
 3889               	.LBE45:
 3890               	.LM201:
 3891 05b8 8C93      		st X,r24
 3892 05ba 5896      		adiw r26,24
 3893               	.LM202:
 3894 05bc 9150      		subi r25,lo8(-(-1))
 3895 05be 2F5F      		subi r18,lo8(-(1))
 3896 05c0 3F4F      		sbci r19,hi8(-(1))
 3897 05c2 97FF      		sbrs r25,7
 3898 05c4 F7CF      		rjmp .L134
 3899 05c6 0895      		ret
 3900               	/* epilogue: frame size=0 */
 3901               	/* epilogue: noreturn */
 3902               	/* epilogue end (size=0) */
 3903               	/* function writeOneSCROLL size 100 (100) */
 3904               	.LFE27:
 3906               	.global	wirteOneBigNumber
 3908               	wirteOneBigNumber:
 3909               	.LFB28:
 3910               	.LM203:
 3911               	/* prologue: frame size=0 */
 3912 05c8 EF92      		push r14
 3913 05ca FF92      		push r15
 3914 05cc 1F93      		push r17
 3915 05ce CF93      		push r28
 3916 05d0 DF93      		push r29
 3917               	/* prologue end (size=5) */
 3918               	.LM204:
 3919 05d2 9091 0000 		lds r25,RunParameter+27
 3920 05d6 9923      		tst r25
 3921 05d8 09F0      		breq .+2
 3922 05da 49C0      		rjmp .L141
 3923 05dc 242F      		mov r18,r20
 3924 05de 3327      		clr r19
 3925 05e0 A82F      		mov r26,r24
 3926 05e2 BB27      		clr r27
 3927 05e4 7727      		clr r23
 3928 05e6 C8E0      		ldi r28,lo8(8)
 3929 05e8 D0E0      		ldi r29,hi8(8)
 3930 05ea C61B      		sub r28,r22
 3931 05ec D70B      		sbc r29,r23
 3932 05ee A050      		subi r26,lo8(-(display_buffer))
 3933 05f0 B040      		sbci r27,hi8(-(display_buffer))
 3934 05f2 85E1      		ldi r24,lo8(21)
 3935 05f4 90E0      		ldi r25,hi8(21)
 3936 05f6 289F      		mul r18,r24
 3937 05f8 A001      		movw r20,r0
 3938 05fa 299F      		mul r18,r25
 3939 05fc 500D      		add r21,r0
 3940 05fe 389F      		mul r19,r24
 3941 0600 500D      		add r21,r0
 3942 0602 1124      		clr r1
 3943 0604 CA01      		movw r24,r20
 3944 0606 14E1      		ldi r17,lo8(20)
 3945 0608 840F      		add r24,r20
 3946 060a 951F      		adc r25,r21
 3947 060c AC01      		movw r20,r24
 3948 060e 4050      		subi r20,lo8(-(BIG_NUMBER_STYLE1+1))
 3949 0610 5040      		sbci r21,hi8(-(BIG_NUMBER_STYLE1+1))
 3950 0612 F0E0      		ldi r31,lo8(BIG_NUMBER_STYLE1)
 3951 0614 EF2E      		mov r14,r31
 3952 0616 F0E0      		ldi r31,hi8(BIG_NUMBER_STYLE1)
 3953 0618 FF2E      		mov r15,r31
 3954 061a E80E      		add r14,r24
 3955 061c F91E      		adc r15,r25
 3956               	.L145:
 3957               	.LBB46:
 3958               	.LM205:
 3959 061e F701      		movw r30,r14
 3960               	/* #APP */
 3961 0620 2491      		lpm r18, Z
 3962               		
 3963               	/* #NOAPP */
 3964               	.LBE46:
 3965               	.LM206:
 3966 0622 3327      		clr r19
 3967 0624 C901      		movw r24,r18
 3968 0626 062E      		mov r0,r22
 3969 0628 02C0      		rjmp 2f
 3970 062a 9595      	1:	asr r25
 3971 062c 8795      		ror r24
 3972 062e 0A94      	2:	dec r0
 3973 0630 E2F7      		brpl 1b
 3974 0632 8C93      		st X,r24
 3975               	.LBB47:
 3976               	.LM207:
 3977 0634 FA01      		movw r30,r20
 3978               	/* #APP */
 3979 0636 8491      		lpm r24, Z
 3980               		
 3981               	/* #NOAPP */
 3982               	.LBE47:
 3983               	.LM208:
 3984 0638 0C2E      		mov r0,r28
 3985 063a 02C0      		rjmp 2f
 3986 063c 220F      	1:	lsl r18
 3987 063e 331F      		rol r19
 3988 0640 0A94      	2:	dec r0
 3989 0642 E2F7      		brpl 1b
 3990 0644 9927      		clr r25
 3991 0646 062E      		mov r0,r22
 3992 0648 02C0      		rjmp 2f
 3993 064a 9595      	1:	asr r25
 3994 064c 8795      		ror r24
 3995 064e 0A94      	2:	dec r0
 3996 0650 E2F7      		brpl 1b
 3997 0652 822B      		or r24,r18
 3998 0654 FD01      		movw r30,r26
 3999 0656 8183      		std Z+1,r24
 4000               	.LM209:
 4001 0658 1150      		subi r17,lo8(-(-1))
 4002 065a 82E0      		ldi r24,lo8(2)
 4003 065c 90E0      		ldi r25,hi8(2)
 4004 065e E80E      		add r14,r24
 4005 0660 F91E      		adc r15,r25
 4006 0662 480F      		add r20,r24
 4007 0664 591F      		adc r21,r25
 4008 0666 1896      		adiw r26,8
 4009 0668 17FF      		sbrs r17,7
 4010 066a D9CF      		rjmp .L145
 4011 066c 94C0      		rjmp .L140
 4012               	.L141:
 4013               	.LM210:
 4014 066e 9130      		cpi r25,lo8(1)
 4015 0670 09F0      		breq .+2
 4016 0672 49C0      		rjmp .L147
 4017 0674 242F      		mov r18,r20
 4018 0676 3327      		clr r19
 4019 0678 A82F      		mov r26,r24
 4020 067a BB27      		clr r27
 4021 067c 7727      		clr r23
 4022 067e C8E0      		ldi r28,lo8(8)
 4023 0680 D0E0      		ldi r29,hi8(8)
 4024 0682 C61B      		sub r28,r22
 4025 0684 D70B      		sbc r29,r23
 4026 0686 A050      		subi r26,lo8(-(display_buffer))
 4027 0688 B040      		sbci r27,hi8(-(display_buffer))
 4028 068a 85E1      		ldi r24,lo8(21)
 4029 068c 90E0      		ldi r25,hi8(21)
 4030 068e 289F      		mul r18,r24
 4031 0690 F001      		movw r30,r0
 4032 0692 299F      		mul r18,r25
 4033 0694 F00D      		add r31,r0
 4034 0696 389F      		mul r19,r24
 4035 0698 F00D      		add r31,r0
 4036 069a 1124      		clr r1
 4037 069c CF01      		movw r24,r30
 4038 069e 14E1      		ldi r17,lo8(20)
 4039 06a0 8E0F      		add r24,r30
 4040 06a2 9F1F      		adc r25,r31
 4041 06a4 AC01      		movw r20,r24
 4042 06a6 4050      		subi r20,lo8(-(BIG_NUMBER_STYLE2+1))
 4043 06a8 5040      		sbci r21,hi8(-(BIG_NUMBER_STYLE2+1))
 4044 06aa E0E0      		ldi r30,lo8(BIG_NUMBER_STYLE2)
 4045 06ac EE2E      		mov r14,r30
 4046 06ae E0E0      		ldi r30,hi8(BIG_NUMBER_STYLE2)
 4047 06b0 FE2E      		mov r15,r30
 4048 06b2 E80E      		add r14,r24
 4049 06b4 F91E      		adc r15,r25
 4050               	.L151:
 4051               	.LBB48:
 4052               	.LM211:
 4053 06b6 F701      		movw r30,r14
 4054               	/* #APP */
 4055 06b8 2491      		lpm r18, Z
 4056               		
 4057               	/* #NOAPP */
 4058               	.LBE48:
 4059               	.LM212:
 4060 06ba 3327      		clr r19
 4061 06bc C901      		movw r24,r18
 4062 06be 062E      		mov r0,r22
 4063 06c0 02C0      		rjmp 2f
 4064 06c2 9595      	1:	asr r25
 4065 06c4 8795      		ror r24
 4066 06c6 0A94      	2:	dec r0
 4067 06c8 E2F7      		brpl 1b
 4068 06ca 8C93      		st X,r24
 4069               	.LBB49:
 4070               	.LM213:
 4071 06cc FA01      		movw r30,r20
 4072               	/* #APP */
 4073 06ce 8491      		lpm r24, Z
 4074               		
 4075               	/* #NOAPP */
 4076               	.LBE49:
 4077               	.LM214:
 4078 06d0 0C2E      		mov r0,r28
 4079 06d2 02C0      		rjmp 2f
 4080 06d4 220F      	1:	lsl r18
 4081 06d6 331F      		rol r19
 4082 06d8 0A94      	2:	dec r0
 4083 06da E2F7      		brpl 1b
 4084 06dc 9927      		clr r25
 4085 06de 062E      		mov r0,r22
 4086 06e0 02C0      		rjmp 2f
 4087 06e2 9595      	1:	asr r25
 4088 06e4 8795      		ror r24
 4089 06e6 0A94      	2:	dec r0
 4090 06e8 E2F7      		brpl 1b
 4091 06ea 822B      		or r24,r18
 4092 06ec FD01      		movw r30,r26
 4093 06ee 8183      		std Z+1,r24
 4094               	.LM215:
 4095 06f0 1150      		subi r17,lo8(-(-1))
 4096 06f2 82E0      		ldi r24,lo8(2)
 4097 06f4 90E0      		ldi r25,hi8(2)
 4098 06f6 E80E      		add r14,r24
 4099 06f8 F91E      		adc r15,r25
 4100 06fa 480F      		add r20,r24
 4101 06fc 591F      		adc r21,r25
 4102 06fe 1896      		adiw r26,8
 4103 0700 17FF      		sbrs r17,7
 4104 0702 D9CF      		rjmp .L151
 4105 0704 48C0      		rjmp .L140
 4106               	.L147:
 4107 0706 242F      		mov r18,r20
 4108 0708 3327      		clr r19
 4109 070a A82F      		mov r26,r24
 4110 070c BB27      		clr r27
 4111 070e 7727      		clr r23
 4112 0710 C8E0      		ldi r28,lo8(8)
 4113 0712 D0E0      		ldi r29,hi8(8)
 4114 0714 C61B      		sub r28,r22
 4115 0716 D70B      		sbc r29,r23
 4116 0718 A050      		subi r26,lo8(-(display_buffer))
 4117 071a B040      		sbci r27,hi8(-(display_buffer))
 4118 071c 85E1      		ldi r24,lo8(21)
 4119 071e 90E0      		ldi r25,hi8(21)
 4120 0720 289F      		mul r18,r24
 4121 0722 F001      		movw r30,r0
 4122 0724 299F      		mul r18,r25
 4123 0726 F00D      		add r31,r0
 4124 0728 389F      		mul r19,r24
 4125 072a F00D      		add r31,r0
 4126 072c 1124      		clr r1
 4127 072e CF01      		movw r24,r30
 4128 0730 14E1      		ldi r17,lo8(20)
 4129 0732 8E0F      		add r24,r30
 4130 0734 9F1F      		adc r25,r31
 4131 0736 AC01      		movw r20,r24
 4132 0738 4050      		subi r20,lo8(-(BIG_NUMBER_STYLE3+1))
 4133 073a 5040      		sbci r21,hi8(-(BIG_NUMBER_STYLE3+1))
 4134 073c 70E0      		ldi r23,lo8(BIG_NUMBER_STYLE3)
 4135 073e E72E      		mov r14,r23
 4136 0740 70E0      		ldi r23,hi8(BIG_NUMBER_STYLE3)
 4137 0742 F72E      		mov r15,r23
 4138 0744 E80E      		add r14,r24
 4139 0746 F91E      		adc r15,r25
 4140               	.L156:
 4141               	.LBB50:
 4142               	.LM216:
 4143 0748 F701      		movw r30,r14
 4144               	/* #APP */
 4145 074a 2491      		lpm r18, Z
 4146               		
 4147               	/* #NOAPP */
 4148               	.LBE50:
 4149               	.LM217:
 4150 074c 3327      		clr r19
 4151 074e C901      		movw r24,r18
 4152 0750 062E      		mov r0,r22
 4153 0752 02C0      		rjmp 2f
 4154 0754 9595      	1:	asr r25
 4155 0756 8795      		ror r24
 4156 0758 0A94      	2:	dec r0
 4157 075a E2F7      		brpl 1b
 4158 075c 8C93      		st X,r24
 4159               	.LBB51:
 4160               	.LM218:
 4161 075e FA01      		movw r30,r20
 4162               	/* #APP */
 4163 0760 8491      		lpm r24, Z
 4164               		
 4165               	/* #NOAPP */
 4166               	.LBE51:
 4167               	.LM219:
 4168 0762 0C2E      		mov r0,r28
 4169 0764 02C0      		rjmp 2f
 4170 0766 220F      	1:	lsl r18
 4171 0768 331F      		rol r19
 4172 076a 0A94      	2:	dec r0
 4173 076c E2F7      		brpl 1b
 4174 076e 9927      		clr r25
 4175 0770 062E      		mov r0,r22
 4176 0772 02C0      		rjmp 2f
 4177 0774 9595      	1:	asr r25
 4178 0776 8795      		ror r24
 4179 0778 0A94      	2:	dec r0
 4180 077a E2F7      		brpl 1b
 4181 077c 822B      		or r24,r18
 4182 077e FD01      		movw r30,r26
 4183 0780 8183      		std Z+1,r24
 4184               	.LM220:
 4185 0782 1150      		subi r17,lo8(-(-1))
 4186 0784 82E0      		ldi r24,lo8(2)
 4187 0786 90E0      		ldi r25,hi8(2)
 4188 0788 E80E      		add r14,r24
 4189 078a F91E      		adc r15,r25
 4190 078c 480F      		add r20,r24
 4191 078e 591F      		adc r21,r25
 4192 0790 1896      		adiw r26,8
 4193 0792 17FF      		sbrs r17,7
 4194 0794 D9CF      		rjmp .L156
 4195               	.L140:
 4196               	/* epilogue: frame size=0 */
 4197 0796 DF91      		pop r29
 4198 0798 CF91      		pop r28
 4199 079a 1F91      		pop r17
 4200 079c FF90      		pop r15
 4201 079e EF90      		pop r14
 4202 07a0 0895      		ret
 4203               	/* epilogue end (size=6) */
 4204               	/* function wirteOneBigNumber size 255 (244) */
 4205               	.LFE28:
 4207               	.global	FreshDisplayComment
 4209               	FreshDisplayComment:
 4210               	.LFB29:
 4211               	.LM221:
 4212               	/* prologue: frame size=0 */
 4213 07a2 DF92      		push r13
 4214 07a4 EF92      		push r14
 4215 07a6 FF92      		push r15
 4216 07a8 0F93      		push r16
 4217 07aa 1F93      		push r17
 4218               	/* prologue end (size=5) */
 4219 07ac 8C01      		movw r16,r24
 4220 07ae 7B01      		movw r14,r22
 4221 07b0 D42E      		mov r13,r20
 4222               	.LM222:
 4223 07b2 0E94 0000 		call clearScreen
 4224               	.LM223:
 4225 07b6 4CE1      		ldi r20,lo8(28)
 4226 07b8 60E0      		ldi r22,lo8(0)
 4227 07ba 862F      		mov r24,r22
 4228 07bc 0E94 0000 		call writeOneUnSCROLL
 4229               	.LM224:
 4230 07c0 4DE1      		ldi r20,lo8(29)
 4231 07c2 60E0      		ldi r22,lo8(0)
 4232 07c4 81E0      		ldi r24,lo8(1)
 4233 07c6 0E94 0000 		call writeOneUnSCROLL
 4234               	.LM225:
 4235 07ca 4EE1      		ldi r20,lo8(30)
 4236 07cc 60E0      		ldi r22,lo8(0)
 4237 07ce 82E0      		ldi r24,lo8(2)
 4238 07d0 0E94 0000 		call writeOneUnSCROLL
 4239               	.LM226:
 4240 07d4 F801      		movw r30,r16
 4241 07d6 4081      		ld r20,Z
 4242 07d8 60E0      		ldi r22,lo8(0)
 4243 07da 83E0      		ldi r24,lo8(3)
 4244 07dc 0E94 0000 		call wirteOneBigNumber
 4245               	.LM227:
 4246 07e0 F701      		movw r30,r14
 4247 07e2 4081      		ld r20,Z
 4248 07e4 60E0      		ldi r22,lo8(0)
 4249 07e6 85E0      		ldi r24,lo8(5)
 4250 07e8 0E94 0000 		call wirteOneBigNumber
 4251               	.LM228:
 4252 07ec 4D2D      		mov r20,r13
 4253 07ee 6BE0      		ldi r22,lo8(11)
 4254 07f0 87E0      		ldi r24,lo8(7)
 4255 07f2 0E94 0000 		call writeOneUnSCROLL
 4256               	/* epilogue: frame size=0 */
 4257 07f6 1F91      		pop r17
 4258 07f8 0F91      		pop r16
 4259 07fa FF90      		pop r15
 4260 07fc EF90      		pop r14
 4261 07fe DF90      		pop r13
 4262 0800 0895      		ret
 4263               	/* epilogue end (size=6) */
 4264               	/* function FreshDisplayComment size 48 (37) */
 4265               	.LFE29:
 4267               	.global	FreshDisplayBufferAjustYear
 4269               	FreshDisplayBufferAjustYear:
 4270               	.LFB30:
 4271               	.LM229:
 4272               	/* prologue: frame size=0 */
 4273               	/* prologue end (size=0) */
 4274               	.LM230:
 4275 0802 4AE0      		ldi r20,lo8(10)
 4276 0804 60E0      		ldi r22,lo8(RunParameter+3)
 4277 0806 70E0      		ldi r23,hi8(RunParameter+3)
 4278 0808 80E0      		ldi r24,lo8(RunParameter+2)
 4279 080a 90E0      		ldi r25,hi8(RunParameter+2)
 4280 080c 0E94 0000 		call FreshDisplayComment
 4281               	/* epilogue: frame size=0 */
 4282 0810 0895      		ret
 4283               	/* epilogue end (size=1) */
 4284               	/* function FreshDisplayBufferAjustYear size 8 (7) */
 4285               	.LFE30:
 4287               	.global	FreshDisplayBufferAjustMonth
 4289               	FreshDisplayBufferAjustMonth:
 4290               	.LFB31:
 4291               	.LM231:
 4292               	/* prologue: frame size=0 */
 4293               	/* prologue end (size=0) */
 4294               	.LM232:
 4295 0812 4BE0      		ldi r20,lo8(11)
 4296 0814 60E0      		ldi r22,lo8(RunParameter+5)
 4297 0816 70E0      		ldi r23,hi8(RunParameter+5)
 4298 0818 80E0      		ldi r24,lo8(RunParameter+4)
 4299 081a 90E0      		ldi r25,hi8(RunParameter+4)
 4300 081c 0E94 0000 		call FreshDisplayComment
 4301               	/* epilogue: frame size=0 */
 4302 0820 0895      		ret
 4303               	/* epilogue end (size=1) */
 4304               	/* function FreshDisplayBufferAjustMonth size 8 (7) */
 4305               	.LFE31:
 4307               	.global	FreshDisplayBufferAjustDay
 4309               	FreshDisplayBufferAjustDay:
 4310               	.LFB32:
 4311               	.LM233:
 4312               	/* prologue: frame size=0 */
 4313               	/* prologue end (size=0) */
 4314               	.LM234:
 4315 0822 44E1      		ldi r20,lo8(20)
 4316 0824 60E0      		ldi r22,lo8(RunParameter+7)
 4317 0826 70E0      		ldi r23,hi8(RunParameter+7)
 4318 0828 80E0      		ldi r24,lo8(RunParameter+6)
 4319 082a 90E0      		ldi r25,hi8(RunParameter+6)
 4320 082c 0E94 0000 		call FreshDisplayComment
 4321               	/* epilogue: frame size=0 */
 4322 0830 0895      		ret
 4323               	/* epilogue end (size=1) */
 4324               	/* function FreshDisplayBufferAjustDay size 8 (7) */
 4325               	.LFE32:
 4327               	.global	FreshDisplayBufferAjustHour
 4329               	FreshDisplayBufferAjustHour:
 4330               	.LFB33:
 4331               	.LM235:
 4332               	/* prologue: frame size=0 */
 4333               	/* prologue end (size=0) */
 4334               	.LM236:
 4335 0832 47E1      		ldi r20,lo8(23)
 4336 0834 60E0      		ldi r22,lo8(RunParameter+9)
 4337 0836 70E0      		ldi r23,hi8(RunParameter+9)
 4338 0838 80E0      		ldi r24,lo8(RunParameter+8)
 4339 083a 90E0      		ldi r25,hi8(RunParameter+8)
 4340 083c 0E94 0000 		call FreshDisplayComment
 4341               	/* epilogue: frame size=0 */
 4342 0840 0895      		ret
 4343               	/* epilogue end (size=1) */
 4344               	/* function FreshDisplayBufferAjustHour size 8 (7) */
 4345               	.LFE33:
 4347               	.global	FreshDisplayBufferAjustMinute
 4349               	FreshDisplayBufferAjustMinute:
 4350               	.LFB34:
 4351               	.LM237:
 4352               	/* prologue: frame size=0 */
 4353               	/* prologue end (size=0) */
 4354               	.LM238:
 4355 0842 48E1      		ldi r20,lo8(24)
 4356 0844 60E0      		ldi r22,lo8(RunParameter+11)
 4357 0846 70E0      		ldi r23,hi8(RunParameter+11)
 4358 0848 80E0      		ldi r24,lo8(RunParameter+10)
 4359 084a 90E0      		ldi r25,hi8(RunParameter+10)
 4360 084c 0E94 0000 		call FreshDisplayComment
 4361               	/* epilogue: frame size=0 */
 4362 0850 0895      		ret
 4363               	/* epilogue end (size=1) */
 4364               	/* function FreshDisplayBufferAjustMinute size 8 (7) */
 4365               	.LFE34:
 4367               	.global	FreshDisplayBufferAjustWeek
 4369               	FreshDisplayBufferAjustWeek:
 4370               	.LFB35:
 4371               	.LM239:
 4372               	/* prologue: frame size=0 */
 4373               	/* prologue end (size=0) */
 4374               	.LM240:
 4375 0852 0E94 0000 		call clearScreen
 4376               	.LM241:
 4377 0856 4CE1      		ldi r20,lo8(28)
 4378 0858 60E0      		ldi r22,lo8(0)
 4379 085a 862F      		mov r24,r22
 4380 085c 0E94 0000 		call writeOneUnSCROLL
 4381               	.LM242:
 4382 0860 4DE1      		ldi r20,lo8(29)
 4383 0862 60E0      		ldi r22,lo8(0)
 4384 0864 81E0      		ldi r24,lo8(1)
 4385 0866 0E94 0000 		call writeOneUnSCROLL
 4386               	.LM243:
 4387 086a 4EE1      		ldi r20,lo8(30)
 4388 086c 60E0      		ldi r22,lo8(0)
 4389 086e 82E0      		ldi r24,lo8(2)
 4390 0870 0E94 0000 		call writeOneUnSCROLL
 4391               	.LM244:
 4392 0874 4CE0      		ldi r20,lo8(12)
 4393 0876 6BE0      		ldi r22,lo8(11)
 4394 0878 83E0      		ldi r24,lo8(3)
 4395 087a 0E94 0000 		call writeOneUnSCROLL
 4396               	.LM245:
 4397 087e 4091 0000 		lds r20,RunParameter+14
 4398 0882 60E0      		ldi r22,lo8(0)
 4399 0884 85E0      		ldi r24,lo8(5)
 4400 0886 0E94 0000 		call wirteOneBigNumber
 4401               	/* epilogue: frame size=0 */
 4402 088a 0895      		ret
 4403               	/* epilogue end (size=1) */
 4404               	/* function FreshDisplayBufferAjustWeek size 29 (28) */
 4405               	.LFE35:
 4407               	.global	FreshDisplayBufferAjustSpeed
 4409               	FreshDisplayBufferAjustSpeed:
 4410               	.LFB36:
 4411               	.LM246:
 4412               	/* prologue: frame size=0 */
 4413               	/* prologue end (size=0) */
 4414               	.LM247:
 4415 088c 0E94 0000 		call clearScreen
 4416               	.LM248:
 4417 0890 4CE1      		ldi r20,lo8(28)
 4418 0892 60E0      		ldi r22,lo8(0)
 4419 0894 862F      		mov r24,r22
 4420 0896 0E94 0000 		call writeOneUnSCROLL
 4421               	.LM249:
 4422 089a 4DE1      		ldi r20,lo8(29)
 4423 089c 60E0      		ldi r22,lo8(0)
 4424 089e 81E0      		ldi r24,lo8(1)
 4425 08a0 0E94 0000 		call writeOneUnSCROLL
 4426               	.LM250:
 4427 08a4 4BE2      		ldi r20,lo8(43)
 4428 08a6 60E0      		ldi r22,lo8(0)
 4429 08a8 82E0      		ldi r24,lo8(2)
 4430 08aa 0E94 0000 		call writeOneUnSCROLL
 4431               	.LM251:
 4432 08ae 4DE0      		ldi r20,lo8(13)
 4433 08b0 60E0      		ldi r22,lo8(0)
 4434 08b2 83E0      		ldi r24,lo8(3)
 4435 08b4 0E94 0000 		call writeOneUnSCROLL
 4436               	.LM252:
 4437 08b8 4EE1      		ldi r20,lo8(30)
 4438 08ba 60E0      		ldi r22,lo8(0)
 4439 08bc 84E0      		ldi r24,lo8(4)
 4440 08be 0E94 0000 		call writeOneUnSCROLL
 4441               	.LM253:
 4442 08c2 4091 0000 		lds r20,RunParameter+20
 4443 08c6 60E0      		ldi r22,lo8(0)
 4444 08c8 85E0      		ldi r24,lo8(5)
 4445 08ca 0E94 0000 		call wirteOneBigNumber
 4446               	/* epilogue: frame size=0 */
 4447 08ce 0895      		ret
 4448               	/* epilogue end (size=1) */
 4449               	/* function FreshDisplayBufferAjustSpeed size 34 (33) */
 4450               	.LFE36:
 4452               	.global	FreshDisplayBufferAjustLightMode
 4454               	FreshDisplayBufferAjustLightMode:
 4455               	.LFB37:
 4456               	.LM254:
 4457               	/* prologue: frame size=0 */
 4458               	/* prologue end (size=0) */
 4459               	.LM255:
 4460 08d0 0E94 0000 		call clearScreen
 4461               	.LM256:
 4462 08d4 4CE1      		ldi r20,lo8(28)
 4463 08d6 60E0      		ldi r22,lo8(0)
 4464 08d8 862F      		mov r24,r22
 4465 08da 0E94 0000 		call writeOneUnSCROLL
 4466               	.LM257:
 4467 08de 4DE1      		ldi r20,lo8(29)
 4468 08e0 60E0      		ldi r22,lo8(0)
 4469 08e2 81E0      		ldi r24,lo8(1)
 4470 08e4 0E94 0000 		call writeOneUnSCROLL
 4471               	.LM258:
 4472 08e8 49E1      		ldi r20,lo8(25)
 4473 08ea 60E0      		ldi r22,lo8(0)
 4474 08ec 82E0      		ldi r24,lo8(2)
 4475 08ee 0E94 0000 		call writeOneUnSCROLL
 4476               	.LM259:
 4477 08f2 4DE0      		ldi r20,lo8(13)
 4478 08f4 60E0      		ldi r22,lo8(0)
 4479 08f6 83E0      		ldi r24,lo8(3)
 4480 08f8 0E94 0000 		call writeOneUnSCROLL
 4481               	.LM260:
 4482 08fc 4EE1      		ldi r20,lo8(30)
 4483 08fe 60E0      		ldi r22,lo8(0)
 4484 0900 84E0      		ldi r24,lo8(4)
 4485 0902 0E94 0000 		call writeOneUnSCROLL
 4486               	.LM261:
 4487 0906 4091 0000 		lds r20,RunParameter+18
 4488 090a 4111      		cpse r20,__zero_reg__
 4489               	.LM262:
 4490 090c 41E0      		ldi r20,lo8(1)
 4491               	.L171:
 4492               	.LM263:
 4493 090e 6CE0      		ldi r22,lo8(12)
 4494 0910 83E0      		ldi r24,lo8(3)
 4495 0912 0E94 0000 		call writeOneChinese
 4496               	.LM264:
 4497 0916 42E0      		ldi r20,lo8(2)
 4498 0918 6CE0      		ldi r22,lo8(12)
 4499 091a 85E0      		ldi r24,lo8(5)
 4500 091c 0E94 0000 		call writeOneChinese
 4501               	/* epilogue: frame size=0 */
 4502 0920 0895      		ret
 4503               	/* epilogue end (size=1) */
 4504               	/* function FreshDisplayBufferAjustLightMode size 42 (41) */
 4505               	.LFE37:
 4507               	.global	FreshDisplayBufferAjustLight
 4509               	FreshDisplayBufferAjustLight:
 4510               	.LFB38:
 4511               	.LM265:
 4512               	/* prologue: frame size=0 */
 4513               	/* prologue end (size=0) */
 4514               	.LM266:
 4515 0922 0E94 0000 		call clearScreen
 4516               	.LM267:
 4517 0926 8091 0000 		lds r24,RunParameter+18
 4518 092a 8823      		tst r24
 4519 092c 01F1      		breq .L174
 4520               	.LM268:
 4521 092e 4CE1      		ldi r20,lo8(28)
 4522 0930 60E0      		ldi r22,lo8(0)
 4523 0932 862F      		mov r24,r22
 4524 0934 0E94 0000 		call writeOneUnSCROLL
 4525               	.LM269:
 4526 0938 4DE1      		ldi r20,lo8(29)
 4527 093a 60E0      		ldi r22,lo8(0)
 4528 093c 81E0      		ldi r24,lo8(1)
 4529 093e 0E94 0000 		call writeOneUnSCROLL
 4530               	.LM270:
 4531 0942 49E1      		ldi r20,lo8(25)
 4532 0944 60E0      		ldi r22,lo8(0)
 4533 0946 82E0      		ldi r24,lo8(2)
 4534 0948 0E94 0000 		call writeOneUnSCROLL
 4535               	.LM271:
 4536 094c 4DE0      		ldi r20,lo8(13)
 4537 094e 60E0      		ldi r22,lo8(0)
 4538 0950 83E0      		ldi r24,lo8(3)
 4539 0952 0E94 0000 		call writeOneUnSCROLL
 4540               	.LM272:
 4541 0956 4EE1      		ldi r20,lo8(30)
 4542 0958 60E0      		ldi r22,lo8(0)
 4543 095a 84E0      		ldi r24,lo8(4)
 4544 095c 0E94 0000 		call writeOneUnSCROLL
 4545               	.LM273:
 4546 0960 4091 0000 		lds r20,RunParameter+19
 4547 0964 60E0      		ldi r22,lo8(0)
 4548 0966 85E0      		ldi r24,lo8(5)
 4549 0968 0E94 0000 		call wirteOneBigNumber
 4550 096c 0895      		ret
 4551               	.L174:
 4552               	.LM274:
 4553 096e 0E94 0000 		call FreshDisplayBufferAjustLightMode
 4554 0972 0895      		ret
 4555               	/* epilogue: frame size=0 */
 4556               	/* epilogue: noreturn */
 4557               	/* epilogue end (size=0) */
 4558               	/* function FreshDisplayBufferAjustLight size 41 (41) */
 4559               	.LFE38:
 4561               	.global	FreshDisplayBufferChangeFont
 4563               	FreshDisplayBufferChangeFont:
 4564               	.LFB39:
 4565               	.LM275:
 4566               	/* prologue: frame size=0 */
 4567               	/* prologue end (size=0) */
 4568               	.LM276:
 4569 0974 0E94 0000 		call clearScreen
 4570               	.LM277:
 4571 0978 4CE1      		ldi r20,lo8(28)
 4572 097a 60E0      		ldi r22,lo8(0)
 4573 097c 862F      		mov r24,r22
 4574 097e 0E94 0000 		call writeOneUnSCROLL
 4575               	.LM278:
 4576 0982 4DE1      		ldi r20,lo8(29)
 4577 0984 60E0      		ldi r22,lo8(0)
 4578 0986 81E0      		ldi r24,lo8(1)
 4579 0988 0E94 0000 		call writeOneUnSCROLL
 4580               	.LM279:
 4581 098c 4CE2      		ldi r20,lo8(44)
 4582 098e 60E0      		ldi r22,lo8(0)
 4583 0990 82E0      		ldi r24,lo8(2)
 4584 0992 0E94 0000 		call writeOneUnSCROLL
 4585               	.LM280:
 4586 0996 4DE2      		ldi r20,lo8(45)
 4587 0998 60E0      		ldi r22,lo8(0)
 4588 099a 83E0      		ldi r24,lo8(3)
 4589 099c 0E94 0000 		call writeOneUnSCROLL
 4590               	.LM281:
 4591 09a0 4EE1      		ldi r20,lo8(30)
 4592 09a2 60E0      		ldi r22,lo8(0)
 4593 09a4 84E0      		ldi r24,lo8(4)
 4594 09a6 0E94 0000 		call writeOneUnSCROLL
 4595               	.LM282:
 4596 09aa 43E0      		ldi r20,lo8(3)
 4597 09ac 60E0      		ldi r22,lo8(0)
 4598 09ae 85E0      		ldi r24,lo8(5)
 4599 09b0 0E94 0000 		call wirteOneBigNumber
 4600               	/* epilogue: frame size=0 */
 4601 09b4 0895      		ret
 4602               	/* epilogue end (size=1) */
 4603               	/* function FreshDisplayBufferChangeFont size 33 (32) */
 4604               	.LFE39:
 4606               	.global	FreshDisplayBufferAjustProofTime
 4608               	FreshDisplayBufferAjustProofTime:
 4609               	.LFB40:
 4610               	.LM283:
 4611               	/* prologue: frame size=0 */
 4612               	/* prologue end (size=0) */
 4613               	.LM284:
 4614 09b6 0E94 0000 		call clearScreen
 4615               	.LM285:
 4616 09ba 4CE1      		ldi r20,lo8(28)
 4617 09bc 60E0      		ldi r22,lo8(0)
 4618 09be 862F      		mov r24,r22
 4619 09c0 0E94 0000 		call writeOneUnSCROLL
 4620               	.LM286:
 4621 09c4 4DE1      		ldi r20,lo8(29)
 4622 09c6 60E0      		ldi r22,lo8(0)
 4623 09c8 81E0      		ldi r24,lo8(1)
 4624 09ca 0E94 0000 		call writeOneUnSCROLL
 4625               	.LM287:
 4626 09ce 42E2      		ldi r20,lo8(34)
 4627 09d0 6BE0      		ldi r22,lo8(11)
 4628 09d2 80E0      		ldi r24,lo8(0)
 4629 09d4 0E94 0000 		call writeOneUnSCROLL
 4630               	.LM288:
 4631 09d8 47E1      		ldi r20,lo8(23)
 4632 09da 6BE0      		ldi r22,lo8(11)
 4633 09dc 81E0      		ldi r24,lo8(1)
 4634 09de 0E94 0000 		call writeOneUnSCROLL
 4635               	.LM289:
 4636 09e2 4EE1      		ldi r20,lo8(30)
 4637 09e4 6BE0      		ldi r22,lo8(11)
 4638 09e6 82E0      		ldi r24,lo8(2)
 4639 09e8 0E94 0000 		call writeOneUnSCROLL
 4640               	.LM290:
 4641 09ec 4AE1      		ldi r20,lo8(26)
 4642 09ee 66E1      		ldi r22,lo8(22)
 4643 09f0 86E0      		ldi r24,lo8(6)
 4644 09f2 0E94 0000 		call writeOneUnSCROLL
 4645               	.LM291:
 4646 09f6 4BE0      		ldi r20,lo8(11)
 4647 09f8 66E1      		ldi r22,lo8(22)
 4648 09fa 87E0      		ldi r24,lo8(7)
 4649 09fc 0E94 0000 		call writeOneUnSCROLL
 4650               	.LM292:
 4651 0a00 8091 0000 		lds r24,RunParameter+22
 4652 0a04 8823      		tst r24
 4653 0a06 11F0      		breq .L178
 4654               	.LM293:
 4655 0a08 4BE1      		ldi r20,lo8(27)
 4656 0a0a 01C0      		rjmp .L180
 4657               	.L178:
 4658               	.LM294:
 4659 0a0c 41E2      		ldi r20,lo8(33)
 4660               	.L180:
 4661 0a0e 66E1      		ldi r22,lo8(22)
 4662 0a10 82E0      		ldi r24,lo8(2)
 4663 0a12 0E94 0000 		call writeOneUnSCROLL
 4664               	.LM295:
 4665 0a16 4091 0000 		lds r20,RunParameter+23
 4666 0a1a 60E0      		ldi r22,lo8(0)
 4667 0a1c 83E0      		ldi r24,lo8(3)
 4668 0a1e 0E94 0000 		call wirteOneBigNumber
 4669               	.LM296:
 4670 0a22 4091 0000 		lds r20,RunParameter+24
 4671 0a26 60E0      		ldi r22,lo8(0)
 4672 0a28 85E0      		ldi r24,lo8(5)
 4673 0a2a 0E94 0000 		call wirteOneBigNumber
 4674               	.LM297:
 4675 0a2e 48E1      		ldi r20,lo8(24)
 4676 0a30 6BE0      		ldi r22,lo8(11)
 4677 0a32 87E0      		ldi r24,lo8(7)
 4678 0a34 0E94 0000 		call writeOneUnSCROLL
 4679               	/* epilogue: frame size=0 */
 4680 0a38 0895      		ret
 4681               	/* epilogue end (size=1) */
 4682               	/* function FreshDisplayBufferAjustProofTime size 66 (65) */
 4683               	.LFE40:
 4685               	.global	FreshDisplayBufferNormal
 4687               	FreshDisplayBufferNormal:
 4688               	.LFB41:
 4689               	.LM298:
 4690               	/* prologue: frame size=0 */
 4691               	/* prologue end (size=0) */
 4692               	.LM299:
 4693 0a3a 0E94 0000 		call clearScreen
 4694               	.LM300:
 4695 0a3e 4091 0000 		lds r20,RunParameter+8
 4696 0a42 60E0      		ldi r22,lo8(0)
 4697 0a44 862F      		mov r24,r22
 4698 0a46 0E94 0000 		call wirteOneBigNumber
 4699               	.LM301:
 4700 0a4a 4091 0000 		lds r20,RunParameter+9
 4701 0a4e 60E0      		ldi r22,lo8(0)
 4702 0a50 82E0      		ldi r24,lo8(2)
 4703 0a52 0E94 0000 		call wirteOneBigNumber
 4704               	.LM302:
 4705 0a56 4091 0000 		lds r20,RunParameter+10
 4706 0a5a 63E0      		ldi r22,lo8(3)
 4707 0a5c 84E0      		ldi r24,lo8(4)
 4708 0a5e 0E94 0000 		call wirteOneBigNumber
 4709               	.LM303:
 4710 0a62 4091 0000 		lds r20,RunParameter+11
 4711 0a66 63E0      		ldi r22,lo8(3)
 4712 0a68 86E0      		ldi r24,lo8(6)
 4713 0a6a 0E94 0000 		call wirteOneBigNumber
 4714               	.LM304:
 4715 0a6e 4091 0000 		lds r20,RunParameter
 4716 0a72 67E1      		ldi r22,lo8(23)
 4717 0a74 80E0      		ldi r24,lo8(0)
 4718 0a76 0E94 0000 		call writeOneSCROLL
 4719               	.LM305:
 4720 0a7a 4091 0000 		lds r20,RunParameter+1
 4721 0a7e 67E1      		ldi r22,lo8(23)
 4722 0a80 81E0      		ldi r24,lo8(1)
 4723 0a82 0E94 0000 		call writeOneSCROLL
 4724               	.LM306:
 4725 0a86 4091 0000 		lds r20,RunParameter+2
 4726 0a8a 67E1      		ldi r22,lo8(23)
 4727 0a8c 82E0      		ldi r24,lo8(2)
 4728 0a8e 0E94 0000 		call writeOneSCROLL
 4729               	.LM307:
 4730 0a92 4091 0000 		lds r20,RunParameter+3
 4731 0a96 67E1      		ldi r22,lo8(23)
 4732 0a98 83E0      		ldi r24,lo8(3)
 4733 0a9a 0E94 0000 		call writeOneSCROLL
 4734               	.LM308:
 4735 0a9e 4AE0      		ldi r20,lo8(10)
 4736 0aa0 67E1      		ldi r22,lo8(23)
 4737 0aa2 84E0      		ldi r24,lo8(4)
 4738 0aa4 0E94 0000 		call writeOneSCROLL
 4739               	.LM309:
 4740 0aa8 4091 0000 		lds r20,RunParameter+4
 4741 0aac 67E1      		ldi r22,lo8(23)
 4742 0aae 85E0      		ldi r24,lo8(5)
 4743 0ab0 0E94 0000 		call writeOneSCROLL
 4744               	.LM310:
 4745 0ab4 4091 0000 		lds r20,RunParameter+5
 4746 0ab8 67E1      		ldi r22,lo8(23)
 4747 0aba 86E0      		ldi r24,lo8(6)
 4748 0abc 0E94 0000 		call writeOneSCROLL
 4749               	.LM311:
 4750 0ac0 4BE0      		ldi r20,lo8(11)
 4751 0ac2 67E1      		ldi r22,lo8(23)
 4752 0ac4 87E0      		ldi r24,lo8(7)
 4753 0ac6 0E94 0000 		call writeOneSCROLL
 4754               	.LM312:
 4755 0aca 4091 0000 		lds r20,RunParameter+6
 4756 0ace 68E1      		ldi r22,lo8(24)
 4757 0ad0 80E0      		ldi r24,lo8(0)
 4758 0ad2 0E94 0000 		call writeOneSCROLL
 4759               	.LM313:
 4760 0ad6 4091 0000 		lds r20,RunParameter+7
 4761 0ada 68E1      		ldi r22,lo8(24)
 4762 0adc 81E0      		ldi r24,lo8(1)
 4763 0ade 0E94 0000 		call writeOneSCROLL
 4764               	.LM314:
 4765 0ae2 44E1      		ldi r20,lo8(20)
 4766 0ae4 68E1      		ldi r22,lo8(24)
 4767 0ae6 82E0      		ldi r24,lo8(2)
 4768 0ae8 0E94 0000 		call writeOneSCROLL
 4769               	.LM315:
 4770 0aec 4CE0      		ldi r20,lo8(12)
 4771 0aee 68E1      		ldi r22,lo8(24)
 4772 0af0 84E0      		ldi r24,lo8(4)
 4773 0af2 0E94 0000 		call writeOneSCROLL
 4774               	.LM316:
 4775 0af6 8091 0000 		lds r24,RunParameter+14
 4776 0afa 835F      		subi r24,lo8(-(13))
 4777 0afc 482F      		mov r20,r24
 4778 0afe 68E1      		ldi r22,lo8(24)
 4779 0b00 85E0      		ldi r24,lo8(5)
 4780 0b02 0E94 0000 		call writeOneSCROLL
 4781               	.LM317:
 4782 0b06 4091 0000 		lds r20,RunParameter+15
 4783 0b0a 68E1      		ldi r22,lo8(24)
 4784 0b0c 87E0      		ldi r24,lo8(7)
 4785 0b0e 0E94 0000 		call writeOneSCROLL
 4786               	.LM318:
 4787 0b12 4091 0000 		lds r20,RunParameter+16
 4788 0b16 69E1      		ldi r22,lo8(25)
 4789 0b18 80E0      		ldi r24,lo8(0)
 4790 0b1a 0E94 0000 		call writeOneSCROLL
 4791               	.LM319:
 4792 0b1e 45E1      		ldi r20,lo8(21)
 4793 0b20 69E1      		ldi r22,lo8(25)
 4794 0b22 81E0      		ldi r24,lo8(1)
 4795 0b24 0E94 0000 		call writeOneSCROLL
 4796               	.LM320:
 4797 0b28 4091 0000 		lds r20,RunParameter+17
 4798 0b2c 69E1      		ldi r22,lo8(25)
 4799 0b2e 82E0      		ldi r24,lo8(2)
 4800 0b30 0E94 0000 		call writeOneSCROLL
 4801               	.LM321:
 4802 0b34 4DE0      		ldi r20,lo8(13)
 4803 0b36 69E1      		ldi r22,lo8(25)
 4804 0b38 83E0      		ldi r24,lo8(3)
 4805 0b3a 0E94 0000 		call writeOneSCROLL
 4806               	/* epilogue: frame size=0 */
 4807 0b3e 0895      		ret
 4808               	/* epilogue end (size=1) */
 4809               	/* function FreshDisplayBufferNormal size 131 (130) */
 4810               	.LFE41:
 4812               	.global	display
 4814               	display:
 4815               	.LFB42:
 4816               	.LM322:
 4817               	/* prologue: frame size=0 */
 4818 0b40 FF92      		push r15
 4819 0b42 0F93      		push r16
 4820 0b44 1F93      		push r17
 4821 0b46 CF93      		push r28
 4822 0b48 DF93      		push r29
 4823               	/* prologue end (size=5) */
 4824               	.LM323:
 4825 0b4a 4091 0000 		lds r20,moveSpeedTimerCount
 4826 0b4e 5091 0000 		lds r21,(moveSpeedTimerCount)+1
 4827 0b52 4F5F      		subi r20,lo8(-(1))
 4828 0b54 5F4F      		sbci r21,hi8(-(1))
 4829 0b56 5093 0000 		sts (moveSpeedTimerCount)+1,r21
 4830 0b5a 4093 0000 		sts moveSpeedTimerCount,r20
 4831               	.LM324:
 4832 0b5e 8091 0000 		lds r24,RunParameter+20
 4833 0b62 29E0      		ldi r18,lo8(9)
 4834 0b64 30E0      		ldi r19,hi8(9)
 4835 0b66 281B      		sub r18,r24
 4836 0b68 3109      		sbc r19,__zero_reg__
 4837 0b6a C901      		movw r24,r18
 4838 0b6c 63E0      		ldi r22,3
 4839 0b6e 880F      	1:	lsl r24
 4840 0b70 991F      		rol r25
 4841 0b72 6A95      		dec r22
 4842 0b74 E1F7      		brne 1b
 4843 0b76 820F      		add r24,r18
 4844 0b78 931F      		adc r25,r19
 4845 0b7a 820F      		add r24,r18
 4846 0b7c 931F      		adc r25,r19
 4847 0b7e 8417      		cp r24,r20
 4848 0b80 9507      		cpc r25,r21
 4849 0b82 68F4      		brsh .L183
 4850               	.LM325:
 4851 0b84 1092 0000 		sts (moveSpeedTimerCount)+1,__zero_reg__
 4852 0b88 1092 0000 		sts moveSpeedTimerCount,__zero_reg__
 4853               	.LM326:
 4854 0b8c 8091 0000 		lds r24,currentMoveLeft
 4855 0b90 8F5F      		subi r24,lo8(-(1))
 4856 0b92 8093 0000 		sts currentMoveLeft,r24
 4857               	.LM327:
 4858 0b96 813C      		cpi r24,lo8(-63)
 4859 0b98 10F0      		brlo .L183
 4860               	.LM328:
 4861 0b9a 1092 0000 		sts currentMoveLeft,__zero_reg__
 4862               	.L183:
 4863               	.LM329:
 4864 0b9e 2091 0000 		lds r18,RunParameter+21
 4865 0ba2 2223      		tst r18
 4866 0ba4 E9F4      		brne .L185
 4867               	.LM330:
 4868 0ba6 8091 0000 		lds r24,halfSecondCount
 4869 0baa 9091 0000 		lds r25,(halfSecondCount)+1
 4870 0bae 0196      		adiw r24,1
 4871 0bb0 9093 0000 		sts (halfSecondCount)+1,r25
 4872 0bb4 8093 0000 		sts halfSecondCount,r24
 4873               	.LM331:
 4874 0bb8 855E      		subi r24,lo8(741)
 4875 0bba 9240      		sbci r25,hi8(741)
 4876 0bbc 88F0      		brlo .L185
 4877               	.LM332:
 4878 0bbe 1092 0000 		sts (halfSecondCount)+1,__zero_reg__
 4879 0bc2 1092 0000 		sts halfSecondCount,__zero_reg__
 4880               	.LM333:
 4881 0bc6 8091 0000 		lds r24,isSecondCountShow
 4882 0bca 8823      		tst r24
 4883 0bcc 21F0      		breq .L187
 4884               	.LM334:
 4885 0bce 2093 0000 		sts isSecondCountShow,r18
 4886               	.LM335:
 4887 0bd2 822F      		mov r24,r18
 4888 0bd4 03C0      		rjmp .L299
 4889               	.L187:
 4890               	.LM336:
 4891 0bd6 81E0      		ldi r24,lo8(1)
 4892 0bd8 8093 0000 		sts isSecondCountShow,r24
 4893               	.L299:
 4894               	.LM337:
 4895 0bdc 0E94 0000 		call writeCloclColon
 4896               	.L185:
 4897               	.LM338:
 4898 0be0 8091 0000 		lds r24,display_cnt
 4899 0be4 8630      		cpi r24,lo8(6)
 4900 0be6 08F4      		brsh .+2
 4901 0be8 47C0      		rjmp .L189
 4902               	.LM339:
 4903 0bea 8091 0000 		lds r24,RunParameter+21
 4904 0bee 8823      		tst r24
 4905 0bf0 09F0      		breq .+2
 4906 0bf2 42C0      		rjmp .L189
 4907               	.LBB52:
 4908               	.LM340:
 4909 0bf4 9091 0000 		lds r25,currentMoveLeft
 4910               	.LM341:
 4911 0bf8 392F      		mov r19,r25
 4912 0bfa 3770      		andi r19,lo8(7)
 4913               	.LM342:
 4914 0bfc 2091 0000 		lds r18,display_cnt
 4915 0c00 88E1      		ldi r24,lo8(24)
 4916 0c02 289F      		mul r18,r24
 4917 0c04 F001      		movw r30,r0
 4918 0c06 1124      		clr r1
 4919 0c08 9695      		lsr r25
 4920 0c0a 9695      		lsr r25
 4921 0c0c 9695      		lsr r25
 4922 0c0e E90F      		add r30,r25
 4923 0c10 F11D      		adc r31,__zero_reg__
 4924               	.LM343:
 4925 0c12 8091 0000 		lds r24,display_cnt
 4926 0c16 A82F      		mov r26,r24
 4927 0c18 BB27      		clr r27
 4928 0c1a 93E0      		ldi r25,3
 4929 0c1c AA0F      	1:	lsl r26
 4930 0c1e BB1F      		rol r27
 4931 0c20 9A95      		dec r25
 4932 0c22 E1F7      		brne 1b
 4933 0c24 A050      		subi r26,lo8(-(display_buffer))
 4934 0c26 B040      		sbci r27,hi8(-(display_buffer))
 4935 0c28 632F      		mov r22,r19
 4936 0c2a 7727      		clr r23
 4937 0c2c 48E0      		ldi r20,lo8(8)
 4938 0c2e 50E0      		ldi r21,hi8(8)
 4939 0c30 461B      		sub r20,r22
 4940 0c32 570B      		sbc r21,r23
 4941 0c34 00E0      		ldi r16,lo8(display_buffer_temp)
 4942 0c36 10E0      		ldi r17,hi8(display_buffer_temp)
 4943 0c38 E050      		subi r30,lo8(-(display_buffer+32))
 4944 0c3a F040      		sbci r31,hi8(-(display_buffer+32))
 4945 0c3c 87E0      		ldi r24,lo8(7)
 4946 0c3e F82E      		mov r15,r24
 4947               	.L194:
 4948               	.LM344:
 4949 0c40 8081      		ld r24,Z
 4950 0c42 282F      		mov r18,r24
 4951 0c44 3327      		clr r19
 4952 0c46 062E      		mov r0,r22
 4953 0c48 02C0      		rjmp 2f
 4954 0c4a 220F      	1:	lsl r18
 4955 0c4c 331F      		rol r19
 4956 0c4e 0A94      	2:	dec r0
 4957 0c50 E2F7      		brpl 1b
 4958 0c52 8181      		ldd r24,Z+1
 4959 0c54 9927      		clr r25
 4960 0c56 042E      		mov r0,r20
 4961 0c58 02C0      		rjmp 2f
 4962 0c5a 9595      	1:	asr r25
 4963 0c5c 8795      		ror r24
 4964 0c5e 0A94      	2:	dec r0
 4965 0c60 E2F7      		brpl 1b
 4966 0c62 822B      		or r24,r18
 4967 0c64 E801      		movw r28,r16
 4968 0c66 8993      		st Y+,r24
 4969 0c68 8E01      		movw r16,r28
 4970               	.LM345:
 4971 0c6a FA94      		dec r15
 4972 0c6c 3196      		adiw r30,1
 4973 0c6e F7FE      		sbrs r15,7
 4974 0c70 E7CF      		rjmp .L194
 4975               	.LM346:
 4976 0c72 E0E0      		ldi r30,lo8(display_buffer_temp)
 4977 0c74 F0E0      		ldi r31,hi8(display_buffer_temp)
 4978               	.LBE52:
 4979 0c76 16C0      		rjmp .L196
 4980               	.L189:
 4981               	.LM347:
 4982 0c78 8091 0000 		lds r24,display_cnt
 4983 0c7c A82F      		mov r26,r24
 4984 0c7e BB27      		clr r27
 4985 0c80 13E0      		ldi r17,3
 4986 0c82 AA0F      	1:	lsl r26
 4987 0c84 BB1F      		rol r27
 4988 0c86 1A95      		dec r17
 4989 0c88 E1F7      		brne 1b
 4990 0c8a A050      		subi r26,lo8(-(display_buffer))
 4991 0c8c B040      		sbci r27,hi8(-(display_buffer))
 4992               	.LM348:
 4993 0c8e 8091 0000 		lds r24,display_cnt
 4994 0c92 E82F      		mov r30,r24
 4995 0c94 FF27      		clr r31
 4996 0c96 C3E0      		ldi r28,3
 4997 0c98 EE0F      	1:	lsl r30
 4998 0c9a FF1F      		rol r31
 4999 0c9c CA95      		dec r28
 5000 0c9e E1F7      		brne 1b
 5001 0ca0 E050      		subi r30,lo8(-(display_buffer+128))
 5002 0ca2 F040      		sbci r31,hi8(-(display_buffer+128))
 5003               	.L196:
 5004               	.LM349:
 5005 0ca4 8091 0000 		lds r24,RunParameter+26
 5006 0ca8 8823      		tst r24
 5007 0caa 49F5      		brne .L197
 5008               	.LM350:
 5009 0cac 582F      		mov r21,r24
 5010               	.L207:
 5011               	.LM351:
 5012 0cae 47E0      		ldi r20,lo8(7)
 5013 0cb0 27E0      		ldi r18,lo8(7)
 5014 0cb2 30E0      		ldi r19,hi8(7)
 5015               	.L206:
 5016               	.LM352:
 5017 0cb4 949A      		sbi 50-0x20,4
 5018               	.LM353:
 5019 0cb6 959A      		sbi 50-0x20,5
 5020               	.LM354:
 5021 0cb8 C69A      		sbi 56-0x20,6
 5022               	.LM355:
 5023 0cba C79A      		sbi 56-0x20,7
 5024               	.LM356:
 5025 0cbc 8C91      		ld r24,X
 5026 0cbe 9927      		clr r25
 5027 0cc0 022E      		mov r0,r18
 5028 0cc2 02C0      		rjmp 2f
 5029 0cc4 9595      	1:	asr r25
 5030 0cc6 8795      		ror r24
 5031 0cc8 0A94      	2:	dec r0
 5032 0cca E2F7      		brpl 1b
 5033 0ccc 80FD      		sbrc r24,0
 5034               	.LM357:
 5035 0cce 9498      		cbi 50-0x20,4
 5036               	.L204:
 5037               	.LM358:
 5038 0cd0 8081      		ld r24,Z
 5039 0cd2 9927      		clr r25
 5040 0cd4 022E      		mov r0,r18
 5041 0cd6 02C0      		rjmp 2f
 5042 0cd8 9595      	1:	asr r25
 5043 0cda 8795      		ror r24
 5044 0cdc 0A94      	2:	dec r0
 5045 0cde E2F7      		brpl 1b
 5046 0ce0 80FD      		sbrc r24,0
 5047               	.LM359:
 5048 0ce2 9598      		cbi 50-0x20,5
 5049               	.L205:
 5050               	.LM360:
 5051 0ce4 9398      		cbi 50-0x20,3
 5052               	.LM361:
 5053 0ce6 939A      		sbi 50-0x20,3
 5054               	.LM362:
 5055 0ce8 4150      		subi r20,lo8(-(-1))
 5056 0cea 2150      		subi r18,lo8(-(-1))
 5057 0cec 3040      		sbci r19,hi8(-(-1))
 5058 0cee 47FF      		sbrs r20,7
 5059 0cf0 E1CF      		rjmp .L206
 5060               	.LM363:
 5061 0cf2 1196      		adiw r26,1
 5062               	.LM364:
 5063 0cf4 3196      		adiw r30,1
 5064               	.LM365:
 5065 0cf6 5F5F      		subi r21,lo8(-(1))
 5066 0cf8 5830      		cpi r21,lo8(8)
 5067 0cfa C8F2      		brlo .L207
 5068 0cfc AFC0      		rjmp .L208
 5069               	.L197:
 5070               	.LM366:
 5071 0cfe 8130      		cpi r24,lo8(1)
 5072 0d00 49F5      		brne .L209
 5073               	.LM367:
 5074 0d02 50E0      		ldi r21,lo8(0)
 5075               	.L219:
 5076               	.LM368:
 5077 0d04 47E0      		ldi r20,lo8(7)
 5078 0d06 27E0      		ldi r18,lo8(7)
 5079 0d08 30E0      		ldi r19,hi8(7)
 5080               	.L218:
 5081               	.LM369:
 5082 0d0a 949A      		sbi 50-0x20,4
 5083               	.LM370:
 5084 0d0c 959A      		sbi 50-0x20,5
 5085               	.LM371:
 5086 0d0e C69A      		sbi 56-0x20,6
 5087               	.LM372:
 5088 0d10 C79A      		sbi 56-0x20,7
 5089               	.LM373:
 5090 0d12 8C91      		ld r24,X
 5091 0d14 9927      		clr r25
 5092 0d16 022E      		mov r0,r18
 5093 0d18 02C0      		rjmp 2f
 5094 0d1a 9595      	1:	asr r25
 5095 0d1c 8795      		ror r24
 5096 0d1e 0A94      	2:	dec r0
 5097 0d20 E2F7      		brpl 1b
 5098 0d22 80FD      		sbrc r24,0
 5099               	.LM374:
 5100 0d24 C698      		cbi 56-0x20,6
 5101               	.L216:
 5102               	.LM375:
 5103 0d26 8081      		ld r24,Z
 5104 0d28 9927      		clr r25
 5105 0d2a 022E      		mov r0,r18
 5106 0d2c 02C0      		rjmp 2f
 5107 0d2e 9595      	1:	asr r25
 5108 0d30 8795      		ror r24
 5109 0d32 0A94      	2:	dec r0
 5110 0d34 E2F7      		brpl 1b
 5111 0d36 80FD      		sbrc r24,0
 5112               	.LM376:
 5113 0d38 C798      		cbi 56-0x20,7
 5114               	.L217:
 5115               	.LM377:
 5116 0d3a 9398      		cbi 50-0x20,3
 5117               	.LM378:
 5118 0d3c 939A      		sbi 50-0x20,3
 5119               	.LM379:
 5120 0d3e 4150      		subi r20,lo8(-(-1))
 5121 0d40 2150      		subi r18,lo8(-(-1))
 5122 0d42 3040      		sbci r19,hi8(-(-1))
 5123 0d44 47FF      		sbrs r20,7
 5124 0d46 E1CF      		rjmp .L218
 5125               	.LM380:
 5126 0d48 1196      		adiw r26,1
 5127               	.LM381:
 5128 0d4a 3196      		adiw r30,1
 5129               	.LM382:
 5130 0d4c 5F5F      		subi r21,lo8(-(1))
 5131 0d4e 5830      		cpi r21,lo8(8)
 5132 0d50 C8F2      		brlo .L219
 5133 0d52 84C0      		rjmp .L208
 5134               	.L209:
 5135               	.LM383:
 5136 0d54 8230      		cpi r24,lo8(2)
 5137 0d56 69F5      		brne .L221
 5138               	.LM384:
 5139 0d58 50E0      		ldi r21,lo8(0)
 5140               	.L231:
 5141               	.LM385:
 5142 0d5a 47E0      		ldi r20,lo8(7)
 5143 0d5c 27E0      		ldi r18,lo8(7)
 5144 0d5e 30E0      		ldi r19,hi8(7)
 5145               	.L230:
 5146               	.LM386:
 5147 0d60 949A      		sbi 50-0x20,4
 5148               	.LM387:
 5149 0d62 959A      		sbi 50-0x20,5
 5150               	.LM388:
 5151 0d64 C69A      		sbi 56-0x20,6
 5152               	.LM389:
 5153 0d66 C79A      		sbi 56-0x20,7
 5154               	.LM390:
 5155 0d68 8C91      		ld r24,X
 5156 0d6a 9927      		clr r25
 5157 0d6c 022E      		mov r0,r18
 5158 0d6e 02C0      		rjmp 2f
 5159 0d70 9595      	1:	asr r25
 5160 0d72 8795      		ror r24
 5161 0d74 0A94      	2:	dec r0
 5162 0d76 E2F7      		brpl 1b
 5163 0d78 80FF      		sbrs r24,0
 5164 0d7a 02C0      		rjmp .L228
 5165               	.LM391:
 5166 0d7c 9498      		cbi 50-0x20,4
 5167               	.LM392:
 5168 0d7e C698      		cbi 56-0x20,6
 5169               	.L228:
 5170               	.LM393:
 5171 0d80 8081      		ld r24,Z
 5172 0d82 9927      		clr r25
 5173 0d84 022E      		mov r0,r18
 5174 0d86 02C0      		rjmp 2f
 5175 0d88 9595      	1:	asr r25
 5176 0d8a 8795      		ror r24
 5177 0d8c 0A94      	2:	dec r0
 5178 0d8e E2F7      		brpl 1b
 5179 0d90 80FF      		sbrs r24,0
 5180 0d92 02C0      		rjmp .L229
 5181               	.LM394:
 5182 0d94 9598      		cbi 50-0x20,5
 5183               	.LM395:
 5184 0d96 C798      		cbi 56-0x20,7
 5185               	.L229:
 5186               	.LM396:
 5187 0d98 9398      		cbi 50-0x20,3
 5188               	.LM397:
 5189 0d9a 939A      		sbi 50-0x20,3
 5190               	.LM398:
 5191 0d9c 4150      		subi r20,lo8(-(-1))
 5192 0d9e 2150      		subi r18,lo8(-(-1))
 5193 0da0 3040      		sbci r19,hi8(-(-1))
 5194 0da2 47FF      		sbrs r20,7
 5195 0da4 DDCF      		rjmp .L230
 5196               	.LM399:
 5197 0da6 1196      		adiw r26,1
 5198               	.LM400:
 5199 0da8 3196      		adiw r30,1
 5200               	.LM401:
 5201 0daa 5F5F      		subi r21,lo8(-(1))
 5202 0dac 5830      		cpi r21,lo8(8)
 5203 0dae A8F2      		brlo .L231
 5204 0db0 55C0      		rjmp .L208
 5205               	.L221:
 5206               	.LM402:
 5207 0db2 8330      		cpi r24,lo8(3)
 5208 0db4 49F5      		brne .L233
 5209               	.LM403:
 5210 0db6 50E0      		ldi r21,lo8(0)
 5211               	.L243:
 5212               	.LM404:
 5213 0db8 47E0      		ldi r20,lo8(7)
 5214 0dba 27E0      		ldi r18,lo8(7)
 5215 0dbc 30E0      		ldi r19,hi8(7)
 5216               	.L242:
 5217               	.LM405:
 5218 0dbe 9498      		cbi 50-0x20,4
 5219               	.LM406:
 5220 0dc0 9598      		cbi 50-0x20,5
 5221               	.LM407:
 5222 0dc2 C69A      		sbi 56-0x20,6
 5223               	.LM408:
 5224 0dc4 C79A      		sbi 56-0x20,7
 5225               	.LM409:
 5226 0dc6 8C91      		ld r24,X
 5227 0dc8 9927      		clr r25
 5228 0dca 022E      		mov r0,r18
 5229 0dcc 02C0      		rjmp 2f
 5230 0dce 9595      	1:	asr r25
 5231 0dd0 8795      		ror r24
 5232 0dd2 0A94      	2:	dec r0
 5233 0dd4 E2F7      		brpl 1b
 5234 0dd6 80FD      		sbrc r24,0
 5235               	.LM410:
 5236 0dd8 C698      		cbi 56-0x20,6
 5237               	.L240:
 5238               	.LM411:
 5239 0dda 8081      		ld r24,Z
 5240 0ddc 9927      		clr r25
 5241 0dde 022E      		mov r0,r18
 5242 0de0 02C0      		rjmp 2f
 5243 0de2 9595      	1:	asr r25
 5244 0de4 8795      		ror r24
 5245 0de6 0A94      	2:	dec r0
 5246 0de8 E2F7      		brpl 1b
 5247 0dea 80FD      		sbrc r24,0
 5248               	.LM412:
 5249 0dec C798      		cbi 56-0x20,7
 5250               	.L241:
 5251               	.LM413:
 5252 0dee 9398      		cbi 50-0x20,3
 5253               	.LM414:
 5254 0df0 939A      		sbi 50-0x20,3
 5255               	.LM415:
 5256 0df2 4150      		subi r20,lo8(-(-1))
 5257 0df4 2150      		subi r18,lo8(-(-1))
 5258 0df6 3040      		sbci r19,hi8(-(-1))
 5259 0df8 47FF      		sbrs r20,7
 5260 0dfa E1CF      		rjmp .L242
 5261               	.LM416:
 5262 0dfc 1196      		adiw r26,1
 5263               	.LM417:
 5264 0dfe 3196      		adiw r30,1
 5265               	.LM418:
 5266 0e00 5F5F      		subi r21,lo8(-(1))
 5267 0e02 5830      		cpi r21,lo8(8)
 5268 0e04 C8F2      		brlo .L243
 5269 0e06 2AC0      		rjmp .L208
 5270               	.L233:
 5271               	.LM419:
 5272 0e08 8430      		cpi r24,lo8(4)
 5273 0e0a 41F5      		brne .L208
 5274               	.LM420:
 5275 0e0c 50E0      		ldi r21,lo8(0)
 5276               	.L255:
 5277               	.LM421:
 5278 0e0e 47E0      		ldi r20,lo8(7)
 5279 0e10 27E0      		ldi r18,lo8(7)
 5280 0e12 30E0      		ldi r19,hi8(7)
 5281               	.L254:
 5282               	.LM422:
 5283 0e14 949A      		sbi 50-0x20,4
 5284               	.LM423:
 5285 0e16 959A      		sbi 50-0x20,5
 5286               	.LM424:
 5287 0e18 C698      		cbi 56-0x20,6
 5288               	.LM425:
 5289 0e1a C798      		cbi 56-0x20,7
 5290               	.LM426:
 5291 0e1c 8C91      		ld r24,X
 5292 0e1e 9927      		clr r25
 5293 0e20 022E      		mov r0,r18
 5294 0e22 02C0      		rjmp 2f
 5295 0e24 9595      	1:	asr r25
 5296 0e26 8795      		ror r24
 5297 0e28 0A94      	2:	dec r0
 5298 0e2a E2F7      		brpl 1b
 5299 0e2c 80FD      		sbrc r24,0
 5300               	.LM427:
 5301 0e2e 9498      		cbi 50-0x20,4
 5302               	.L252:
 5303               	.LM428:
 5304 0e30 8081      		ld r24,Z
 5305 0e32 9927      		clr r25
 5306 0e34 022E      		mov r0,r18
 5307 0e36 02C0      		rjmp 2f
 5308 0e38 9595      	1:	asr r25
 5309 0e3a 8795      		ror r24
 5310 0e3c 0A94      	2:	dec r0
 5311 0e3e E2F7      		brpl 1b
 5312 0e40 80FD      		sbrc r24,0
 5313               	.LM429:
 5314 0e42 9598      		cbi 50-0x20,5
 5315               	.L253:
 5316               	.LM430:
 5317 0e44 9398      		cbi 50-0x20,3
 5318               	.LM431:
 5319 0e46 939A      		sbi 50-0x20,3
 5320               	.LM432:
 5321 0e48 4150      		subi r20,lo8(-(-1))
 5322 0e4a 2150      		subi r18,lo8(-(-1))
 5323 0e4c 3040      		sbci r19,hi8(-(-1))
 5324 0e4e 47FF      		sbrs r20,7
 5325 0e50 E1CF      		rjmp .L254
 5326               	.LM433:
 5327 0e52 1196      		adiw r26,1
 5328               	.LM434:
 5329 0e54 3196      		adiw r30,1
 5330               	.LM435:
 5331 0e56 5F5F      		subi r21,lo8(-(1))
 5332 0e58 5830      		cpi r21,lo8(8)
 5333 0e5a C8F2      		brlo .L255
 5334               	.L208:
 5335               	.LM436:
 5336 0e5c 9298      		cbi 50-0x20,2
 5337               	.LM437:
 5338 0e5e 929A      		sbi 50-0x20,2
 5339               	.LM438:
 5340 0e60 8091 0000 		lds r24,display_cnt
 5341 0e64 9927      		clr r25
 5342 0e66 8730      		cpi r24,7
 5343 0e68 9105      		cpc r25,__zero_reg__
 5344 0e6a 09F4      		brne .+2
 5345 0e6c 42C0      		rjmp .L264
 5346 0e6e 8830      		cpi r24,8
 5347 0e70 9105      		cpc r25,__zero_reg__
 5348 0e72 ACF4      		brge .L274
 5349 0e74 8330      		cpi r24,3
 5350 0e76 9105      		cpc r25,__zero_reg__
 5351 0e78 81F1      		breq .L260
 5352 0e7a 8430      		cpi r24,4
 5353 0e7c 9105      		cpc r25,__zero_reg__
 5354 0e7e 4CF4      		brge .L275
 5355 0e80 8130      		cpi r24,1
 5356 0e82 9105      		cpc r25,__zero_reg__
 5357 0e84 31F1      		breq .L258
 5358 0e86 8230      		cpi r24,2
 5359 0e88 9105      		cpc r25,__zero_reg__
 5360 0e8a 2CF5      		brge .L259
 5361 0e8c 892B      		or r24,r25
 5362 0e8e F9F0      		breq .L257
 5363 0e90 4CC0      		rjmp .L273
 5364               	.L275:
 5365 0e92 8530      		cpi r24,5
 5366 0e94 9105      		cpc r25,__zero_reg__
 5367 0e96 39F1      		breq .L262
 5368 0e98 0697      		sbiw r24,6
 5369 0e9a 4CF5      		brge .L263
 5370 0e9c 20C0      		rjmp .L261
 5371               	.L274:
 5372 0e9e 8B30      		cpi r24,11
 5373 0ea0 9105      		cpc r25,__zero_reg__
 5374 0ea2 91F1      		breq .L268
 5375 0ea4 8C30      		cpi r24,12
 5376 0ea6 9105      		cpc r25,__zero_reg__
 5377 0ea8 34F4      		brge .L276
 5378 0eaa 8930      		cpi r24,9
 5379 0eac 9105      		cpc r25,__zero_reg__
 5380 0eae 31F1      		breq .L266
 5381 0eb0 0A97      		sbiw r24,10
 5382 0eb2 3CF5      		brge .L267
 5383 0eb4 20C0      		rjmp .L265
 5384               	.L276:
 5385 0eb6 8D30      		cpi r24,13
 5386 0eb8 9105      		cpc r25,__zero_reg__
 5387 0eba 59F1      		breq .L270
 5388 0ebc 8D30      		cpi r24,13
 5389 0ebe 9105      		cpc r25,__zero_reg__
 5390 0ec0 34F1      		brlt .L269
 5391 0ec2 8E30      		cpi r24,14
 5392 0ec4 9105      		cpc r25,__zero_reg__
 5393 0ec6 39F1      		breq .L271
 5394 0ec8 0F97      		sbiw r24,15
 5395 0eca 51F1      		breq .L272
 5396 0ecc 2EC0      		rjmp .L273
 5397               	.L257:
 5398               	.LM439:
 5399 0ece C498      		cbi 56-0x20,4
 5400 0ed0 13C0      		rjmp .L307
 5401               	.L258:
 5402               	.LM440:
 5403 0ed2 C498      		cbi 56-0x20,4
 5404 0ed4 14C0      		rjmp .L309
 5405               	.L259:
 5406               	.LM441:
 5407 0ed6 C498      		cbi 56-0x20,4
 5408 0ed8 15C0      		rjmp .L311
 5409               	.L260:
 5410               	.LM442:
 5411 0eda C498      		cbi 56-0x20,4
 5412 0edc 16C0      		rjmp .L313
 5413               	.L261:
 5414               	.LM443:
 5415 0ede C498      		cbi 56-0x20,4
 5416               	.L306:
 5417 0ee0 C29A      		sbi 56-0x20,2
 5418               	.L302:
 5419 0ee2 C198      		cbi 56-0x20,1
 5420 0ee4 1BC0      		rjmp .L301
 5421               	.L262:
 5422               	.LM444:
 5423 0ee6 C498      		cbi 56-0x20,4
 5424               	.L308:
 5425 0ee8 C29A      		sbi 56-0x20,2
 5426               	.L304:
 5427 0eea C198      		cbi 56-0x20,1
 5428 0eec 1CC0      		rjmp .L300
 5429               	.L263:
 5430               	.LM445:
 5431 0eee C498      		cbi 56-0x20,4
 5432 0ef0 13C0      		rjmp .L310
 5433               	.L264:
 5434               	.LM446:
 5435 0ef2 C498      		cbi 56-0x20,4
 5436 0ef4 16C0      		rjmp .L312
 5437               	.L265:
 5438               	.LM447:
 5439 0ef6 C49A      		sbi 56-0x20,4
 5440               	.L307:
 5441 0ef8 C298      		cbi 56-0x20,2
 5442 0efa F3CF      		rjmp .L302
 5443               	.L266:
 5444               	.LM448:
 5445 0efc C49A      		sbi 56-0x20,4
 5446               	.L309:
 5447 0efe C298      		cbi 56-0x20,2
 5448 0f00 F4CF      		rjmp .L304
 5449               	.L267:
 5450               	.LM449:
 5451 0f02 C49A      		sbi 56-0x20,4
 5452               	.L311:
 5453 0f04 C298      		cbi 56-0x20,2
 5454 0f06 09C0      		rjmp .L303
 5455               	.L268:
 5456               	.LM450:
 5457 0f08 C49A      		sbi 56-0x20,4
 5458               	.L313:
 5459 0f0a C298      		cbi 56-0x20,2
 5460 0f0c 0BC0      		rjmp .L305
 5461               	.L269:
 5462               	.LM451:
 5463 0f0e C49A      		sbi 56-0x20,4
 5464 0f10 E7CF      		rjmp .L306
 5465               	.L270:
 5466               	.LM452:
 5467 0f12 C49A      		sbi 56-0x20,4
 5468 0f14 E9CF      		rjmp .L308
 5469               	.L271:
 5470               	.LM453:
 5471 0f16 C49A      		sbi 56-0x20,4
 5472               	.L310:
 5473 0f18 C29A      		sbi 56-0x20,2
 5474               	.L303:
 5475 0f1a C19A      		sbi 56-0x20,1
 5476               	.L301:
 5477 0f1c C098      		cbi 56-0x20,0
 5478               	.LM454:
 5479 0f1e 07C0      		rjmp .L256
 5480               	.L272:
 5481               	.LM455:
 5482 0f20 C49A      		sbi 56-0x20,4
 5483               	.L312:
 5484 0f22 C29A      		sbi 56-0x20,2
 5485               	.L305:
 5486 0f24 C19A      		sbi 56-0x20,1
 5487               	.L300:
 5488 0f26 C09A      		sbi 56-0x20,0
 5489               	.LM456:
 5490 0f28 02C0      		rjmp .L256
 5491               	.L273:
 5492               	.LM457:
 5493 0f2a 1092 0000 		sts display_cnt,__zero_reg__
 5494               	.L256:
 5495               	.LM458:
 5496 0f2e 8091 0000 		lds r24,display_cnt
 5497 0f32 8F5F      		subi r24,lo8(-(1))
 5498 0f34 8093 0000 		sts display_cnt,r24
 5499               	.LM459:
 5500 0f38 8091 0000 		lds r24,display_cnt
 5501 0f3c 8031      		cpi r24,lo8(16)
 5502 0f3e 11F4      		brne .L182
 5503 0f40 1092 0000 		sts display_cnt,__zero_reg__
 5504               	.L182:
 5505               	/* epilogue: frame size=0 */
 5506 0f44 DF91      		pop r29
 5507 0f46 CF91      		pop r28
 5508 0f48 1F91      		pop r17
 5509 0f4a 0F91      		pop r16
 5510 0f4c FF90      		pop r15
 5511 0f4e 0895      		ret
 5512               	/* epilogue end (size=6) */
 5513               	/* function display size 532 (521) */
 5514               	.LFE42:
 5516               	.global	Show_welcome
 5518               	Show_welcome:
 5519               	.LFB43:
 5520               	.LM460:
 5521               	/* prologue: frame size=0 */
 5522 0f50 CF93      		push r28
 5523 0f52 DF93      		push r29
 5524               	/* prologue end (size=2) */
 5525               	.LM461:
 5526 0f54 8CE1      		ldi r24,lo8(28)
 5527 0f56 8093 0000 		sts RunParameter+21,r24
 5528               	.LM462:
 5529 0f5a 43E0      		ldi r20,lo8(3)
 5530 0f5c 60E0      		ldi r22,lo8(0)
 5531 0f5e 81E0      		ldi r24,lo8(1)
 5532 0f60 0E94 0000 		call writeOneChinese
 5533               	.LM463:
 5534 0f64 44E0      		ldi r20,lo8(4)
 5535 0f66 60E0      		ldi r22,lo8(0)
 5536 0f68 83E0      		ldi r24,lo8(3)
 5537 0f6a 0E94 0000 		call writeOneChinese
 5538               	.LM464:
 5539 0f6e 45E0      		ldi r20,lo8(5)
 5540 0f70 60E0      		ldi r22,lo8(0)
 5541 0f72 842F      		mov r24,r20
 5542 0f74 0E94 0000 		call writeOneChinese
 5543               	.LM465:
 5544 0f78 43E2      		ldi r20,lo8(35)
 5545 0f7a 64E1      		ldi r22,lo8(20)
 5546 0f7c 80E0      		ldi r24,lo8(0)
 5547 0f7e 0E94 0000 		call writeOneUnSCROLL
 5548               	.LM466:
 5549 0f82 44E2      		ldi r20,lo8(36)
 5550 0f84 64E1      		ldi r22,lo8(20)
 5551 0f86 81E0      		ldi r24,lo8(1)
 5552 0f88 0E94 0000 		call writeOneUnSCROLL
 5553               	.LM467:
 5554 0f8c 4AE2      		ldi r20,lo8(42)
 5555 0f8e 64E1      		ldi r22,lo8(20)
 5556 0f90 82E0      		ldi r24,lo8(2)
 5557 0f92 0E94 0000 		call writeOneUnSCROLL
 5558               	.LM468:
 5559 0f96 45E2      		ldi r20,lo8(37)
 5560 0f98 64E1      		ldi r22,lo8(20)
 5561 0f9a 83E0      		ldi r24,lo8(3)
 5562 0f9c 0E94 0000 		call writeOneUnSCROLL
 5563               	.LM469:
 5564 0fa0 46E2      		ldi r20,lo8(38)
 5565 0fa2 64E1      		ldi r22,lo8(20)
 5566 0fa4 84E0      		ldi r24,lo8(4)
 5567 0fa6 0E94 0000 		call writeOneUnSCROLL
 5568               	.LM470:
 5569 0faa 47E2      		ldi r20,lo8(39)
 5570 0fac 64E1      		ldi r22,lo8(20)
 5571 0fae 85E0      		ldi r24,lo8(5)
 5572 0fb0 0E94 0000 		call writeOneUnSCROLL
 5573               	.LM471:
 5574 0fb4 48E2      		ldi r20,lo8(40)
 5575 0fb6 64E1      		ldi r22,lo8(20)
 5576 0fb8 86E0      		ldi r24,lo8(6)
 5577 0fba 0E94 0000 		call writeOneUnSCROLL
 5578               	.LM472:
 5579 0fbe 49E2      		ldi r20,lo8(41)
 5580 0fc0 64E1      		ldi r22,lo8(20)
 5581 0fc2 87E0      		ldi r24,lo8(7)
 5582 0fc4 0E94 0000 		call writeOneUnSCROLL
 5583 0fc8 C7E8      		ldi r28,lo8(4999)
 5584 0fca D3E1      		ldi r29,hi8(4999)
 5585               	.L318:
 5586               	.LM473:
 5587 0fcc 0E94 0000 		call display
 5588               	.LM474:
 5589 0fd0 8AE0      		ldi r24,lo8(10)
 5590 0fd2 90E0      		ldi r25,hi8(10)
 5591 0fd4 0E94 0000 		call s_10us
 5592               	.LM475:
 5593 0fd8 2197      		sbiw r28,1
 5594 0fda D7FF      		sbrs r29,7
 5595 0fdc F7CF      		rjmp .L318
 5596               	.LM476:
 5597 0fde 0E94 0000 		call clearScreen
 5598               	.LM477:
 5599 0fe2 1092 0000 		sts RunParameter+21,__zero_reg__
 5600               	/* epilogue: frame size=0 */
 5601 0fe6 DF91      		pop r29
 5602 0fe8 CF91      		pop r28
 5603 0fea 0895      		ret
 5604               	/* epilogue end (size=3) */
 5605               	/* function Show_welcome size 78 (73) */
 5606               	.LFE43:
 5608               	.global	twi_init
 5610               	twi_init:
 5611               	.LFB44:
 5612               	.LM478:
 5613               	/* prologue: frame size=0 */
 5614               	/* prologue end (size=0) */
 5615               	.LM479:
 5616 0fec 16BE      		out 86-0x20,__zero_reg__
 5617               	.LM480:
 5618 0fee 84E6      		ldi r24,lo8(100)
 5619 0ff0 80B9      		out 32-0x20,r24
 5620               	.LM481:
 5621 0ff2 11B8      		out 33-0x20,__zero_reg__
 5622               	.LM482:
 5623 0ff4 12B8      		out 34-0x20,__zero_reg__
 5624               	.LM483:
 5625 0ff6 84E0      		ldi r24,lo8(4)
 5626 0ff8 86BF      		out 86-0x20,r24
 5627               	/* epilogue: frame size=0 */
 5628 0ffa 0895      		ret
 5629               	/* epilogue end (size=1) */
 5630               	/* function twi_init size 8 (7) */
 5631               	.LFE44:
 5633               	.global	i2cstart
 5635               	i2cstart:
 5636               	.LFB45:
 5637               	.LM484:
 5638               	/* prologue: frame size=0 */
 5639               	/* prologue end (size=0) */
 5640               	.LM485:
 5641 0ffc 84EA      		ldi r24,lo8(-92)
 5642 0ffe 86BF      		out 86-0x20,r24
 5643               	.L323:
 5644               	.LM486:
 5645 1000 06B6      		in __tmp_reg__,86-0x20
 5646 1002 07FE      		sbrs __tmp_reg__,7
 5647 1004 FDCF      		rjmp .L323
 5648               	/* epilogue: frame size=0 */
 5649 1006 0895      		ret
 5650               	/* epilogue end (size=1) */
 5651               	/* function i2cstart size 6 (5) */
 5652               	.LFE45:
 5654               	.global	i2cwt
 5656               	i2cwt:
 5657               	.LFB46:
 5658               	.LM487:
 5659               	/* prologue: frame size=0 */
 5660               	/* prologue end (size=0) */
 5661               	.LM488:
 5662 1008 83B9      		out 35-0x20,r24
 5663               	.LM489:
 5664 100a 84E8      		ldi r24,lo8(-124)
 5665 100c 86BF      		out 86-0x20,r24
 5666               	.L327:
 5667               	.LM490:
 5668 100e 06B6      		in __tmp_reg__,86-0x20
 5669 1010 07FE      		sbrs __tmp_reg__,7
 5670 1012 FDCF      		rjmp .L327
 5671               	.LM491:
 5672               	/* #APP */
 5673 1014 0000      		nop
 5674               	.LM492:
 5675               	/* #NOAPP */
 5676 1016 81B1      		in r24,33-0x20
 5677 1018 9927      		clr r25
 5678               	.LM493:
 5679 101a 887F      		andi r24,lo8(248)
 5680 101c 9070      		andi r25,hi8(248)
 5681               	/* epilogue: frame size=0 */
 5682 101e 0895      		ret
 5683               	/* epilogue end (size=1) */
 5684               	/* function i2cwt size 13 (12) */
 5685               	.LFE46:
 5687               	.global	i2crd
 5689               	i2crd:
 5690               	.LFB47:
 5691               	.LM494:
 5692               	/* prologue: frame size=0 */
 5693               	/* prologue end (size=0) */
 5694               	.LM495:
 5695 1020 84EC      		ldi r24,lo8(-60)
 5696 1022 86BF      		out 86-0x20,r24
 5697               	.L331:
 5698               	.LM496:
 5699 1024 06B6      		in __tmp_reg__,86-0x20
 5700 1026 07FE      		sbrs __tmp_reg__,7
 5701 1028 FDCF      		rjmp .L331
 5702               	.LM497:
 5703 102a 83B1      		in r24,35-0x20
 5704               	.LM498:
 5705 102c 9927      		clr r25
 5706               	/* epilogue: frame size=0 */
 5707 102e 0895      		ret
 5708               	/* epilogue end (size=1) */
 5709               	/* function i2crd size 8 (7) */
 5710               	.LFE47:
 5712               	.global	i2cstop
 5714               	i2cstop:
 5715               	.LFB48:
 5716               	.LM499:
 5717               	/* prologue: frame size=0 */
 5718               	/* prologue end (size=0) */
 5719               	.LM500:
 5720 1030 84E9      		ldi r24,lo8(-108)
 5721 1032 86BF      		out 86-0x20,r24
 5722               	/* epilogue: frame size=0 */
 5723 1034 0895      		ret
 5724               	/* epilogue end (size=1) */
 5725               	/* function i2cstop size 3 (2) */
 5726               	.LFE48:
 5728               	.global	clear
 5730               	clear:
 5731               	.LFB49:
 5732               	.LM501:
 5733               	/* prologue: frame size=0 */
 5734               	/* prologue end (size=0) */
 5735 1036 FC01      		movw r30,r24
 5736               	.L342:
 5737               	.LM502:
 5738 1038 6623      		tst r22
 5739 103a 19F0      		breq .L341
 5740               	.LM503:
 5741 103c 1192      		st Z+,__zero_reg__
 5742               	.LM504:
 5743 103e 6150      		subi r22,lo8(-(-1))
 5744 1040 FBCF      		rjmp .L342
 5745               	.L341:
 5746 1042 0895      		ret
 5747               	/* epilogue: frame size=0 */
 5748               	/* epilogue: noreturn */
 5749               	/* epilogue end (size=0) */
 5750               	/* function clear size 7 (7) */
 5751               	.LFE49:
 5753               	.global	PCF8536_wt
 5755               	PCF8536_wt:
 5756               	.LFB50:
 5757               	.LM505:
 5758               	/* prologue: frame size=0 */
 5759 1044 0F93      		push r16
 5760 1046 1F93      		push r17
 5761 1048 CF93      		push r28
 5762 104a DF93      		push r29
 5763               	/* prologue end (size=4) */
 5764 104c EC01      		movw r28,r24
 5765 104e 062F      		mov r16,r22
 5766               	.LM506:
 5767 1050 892F      		mov r24,r25
 5768 1052 9927      		clr r25
 5769 1054 182F      		mov r17,r24
 5770               	.LM507:
 5771 1056 110F      		lsl r17
 5772               	.LM508:
 5773 1058 0E94 0000 		call i2cstart
 5774               	.LM509:
 5775 105c 812F      		mov r24,r17
 5776 105e 8E55      		subi r24,lo8(-(-94))
 5777 1060 0E94 0000 		call i2cwt
 5778 1064 8831      		cpi r24,lo8(24)
 5779 1066 39F4      		brne .L344
 5780               	.LM510:
 5781 1068 8C2F      		mov r24,r28
 5782 106a 0E94 0000 		call i2cwt
 5783               	.LM511:
 5784 106e 802F      		mov r24,r16
 5785 1070 0E94 0000 		call i2cwt
 5786 1074 03C0      		rjmp .L345
 5787               	.L344:
 5788               	.LM512:
 5789 1076 81E0      		ldi r24,lo8(1)
 5790 1078 8093 0000 		sts syserr,r24
 5791               	.L345:
 5792               	.LM513:
 5793 107c 0E94 0000 		call i2cstop
 5794               	/* epilogue: frame size=0 */
 5795 1080 DF91      		pop r29
 5796 1082 CF91      		pop r28
 5797 1084 1F91      		pop r17
 5798 1086 0F91      		pop r16
 5799 1088 0895      		ret
 5800               	/* epilogue end (size=5) */
 5801               	/* function PCF8536_wt size 35 (26) */
 5802               	.LFE50:
 5804               	.global	PCF8536_wt_p
 5806               	PCF8536_wt_p:
 5807               	.LFB51:
 5808               	.LM514:
 5809               	/* prologue: frame size=0 */
 5810 108a EF92      		push r14
 5811 108c FF92      		push r15
 5812 108e 0F93      		push r16
 5813 1090 1F93      		push r17
 5814 1092 CF93      		push r28
 5815 1094 DF93      		push r29
 5816               	/* prologue end (size=6) */
 5817 1096 EC01      		movw r28,r24
 5818 1098 7B01      		movw r14,r22
 5819 109a 042F      		mov r16,r20
 5820               	.LM515:
 5821 109c 892F      		mov r24,r25
 5822 109e 9927      		clr r25
 5823 10a0 182F      		mov r17,r24
 5824               	.LM516:
 5825 10a2 110F      		lsl r17
 5826               	.LM517:
 5827 10a4 0E94 0000 		call i2cstart
 5828               	.LM518:
 5829 10a8 812F      		mov r24,r17
 5830 10aa 8E55      		subi r24,lo8(-(-94))
 5831 10ac 0E94 0000 		call i2cwt
 5832 10b0 8831      		cpi r24,lo8(24)
 5833 10b2 69F4      		brne .L347
 5834               	.LM519:
 5835 10b4 8C2F      		mov r24,r28
 5836 10b6 0E94 0000 		call i2cwt
 5837               	.L355:
 5838               	.LM520:
 5839 10ba 0023      		tst r16
 5840 10bc 59F0      		breq .L352
 5841               	.LM521:
 5842 10be F701      		movw r30,r14
 5843 10c0 8191      		ld r24,Z+
 5844 10c2 7F01      		movw r14,r30
 5845 10c4 0E94 0000 		call i2cwt
 5846               	.LM522:
 5847               	/* #APP */
 5848 10c8 0000      		nop
 5849               	.LM523:
 5850               	/* #NOAPP */
 5851 10ca 0150      		subi r16,lo8(-(-1))
 5852 10cc F6CF      		rjmp .L355
 5853               	.L347:
 5854               	.LM524:
 5855 10ce 81E0      		ldi r24,lo8(1)
 5856 10d0 8093 0000 		sts syserr,r24
 5857               	.L352:
 5858               	.LM525:
 5859 10d4 0E94 0000 		call i2cstop
 5860               	/* epilogue: frame size=0 */
 5861 10d8 DF91      		pop r29
 5862 10da CF91      		pop r28
 5863 10dc 1F91      		pop r17
 5864 10de 0F91      		pop r16
 5865 10e0 FF90      		pop r15
 5866 10e2 EF90      		pop r14
 5867 10e4 0895      		ret
 5868               	/* epilogue end (size=7) */
 5869               	/* function PCF8536_wt_p size 47 (34) */
 5870               	.LFE51:
 5872               	.global	PCF8536_rd
 5874               	PCF8536_rd:
 5875               	.LFB52:
 5876               	.LM526:
 5877               	/* prologue: frame size=0 */
 5878 10e6 EF92      		push r14
 5879 10e8 FF92      		push r15
 5880 10ea 0F93      		push r16
 5881 10ec 1F93      		push r17
 5882 10ee CF93      		push r28
 5883 10f0 DF93      		push r29
 5884               	/* prologue end (size=6) */
 5885 10f2 EC01      		movw r28,r24
 5886 10f4 7B01      		movw r14,r22
 5887 10f6 042F      		mov r16,r20
 5888               	.LM527:
 5889 10f8 892F      		mov r24,r25
 5890 10fa 9927      		clr r25
 5891 10fc 182F      		mov r17,r24
 5892               	.LM528:
 5893 10fe 110F      		lsl r17
 5894               	.LM529:
 5895 1100 0E94 0000 		call i2cstart
 5896               	.LM530:
 5897 1104 812F      		mov r24,r17
 5898 1106 8E55      		subi r24,lo8(-(-94))
 5899 1108 0E94 0000 		call i2cwt
 5900 110c 8831      		cpi r24,lo8(24)
 5901 110e 21F4      		brne .L357
 5902               	.LM531:
 5903 1110 8C2F      		mov r24,r28
 5904 1112 0E94 0000 		call i2cwt
 5905 1116 03C0      		rjmp .L358
 5906               	.L357:
 5907               	.LM532:
 5908 1118 81E0      		ldi r24,lo8(1)
 5909 111a 8093 0000 		sts syserr,r24
 5910               	.L358:
 5911               	.LM533:
 5912 111e 0E94 0000 		call i2cstart
 5913               	.LM534:
 5914 1122 812F      		mov r24,r17
 5915 1124 8D55      		subi r24,lo8(-(-93))
 5916 1126 0E94 0000 		call i2cwt
 5917 112a 8831      		cpi r24,lo8(24)
 5918 112c 21F4      		brne .L359
 5919               	.LM535:
 5920 112e 8C2F      		mov r24,r28
 5921 1130 0E94 0000 		call i2cwt
 5922 1134 03C0      		rjmp .L360
 5923               	.L359:
 5924               	.LM536:
 5925 1136 81E0      		ldi r24,lo8(1)
 5926 1138 8093 0000 		sts syserr,r24
 5927               	.L360:
 5928               	.LM537:
 5929 113c 0023      		tst r16
 5930 113e 39F0      		breq .L366
 5931               	.L364:
 5932               	.LM538:
 5933 1140 0E94 0000 		call i2crd
 5934 1144 F701      		movw r30,r14
 5935 1146 8193      		st Z+,r24
 5936 1148 7F01      		movw r14,r30
 5937               	.LM539:
 5938 114a 0150      		subi r16,lo8(-(-1))
 5939 114c C9F7      		brne .L364
 5940               	.L366:
 5941               	/* epilogue: frame size=0 */
 5942 114e DF91      		pop r29
 5943 1150 CF91      		pop r28
 5944 1152 1F91      		pop r17
 5945 1154 0F91      		pop r16
 5946 1156 FF90      		pop r15
 5947 1158 EF90      		pop r14
 5948 115a 0895      		ret
 5949               	/* epilogue end (size=7) */
 5950               	/* function PCF8536_rd size 60 (47) */
 5951               	.LFE52:
 5953               	.global	PCF8563_init
 5955               	PCF8563_init:
 5956               	.LFB53:
 5957               	.LM540:
 5958               	/* prologue: frame size=0 */
 5959               	/* prologue end (size=0) */
 5960               	.LM541:
 5961 115c 68E0      		ldi r22,lo8(8)
 5962 115e 80E0      		ldi r24,lo8(write_buff)
 5963 1160 90E0      		ldi r25,hi8(write_buff)
 5964 1162 0E94 0000 		call clear
 5965               	.LM542:
 5966 1166 68E0      		ldi r22,lo8(8)
 5967 1168 80E0      		ldi r24,lo8(read_buff)
 5968 116a 90E0      		ldi r25,hi8(read_buff)
 5969 116c 0E94 0000 		call clear
 5970               	.LM543:
 5971 1170 60E2      		ldi r22,lo8(32)
 5972 1172 80E0      		ldi r24,lo8(0)
 5973 1174 90E0      		ldi r25,hi8(0)
 5974 1176 0E94 0000 		call PCF8536_wt
 5975               	.LM544:
 5976 117a 60E0      		ldi r22,lo8(0)
 5977 117c 80E0      		ldi r24,lo8(0)
 5978 117e 90E0      		ldi r25,hi8(0)
 5979 1180 0E94 0000 		call PCF8536_wt
 5980               	/* epilogue: frame size=0 */
 5981 1184 0895      		ret
 5982               	/* epilogue end (size=1) */
 5983               	/* function PCF8563_init size 21 (20) */
 5984               	.LFE53:
 5986               	.global	Updata_time
 5988               	Updata_time:
 5989               	.LFB54:
 5990               	.LM545:
 5991               	/* prologue: frame size=0 */
 5992               	/* prologue end (size=0) */
 5993               	.LM546:
 5994 1186 47E0      		ldi r20,lo8(7)
 5995 1188 60E0      		ldi r22,lo8(time)
 5996 118a 70E0      		ldi r23,hi8(time)
 5997 118c 82E0      		ldi r24,lo8(2)
 5998 118e 90E0      		ldi r25,hi8(2)
 5999 1190 0E94 0000 		call PCF8536_rd
 6000               	.LM547:
 6001 1194 8091 0000 		lds r24,time
 6002 1198 982F      		mov r25,r24
 6003 119a 9F77      		andi r25,lo8(127)
 6004 119c 9093 0000 		sts time,r25
 6005               	.LM548:
 6006 11a0 2091 0000 		lds r18,time+1
 6007 11a4 422F      		mov r20,r18
 6008 11a6 4F77      		andi r20,lo8(127)
 6009 11a8 4093 0000 		sts time+1,r20
 6010               	.LM549:
 6011 11ac 5091 0000 		lds r21,time+2
 6012 11b0 752F      		mov r23,r21
 6013 11b2 7F73      		andi r23,lo8(63)
 6014 11b4 7093 0000 		sts time+2,r23
 6015               	.LM550:
 6016 11b8 E091 0000 		lds r30,time+3
 6017 11bc AE2F      		mov r26,r30
 6018 11be AF73      		andi r26,lo8(63)
 6019 11c0 A093 0000 		sts time+3,r26
 6020               	.LM551:
 6021 11c4 F091 0000 		lds r31,time+4
 6022 11c8 F770      		andi r31,lo8(7)
 6023 11ca F093 0000 		sts time+4,r31
 6024               	.LM552:
 6025 11ce 3091 0000 		lds r19,time+5
 6026 11d2 632F      		mov r22,r19
 6027 11d4 6F71      		andi r22,lo8(31)
 6028 11d6 6093 0000 		sts time+5,r22
 6029               	.LM553:
 6030 11da 8F70      		andi r24,lo8(15)
 6031 11dc 8093 0000 		sts RunParameter+13,r24
 6032               	.LM554:
 6033 11e0 9295      		swap r25
 6034 11e2 9F70      		andi r25,0x0f
 6035 11e4 9093 0000 		sts RunParameter+12,r25
 6036               	.LM555:
 6037 11e8 2F70      		andi r18,lo8(15)
 6038 11ea 2093 0000 		sts RunParameter+11,r18
 6039               	.LM556:
 6040 11ee 4295      		swap r20
 6041 11f0 4F70      		andi r20,0x0f
 6042 11f2 4093 0000 		sts RunParameter+10,r20
 6043               	.LM557:
 6044 11f6 5F70      		andi r21,lo8(15)
 6045 11f8 5093 0000 		sts RunParameter+9,r21
 6046               	.LM558:
 6047 11fc 7295      		swap r23
 6048 11fe 7F70      		andi r23,0x0f
 6049 1200 7093 0000 		sts RunParameter+8,r23
 6050               	.LM559:
 6051 1204 EF70      		andi r30,lo8(15)
 6052 1206 E093 0000 		sts RunParameter+7,r30
 6053               	.LM560:
 6054 120a A295      		swap r26
 6055 120c AF70      		andi r26,0x0f
 6056 120e A093 0000 		sts RunParameter+6,r26
 6057               	.LM561:
 6058 1212 3F70      		andi r19,lo8(15)
 6059 1214 3093 0000 		sts RunParameter+5,r19
 6060               	.LM562:
 6061 1218 6295      		swap r22
 6062 121a 6F70      		andi r22,0x0f
 6063 121c 6093 0000 		sts RunParameter+4,r22
 6064               	.LM563:
 6065 1220 8091 0000 		lds r24,time+6
 6066 1224 982F      		mov r25,r24
 6067 1226 9F70      		andi r25,lo8(15)
 6068 1228 9093 0000 		sts RunParameter+3,r25
 6069               	.LM564:
 6070 122c 8295      		swap r24
 6071 122e 8F70      		andi r24,0x0f
 6072 1230 8093 0000 		sts RunParameter+2,r24
 6073               	.LM565:
 6074 1234 FF5F      		subi r31,lo8(-(1))
 6075 1236 F093 0000 		sts RunParameter+14,r31
 6076               	/* epilogue: frame size=0 */
 6077 123a 0895      		ret
 6078               	/* epilogue end (size=1) */
 6079               	/* function Updata_time size 91 (90) */
 6080               	.LFE54:
 6082               	.global	Write_time
 6084               	Write_time:
 6085               	.LFB55:
 6086               	.LM566:
 6087               	/* prologue: frame size=7 */
 6088 123c CF93      		push r28
 6089 123e DF93      		push r29
 6090 1240 CDB7      		in r28,__SP_L__
 6091 1242 DEB7      		in r29,__SP_H__
 6092 1244 2797      		sbiw r28,7
 6093 1246 0FB6      		in __tmp_reg__,__SREG__
 6094 1248 F894      		cli
 6095 124a DEBF      		out __SP_H__,r29
 6096 124c 0FBE      		out __SREG__,__tmp_reg__
 6097 124e CDBF      		out __SP_L__,r28
 6098               	/* prologue end (size=10) */
 6099               	.LM567:
 6100 1250 8091 0000 		lds r24,RunParameter+12
 6101 1254 9927      		clr r25
 6102 1256 54E0      		ldi r21,4
 6103 1258 880F      	1:	lsl r24
 6104 125a 991F      		rol r25
 6105 125c 5A95      		dec r21
 6106 125e E1F7      		brne 1b
 6107 1260 2091 0000 		lds r18,RunParameter+13
 6108 1264 282B      		or r18,r24
 6109 1266 2983      		std Y+1,r18
 6110 1268 8091 0000 		lds r24,RunParameter+10
 6111 126c 9927      		clr r25
 6112 126e 44E0      		ldi r20,4
 6113 1270 880F      	1:	lsl r24
 6114 1272 991F      		rol r25
 6115 1274 4A95      		dec r20
 6116 1276 E1F7      		brne 1b
 6117 1278 2091 0000 		lds r18,RunParameter+11
 6118 127c 282B      		or r18,r24
 6119 127e 2A83      		std Y+2,r18
 6120 1280 8091 0000 		lds r24,RunParameter+8
 6121 1284 9927      		clr r25
 6122 1286 34E0      		ldi r19,4
 6123 1288 880F      	1:	lsl r24
 6124 128a 991F      		rol r25
 6125 128c 3A95      		dec r19
 6126 128e E1F7      		brne 1b
 6127 1290 2091 0000 		lds r18,RunParameter+9
 6128 1294 282B      		or r18,r24
 6129 1296 2B83      		std Y+3,r18
 6130 1298 8091 0000 		lds r24,RunParameter+6
 6131 129c 9927      		clr r25
 6132 129e 24E0      		ldi r18,4
 6133 12a0 880F      	1:	lsl r24
 6134 12a2 991F      		rol r25
 6135 12a4 2A95      		dec r18
 6136 12a6 E1F7      		brne 1b
 6137 12a8 2091 0000 		lds r18,RunParameter+7
 6138 12ac 282B      		or r18,r24
 6139 12ae 2C83      		std Y+4,r18
 6140 12b0 8091 0000 		lds r24,RunParameter+14
 6141 12b4 8150      		subi r24,lo8(-(-1))
 6142 12b6 8D83      		std Y+5,r24
 6143 12b8 8091 0000 		lds r24,RunParameter+4
 6144 12bc 9927      		clr r25
 6145 12be B4E0      		ldi r27,4
 6146 12c0 880F      	1:	lsl r24
 6147 12c2 991F      		rol r25
 6148 12c4 BA95      		dec r27
 6149 12c6 E1F7      		brne 1b
 6150 12c8 2091 0000 		lds r18,RunParameter+5
 6151 12cc 282B      		or r18,r24
 6152 12ce 2E83      		std Y+6,r18
 6153 12d0 8091 0000 		lds r24,RunParameter+2
 6154 12d4 9927      		clr r25
 6155 12d6 A4E0      		ldi r26,4
 6156 12d8 880F      	1:	lsl r24
 6157 12da 991F      		rol r25
 6158 12dc AA95      		dec r26
 6159 12de E1F7      		brne 1b
 6160 12e0 2091 0000 		lds r18,RunParameter+3
 6161 12e4 282B      		or r18,r24
 6162 12e6 2F83      		std Y+7,r18
 6163               	.LM568:
 6164 12e8 47E0      		ldi r20,lo8(7)
 6165 12ea BE01      		movw r22,r28
 6166 12ec 6F5F      		subi r22,lo8(-(1))
 6167 12ee 7F4F      		sbci r23,hi8(-(1))
 6168 12f0 82E0      		ldi r24,lo8(2)
 6169 12f2 90E0      		ldi r25,hi8(2)
 6170 12f4 0E94 0000 		call PCF8536_wt_p
 6171               	/* epilogue: frame size=7 */
 6172 12f8 2796      		adiw r28,7
 6173 12fa 0FB6      		in __tmp_reg__,__SREG__
 6174 12fc F894      		cli
 6175 12fe DEBF      		out __SP_H__,r29
 6176 1300 0FBE      		out __SREG__,__tmp_reg__
 6177 1302 CDBF      		out __SP_L__,r28
 6178 1304 DF91      		pop r29
 6179 1306 CF91      		pop r28
 6180 1308 0895      		ret
 6181               	/* epilogue end (size=9) */
 6182               	/* function Write_time size 103 (84) */
 6183               	.LFE55:
 6185               	.global	AjustTimerMonthly
 6187               	AjustTimerMonthly:
 6188               	.LFB56:
 6189               	.LM569:
 6190               	/* prologue: frame size=0 */
 6191 130a CF93      		push r28
 6192               	/* prologue end (size=1) */
 6193               	.LM570:
 6194 130c 8091 0000 		lds r24,RunParameter+6
 6195 1310 8823      		tst r24
 6196 1312 09F0      		breq .+2
 6197 1314 62C0      		rjmp .L370
 6198               	.LM571:
 6199 1316 C091 0000 		lds r28,RunParameter+7
 6200 131a C130      		cpi r28,lo8(1)
 6201 131c 09F0      		breq .+2
 6202 131e 5DC0      		rjmp .L370
 6203               	.LM572:
 6204 1320 9091 0000 		lds r25,RunParameter+8
 6205 1324 9923      		tst r25
 6206 1326 09F0      		breq .+2
 6207 1328 58C0      		rjmp .L370
 6208 132a 8091 0000 		lds r24,RunParameter+9
 6209 132e 8330      		cpi r24,lo8(3)
 6210 1330 09F0      		breq .+2
 6211 1332 53C0      		rjmp .L370
 6212               	.LM573:
 6213 1334 8091 0000 		lds r24,RunParameter+10
 6214 1338 8330      		cpi r24,lo8(3)
 6215 133a 09F0      		breq .+2
 6216 133c 4AC0      		rjmp .L373
 6217 133e 8091 0000 		lds r24,RunParameter+11
 6218 1342 8823      		tst r24
 6219 1344 09F0      		breq .+2
 6220 1346 49C0      		rjmp .L370
 6221               	.LM574:
 6222 1348 8091 0000 		lds r24,RunParameter+22
 6223 134c 8823      		tst r24
 6224 134e F9F0      		breq .L374
 6225 1350 2091 0000 		lds r18,RunParameter+25
 6226 1354 2223      		tst r18
 6227 1356 D9F4      		brne .L374
 6228               	.LBB53:
 6229               	.LM575:
 6230 1358 3AE0      		ldi r19,lo8(10)
 6231 135a 225E      		subi r18,lo8(-(30))
 6232               	.LM576:
 6233 135c 8091 0000 		lds r24,RunParameter+23
 6234 1360 839F      		mul r24,r19
 6235 1362 C001      		movw r24,r0
 6236 1364 1124      		clr r1
 6237 1366 280F      		add r18,r24
 6238 1368 8091 0000 		lds r24,RunParameter+24
 6239 136c 280F      		add r18,r24
 6240               	.LM577:
 6241 136e 822F      		mov r24,r18
 6242 1370 632F      		mov r22,r19
 6243 1372 0E94 0000 		call __udivmodqi4
 6244 1376 8093 0000 		sts RunParameter+10,r24
 6245               	.LM578:
 6246 137a 822F      		mov r24,r18
 6247 137c 0E94 0000 		call __udivmodqi4
 6248 1380 9093 0000 		sts RunParameter+11,r25
 6249               	.LM579:
 6250 1384 0E94 0000 		call Write_time
 6251               	.LM580:
 6252 1388 C093 0000 		sts RunParameter+25,r28
 6253               	.LBE53:
 6254 138c 26C0      		rjmp .L370
 6255               	.L374:
 6256               	.LM581:
 6257 138e 8823      		tst r24
 6258 1390 21F5      		brne .L370
 6259 1392 8091 0000 		lds r24,RunParameter+25
 6260 1396 8823      		tst r24
 6261 1398 01F5      		brne .L370
 6262               	.LBB54:
 6263               	.LM582:
 6264 139a 3AE0      		ldi r19,lo8(10)
 6265 139c 2EE1      		ldi r18,lo8(30)
 6266               	.LM583:
 6267 139e 8091 0000 		lds r24,RunParameter+23
 6268 13a2 839F      		mul r24,r19
 6269 13a4 C001      		movw r24,r0
 6270 13a6 1124      		clr r1
 6271 13a8 281B      		sub r18,r24
 6272 13aa 8091 0000 		lds r24,RunParameter+24
 6273 13ae 281B      		sub r18,r24
 6274               	.LM584:
 6275 13b0 822F      		mov r24,r18
 6276 13b2 632F      		mov r22,r19
 6277 13b4 0E94 0000 		call __udivmodqi4
 6278 13b8 8093 0000 		sts RunParameter+10,r24
 6279               	.LM585:
 6280 13bc 822F      		mov r24,r18
 6281 13be 0E94 0000 		call __udivmodqi4
 6282 13c2 9093 0000 		sts RunParameter+11,r25
 6283               	.LM586:
 6284 13c6 0E94 0000 		call Write_time
 6285               	.LM587:
 6286 13ca 81E0      		ldi r24,lo8(1)
 6287 13cc 8093 0000 		sts RunParameter+25,r24
 6288               	.LBE54:
 6289 13d0 04C0      		rjmp .L370
 6290               	.L373:
 6291               	.LM588:
 6292 13d2 8530      		cpi r24,lo8(5)
 6293 13d4 11F4      		brne .L370
 6294               	.LM589:
 6295 13d6 9093 0000 		sts RunParameter+25,r25
 6296               	.L370:
 6297               	/* epilogue: frame size=0 */
 6298 13da CF91      		pop r28
 6299 13dc 0895      		ret
 6300               	/* epilogue end (size=2) */
 6301               	/* function AjustTimerMonthly size 106 (103) */
 6302               	.LFE56:
 6304               	.global	Key_Init
 6306               	Key_Init:
 6307               	.LFB57:
 6308               	.LM590:
 6309               	/* prologue: frame size=0 */
 6310               	/* prologue end (size=0) */
 6311               	.LM591:
 6312 13de AE9A      		sbi 53-0x20,6
 6313               	.LM592:
 6314 13e0 A698      		cbi 52-0x20,6
 6315               	.LM593:
 6316 13e2 AF9A      		sbi 53-0x20,7
 6317               	.LM594:
 6318 13e4 A798      		cbi 52-0x20,7
 6319               	.LM595:
 6320 13e6 909A      		sbi 50-0x20,0
 6321               	.LM596:
 6322 13e8 8898      		cbi 49-0x20,0
 6323               	.LM597:
 6324 13ea 919A      		sbi 50-0x20,1
 6325               	.LM598:
 6326 13ec 8998      		cbi 49-0x20,1
 6327               	/* epilogue: frame size=0 */
 6328 13ee 0895      		ret
 6329               	/* epilogue end (size=1) */
 6330               	/* function Key_Init size 9 (8) */
 6331               	.LFE57:
 6333               	.global	Key_Operation
 6335               	Key_Operation:
 6336               	.LFB58:
 6337               	.LM599:
 6338               	/* prologue: frame size=0 */
 6339 13f0 CF92      		push r12
 6340 13f2 DF92      		push r13
 6341 13f4 EF92      		push r14
 6342 13f6 FF92      		push r15
 6343 13f8 0F93      		push r16
 6344 13fa 1F93      		push r17
 6345 13fc CF93      		push r28
 6346 13fe DF93      		push r29
 6347               	/* prologue end (size=8) */
 6348 1400 D82E      		mov r13,r24
 6349 1402 C62E      		mov r12,r22
 6350 1404 EA01      		movw r28,r20
 6351 1406 7901      		movw r14,r18
 6352               	.LM600:
 6353 1408 9E99      		sbic 51-0x20,6
 6354 140a 20C0      		rjmp .L381
 6355               	.LBB55:
 6356               	.LBB56:
 6357               	.LM601:
 6358 140c 80E2      		ldi r24,lo8(20000)
 6359 140e 9EE4      		ldi r25,hi8(20000)
 6360               	.LBB57:
 6361               	.LBB58:
 6362               	.LM602:
 6363               	/* #APP */
 6364 1410 0197      		1: sbiw r24,1
 6365 1412 F1F7      		brne 1b
 6366               	/* #NOAPP */
 6367               	.LBE58:
 6368               	.LBE57:
 6369               	.LBE56:
 6370               	.LBE55:
 6371               	.LM603:
 6372 1414 9E99      		sbic 51-0x20,6
 6373 1416 18C0      		rjmp .L392
 6374               	.LBB59:
 6375               	.LM604:
 6376 1418 8881      		ld r24,Y
 6377 141a 3AE0      		ldi r19,lo8(10)
 6378 141c 839F      		mul r24,r19
 6379 141e C001      		movw r24,r0
 6380 1420 1124      		clr r1
 6381 1422 F701      		movw r30,r14
 6382 1424 2081      		ld r18,Z
 6383 1426 280F      		add r18,r24
 6384               	.LM605:
 6385 1428 2F5F      		subi r18,lo8(-(1))
 6386               	.LM606:
 6387 142a D216      		cp r13,r18
 6388 142c 08F4      		brsh .L391
 6389               	.LM607:
 6390 142e 262F      		mov r18,r22
 6391               	.L391:
 6392               	.LM608:
 6393 1430 822F      		mov r24,r18
 6394 1432 632F      		mov r22,r19
 6395 1434 0E94 0000 		call __udivmodqi4
 6396 1438 8883      		st Y,r24
 6397               	.LM609:
 6398 143a 822F      		mov r24,r18
 6399 143c 0E94 0000 		call __udivmodqi4
 6400 1440 F701      		movw r30,r14
 6401 1442 9083      		st Z,r25
 6402               	.LM610:
 6403 1444 F801      		movw r30,r16
 6404 1446 0995      		icall
 6405               	.L392:
 6406               	.LBE59:
 6407               	.LM611:
 6408 1448 9E9B      		sbis 51-0x20,6
 6409 144a FECF      		rjmp .L392
 6410               	.L381:
 6411               	.LM612:
 6412 144c 9F99      		sbic 51-0x20,7
 6413 144e 2EC0      		rjmp .L380
 6414               	.LBB60:
 6415               	.LBB61:
 6416               	.LM613:
 6417 1450 80E2      		ldi r24,lo8(20000)
 6418 1452 9EE4      		ldi r25,hi8(20000)
 6419               	.LBB62:
 6420               	.LBB63:
 6421               	.LM614:
 6422               	/* #APP */
 6423 1454 0197      		1: sbiw r24,1
 6424 1456 F1F7      		brne 1b
 6425               	/* #NOAPP */
 6426               	.LBE63:
 6427               	.LBE62:
 6428               	.LBE61:
 6429               	.LBE60:
 6430               	.LM615:
 6431 1458 9F99      		sbic 51-0x20,7
 6432 145a 26C0      		rjmp .L408
 6433               	.LBB64:
 6434               	.LM616:
 6435 145c 8881      		ld r24,Y
 6436 145e 3AE0      		ldi r19,lo8(10)
 6437 1460 839F      		mul r24,r19
 6438 1462 C001      		movw r24,r0
 6439 1464 1124      		clr r1
 6440 1466 F701      		movw r30,r14
 6441 1468 2081      		ld r18,Z
 6442 146a 280F      		add r18,r24
 6443               	.LM617:
 6444 146c 2150      		subi r18,lo8(-(-1))
 6445               	.LM618:
 6446 146e 80E0      		ldi r24,lo8(0)
 6447 1470 90E0      		ldi r25,hi8(0)
 6448 1472 D216      		cp r13,r18
 6449 1474 10F4      		brsh .L406
 6450 1476 81E0      		ldi r24,lo8(1)
 6451 1478 90E0      		ldi r25,hi8(1)
 6452               	.L406:
 6453 147a 40E0      		ldi r20,lo8(0)
 6454 147c 50E0      		ldi r21,hi8(0)
 6455 147e 2C15      		cp r18,r12
 6456 1480 10F4      		brsh .L407
 6457 1482 41E0      		ldi r20,lo8(1)
 6458 1484 50E0      		ldi r21,hi8(1)
 6459               	.L407:
 6460 1486 842B      		or r24,r20
 6461 1488 952B      		or r25,r21
 6462 148a 892B      		or r24,r25
 6463 148c 09F0      		breq .L405
 6464               	.LM619:
 6465 148e 2D2D      		mov r18,r13
 6466               	.L405:
 6467               	.LM620:
 6468 1490 822F      		mov r24,r18
 6469 1492 632F      		mov r22,r19
 6470 1494 0E94 0000 		call __udivmodqi4
 6471 1498 8883      		st Y,r24
 6472               	.LM621:
 6473 149a 822F      		mov r24,r18
 6474 149c 0E94 0000 		call __udivmodqi4
 6475 14a0 F701      		movw r30,r14
 6476 14a2 9083      		st Z,r25
 6477               	.LM622:
 6478 14a4 F801      		movw r30,r16
 6479 14a6 0995      		icall
 6480               	.L408:
 6481               	.LBE64:
 6482               	.LM623:
 6483 14a8 9F9B      		sbis 51-0x20,7
 6484 14aa FECF      		rjmp .L408
 6485               	.L380:
 6486               	/* epilogue: frame size=0 */
 6487 14ac DF91      		pop r29
 6488 14ae CF91      		pop r28
 6489 14b0 1F91      		pop r17
 6490 14b2 0F91      		pop r16
 6491 14b4 FF90      		pop r15
 6492 14b6 EF90      		pop r14
 6493 14b8 DF90      		pop r13
 6494 14ba CF90      		pop r12
 6495 14bc 0895      		ret
 6496               	/* epilogue end (size=9) */
 6497               	/* function Key_Operation size 107 (90) */
 6498               	.LFE58:
 6500               	.global	Scan_Key
 6502               	Scan_Key:
 6503               	.LFB59:
 6504               	.LM624:
 6505               	/* prologue: frame size=3 */
 6506 14be 0F93      		push r16
 6507 14c0 1F93      		push r17
 6508 14c2 CF93      		push r28
 6509 14c4 DF93      		push r29
 6510 14c6 CDB7      		in r28,__SP_L__
 6511 14c8 DEB7      		in r29,__SP_H__
 6512 14ca 2397      		sbiw r28,3
 6513 14cc 0FB6      		in __tmp_reg__,__SREG__
 6514 14ce F894      		cli
 6515 14d0 DEBF      		out __SP_H__,r29
 6516 14d2 0FBE      		out __SREG__,__tmp_reg__
 6517 14d4 CDBF      		out __SP_L__,r28
 6518               	/* prologue end (size=12) */
 6519               	.LM625:
 6520 14d6 8091 0000 		lds r24,RunParameter+21
 6521 14da 8823      		tst r24
 6522 14dc A9F0      		breq .L412
 6523               	.LM626:
 6524 14de 8B31      		cpi r24,lo8(27)
 6525 14e0 99F0      		breq .L412
 6526 14e2 8A31      		cpi r24,lo8(26)
 6527 14e4 89F0      		breq .L412
 6528 14e6 8091 0000 		lds r24,KEY_Time_count
 6529 14ea 9091 0000 		lds r25,(KEY_Time_count)+1
 6530 14ee 8950      		subi r24,lo8(21001)
 6531 14f0 9245      		sbci r25,hi8(21001)
 6532 14f2 50F0      		brlo .L412
 6533               	.LM627:
 6534 14f4 1092 0000 		sts RunParameter+21,__zero_reg__
 6535               	.LM628:
 6536 14f8 0E94 0000 		call Write_time
 6537               	.LM629:
 6538 14fc 0E94 0000 		call SaveRunParameter
 6539               	.LM630:
 6540 1500 0E94 0000 		call clearScreen
 6541               	.LM631:
 6542 1504 0E94 0000 		call FreshDisplayBufferNormal
 6543               	.L412:
 6544               	.LM632:
 6545 1508 8091 0000 		lds r24,RunParameter+21
 6546 150c 8A51      		subi r24,lo8(-(-26))
 6547 150e 8230      		cpi r24,lo8(2)
 6548 1510 68F4      		brsh .L413
 6549               	.LM633:
 6550 1512 8091 0000 		lds r24,KEY_Time_count_speed_color
 6551 1516 9091 0000 		lds r25,(KEY_Time_count_speed_color)+1
 6552 151a 855F      		subi r24,lo8(501)
 6553 151c 9140      		sbci r25,hi8(501)
 6554 151e 30F0      		brlo .L413
 6555               	.LM634:
 6556 1520 1092 0000 		sts RunParameter+21,__zero_reg__
 6557               	.LM635:
 6558 1524 0E94 0000 		call SaveRunParameter
 6559               	.LM636:
 6560 1528 0E94 0000 		call FreshDisplayBufferNormal
 6561               	.L413:
 6562               	.LM637:
 6563 152c 8199      		sbic 48-0x20,1
 6564 152e 13C0      		rjmp .L415
 6565               	.LBB65:
 6566               	.LBB66:
 6567               	.LM638:
 6568 1530 80E2      		ldi r24,lo8(20000)
 6569 1532 9EE4      		ldi r25,hi8(20000)
 6570               	.LBB67:
 6571               	.LBB68:
 6572               	.LM639:
 6573               	/* #APP */
 6574 1534 0197      		1: sbiw r24,1
 6575 1536 F1F7      		brne 1b
 6576               	/* #NOAPP */
 6577               	.LBE68:
 6578               	.LBE67:
 6579               	.LBE66:
 6580               	.LBE65:
 6581               	.LM640:
 6582 1538 8199      		sbic 48-0x20,1
 6583 153a 0BC0      		rjmp .L426
 6584               	.LM641:
 6585 153c 8091 0000 		lds r24,RunParameter+26
 6586 1540 8F5F      		subi r24,lo8(-(1))
 6587 1542 8093 0000 		sts RunParameter+26,r24
 6588               	.LM642:
 6589 1546 8530      		cpi r24,lo8(5)
 6590 1548 10F0      		brlo .L425
 6591               	.LM643:
 6592 154a 1092 0000 		sts RunParameter+26,__zero_reg__
 6593               	.L425:
 6594               	.LM644:
 6595 154e 0E94 0000 		call SaveRunParameter
 6596               	.L426:
 6597               	.LM645:
 6598 1552 819B      		sbis 48-0x20,1
 6599 1554 FECF      		rjmp .L426
 6600               	.L415:
 6601               	.LM646:
 6602 1556 8091 0000 		lds r24,RunParameter+21
 6603 155a 8823      		tst r24
 6604 155c 29F0      		breq .L430
 6605 155e 8B31      		cpi r24,lo8(27)
 6606 1560 19F0      		breq .L430
 6607 1562 8A31      		cpi r24,lo8(26)
 6608 1564 09F0      		breq .+2
 6609 1566 47C0      		rjmp .L429
 6610               	.L430:
 6611               	.LM647:
 6612 1568 9E99      		sbic 51-0x20,6
 6613 156a 27C0      		rjmp .L431
 6614               	.LBB69:
 6615               	.LBB70:
 6616               	.LM648:
 6617 156c 80E2      		ldi r24,lo8(20000)
 6618 156e 9EE4      		ldi r25,hi8(20000)
 6619               	.LBB71:
 6620               	.LBB72:
 6621               	.LM649:
 6622               	/* #APP */
 6623 1570 0197      		1: sbiw r24,1
 6624 1572 F1F7      		brne 1b
 6625               	/* #NOAPP */
 6626               	.LBE72:
 6627               	.LBE71:
 6628               	.LBE70:
 6629               	.LBE69:
 6630               	.LM650:
 6631 1574 9E99      		sbic 51-0x20,6
 6632 1576 1FC0      		rjmp .L444
 6633               	.LM651:
 6634 1578 8091 0000 		lds r24,RunParameter+18
 6635 157c 8823      		tst r24
 6636 157e 91F0      		breq .L443
 6637               	.LM652:
 6638 1580 8091 0000 		lds r24,RunParameter+19
 6639 1584 8F5F      		subi r24,lo8(-(1))
 6640 1586 8093 0000 		sts RunParameter+19,r24
 6641               	.LM653:
 6642 158a 8930      		cpi r24,lo8(9)
 6643 158c 18F0      		brlo .L442
 6644               	.LM654:
 6645 158e 81E0      		ldi r24,lo8(1)
 6646 1590 8093 0000 		sts RunParameter+19,r24
 6647               	.L442:
 6648               	.LM655:
 6649 1594 9091 0000 		lds r25,RunParameter+19
 6650 1598 89E1      		ldi r24,lo8(25)
 6651 159a 989F      		mul r25,r24
 6652 159c C001      		movw r24,r0
 6653 159e 1124      		clr r1
 6654 15a0 8851      		subi r24,lo8(-(-24))
 6655 15a2 8CBF      		out 92-0x20,r24
 6656               	.L443:
 6657               	.LM656:
 6658 15a4 8BE1      		ldi r24,lo8(27)
 6659 15a6 8093 0000 		sts RunParameter+21,r24
 6660               	.LM657:
 6661 15aa 1092 0000 		sts (KEY_Time_count_speed_color)+1,__zero_reg__
 6662 15ae 1092 0000 		sts KEY_Time_count_speed_color,__zero_reg__
 6663               	.LM658:
 6664 15b2 0E94 0000 		call FreshDisplayBufferAjustLight
 6665               	.L444:
 6666               	.LM659:
 6667 15b6 9E9B      		sbis 51-0x20,6
 6668 15b8 FECF      		rjmp .L444
 6669               	.L431:
 6670               	.LM660:
 6671 15ba 9F99      		sbic 51-0x20,7
 6672 15bc B8C0      		rjmp .L461
 6673               	.LBB73:
 6674               	.LBB74:
 6675               	.LM661:
 6676 15be 80E2      		ldi r24,lo8(20000)
 6677 15c0 9EE4      		ldi r25,hi8(20000)
 6678               	.LBB75:
 6679               	.LBB76:
 6680               	.LM662:
 6681               	/* #APP */
 6682 15c2 0197      		1: sbiw r24,1
 6683 15c4 F1F7      		brne 1b
 6684               	/* #NOAPP */
 6685               	.LBE76:
 6686               	.LBE75:
 6687               	.LBE74:
 6688               	.LBE73:
 6689               	.LM663:
 6690 15c6 9F99      		sbic 51-0x20,7
 6691 15c8 13C0      		rjmp .L458
 6692               	.LM664:
 6693 15ca 8091 0000 		lds r24,RunParameter+20
 6694 15ce 8F5F      		subi r24,lo8(-(1))
 6695 15d0 8093 0000 		sts RunParameter+20,r24
 6696               	.LM665:
 6697 15d4 8930      		cpi r24,lo8(9)
 6698 15d6 18F0      		brlo .L457
 6699               	.LM666:
 6700 15d8 81E0      		ldi r24,lo8(1)
 6701 15da 8093 0000 		sts RunParameter+20,r24
 6702               	.L457:
 6703               	.LM667:
 6704 15de 8AE1      		ldi r24,lo8(26)
 6705 15e0 8093 0000 		sts RunParameter+21,r24
 6706               	.LM668:
 6707 15e4 1092 0000 		sts (KEY_Time_count_speed_color)+1,__zero_reg__
 6708 15e8 1092 0000 		sts KEY_Time_count_speed_color,__zero_reg__
 6709               	.LM669:
 6710 15ec 0E94 0000 		call FreshDisplayBufferAjustSpeed
 6711               	.L458:
 6712               	.LM670:
 6713 15f0 9F9B      		sbis 51-0x20,7
 6714 15f2 FECF      		rjmp .L458
 6715 15f4 9CC0      		rjmp .L461
 6716               	.L429:
 6717               	.LM671:
 6718 15f6 8130      		cpi r24,lo8(1)
 6719 15f8 49F4      		brne .L462
 6720               	.LM672:
 6721 15fa 00E0      		ldi r16,lo8(pm(FreshDisplayBufferAjustYear))
 6722 15fc 10E0      		ldi r17,hi8(pm(FreshDisplayBufferAjustYear))
 6723 15fe 20E0      		ldi r18,lo8(RunParameter+3)
 6724 1600 30E0      		ldi r19,hi8(RunParameter+3)
 6725 1602 40E0      		ldi r20,lo8(RunParameter+2)
 6726 1604 50E0      		ldi r21,hi8(RunParameter+2)
 6727 1606 60E0      		ldi r22,lo8(0)
 6728 1608 83E6      		ldi r24,lo8(99)
 6729 160a 52C0      		rjmp .L537
 6730               	.L462:
 6731               	.LM673:
 6732 160c 8230      		cpi r24,lo8(2)
 6733 160e 49F4      		brne .L464
 6734               	.LM674:
 6735 1610 00E0      		ldi r16,lo8(pm(FreshDisplayBufferAjustMonth))
 6736 1612 10E0      		ldi r17,hi8(pm(FreshDisplayBufferAjustMonth))
 6737 1614 20E0      		ldi r18,lo8(RunParameter+5)
 6738 1616 30E0      		ldi r19,hi8(RunParameter+5)
 6739 1618 40E0      		ldi r20,lo8(RunParameter+4)
 6740 161a 50E0      		ldi r21,hi8(RunParameter+4)
 6741 161c 61E0      		ldi r22,lo8(1)
 6742 161e 8CE0      		ldi r24,lo8(12)
 6743 1620 47C0      		rjmp .L537
 6744               	.L464:
 6745               	.LM675:
 6746 1622 8330      		cpi r24,lo8(3)
 6747 1624 49F4      		brne .L466
 6748               	.LM676:
 6749 1626 00E0      		ldi r16,lo8(pm(FreshDisplayBufferAjustDay))
 6750 1628 10E0      		ldi r17,hi8(pm(FreshDisplayBufferAjustDay))
 6751 162a 20E0      		ldi r18,lo8(RunParameter+7)
 6752 162c 30E0      		ldi r19,hi8(RunParameter+7)
 6753 162e 40E0      		ldi r20,lo8(RunParameter+6)
 6754 1630 50E0      		ldi r21,hi8(RunParameter+6)
 6755 1632 61E0      		ldi r22,lo8(1)
 6756 1634 8FE1      		ldi r24,lo8(31)
 6757 1636 3CC0      		rjmp .L537
 6758               	.L466:
 6759               	.LM677:
 6760 1638 8430      		cpi r24,lo8(4)
 6761 163a 49F4      		brne .L468
 6762               	.LM678:
 6763 163c 00E0      		ldi r16,lo8(pm(FreshDisplayBufferAjustHour))
 6764 163e 10E0      		ldi r17,hi8(pm(FreshDisplayBufferAjustHour))
 6765 1640 20E0      		ldi r18,lo8(RunParameter+9)
 6766 1642 30E0      		ldi r19,hi8(RunParameter+9)
 6767 1644 40E0      		ldi r20,lo8(RunParameter+8)
 6768 1646 50E0      		ldi r21,hi8(RunParameter+8)
 6769 1648 60E0      		ldi r22,lo8(0)
 6770 164a 87E1      		ldi r24,lo8(23)
 6771 164c 31C0      		rjmp .L537
 6772               	.L468:
 6773               	.LM679:
 6774 164e 8530      		cpi r24,lo8(5)
 6775 1650 49F4      		brne .L470
 6776               	.LM680:
 6777 1652 00E0      		ldi r16,lo8(pm(FreshDisplayBufferAjustMinute))
 6778 1654 10E0      		ldi r17,hi8(pm(FreshDisplayBufferAjustMinute))
 6779 1656 20E0      		ldi r18,lo8(RunParameter+11)
 6780 1658 30E0      		ldi r19,hi8(RunParameter+11)
 6781 165a 40E0      		ldi r20,lo8(RunParameter+10)
 6782 165c 50E0      		ldi r21,hi8(RunParameter+10)
 6783 165e 60E0      		ldi r22,lo8(0)
 6784 1660 8BE3      		ldi r24,lo8(59)
 6785 1662 26C0      		rjmp .L537
 6786               	.L470:
 6787               	.LM681:
 6788 1664 8630      		cpi r24,lo8(6)
 6789 1666 59F4      		brne .L472
 6790               	.LBB77:
 6791               	.LM682:
 6792 1668 1982      		std Y+1,__zero_reg__
 6793               	.LM683:
 6794 166a 00E0      		ldi r16,lo8(pm(FreshDisplayBufferAjustWeek))
 6795 166c 10E0      		ldi r17,hi8(pm(FreshDisplayBufferAjustWeek))
 6796 166e 20E0      		ldi r18,lo8(RunParameter+14)
 6797 1670 30E0      		ldi r19,hi8(RunParameter+14)
 6798 1672 AE01      		movw r20,r28
 6799 1674 4F5F      		subi r20,lo8(-(1))
 6800 1676 5F4F      		sbci r21,hi8(-(1))
 6801 1678 61E0      		ldi r22,lo8(1)
 6802 167a 87E0      		ldi r24,lo8(7)
 6803 167c 19C0      		rjmp .L537
 6804               	.L472:
 6805               	.LBE77:
 6806               	.LM684:
 6807 167e 8730      		cpi r24,lo8(7)
 6808 1680 59F4      		brne .L474
 6809               	.LBB78:
 6810               	.LM685:
 6811 1682 1A82      		std Y+2,__zero_reg__
 6812               	.LM686:
 6813 1684 00E0      		ldi r16,lo8(pm(FreshDisplayBufferAjustLightMode))
 6814 1686 10E0      		ldi r17,hi8(pm(FreshDisplayBufferAjustLightMode))
 6815 1688 20E0      		ldi r18,lo8(RunParameter+18)
 6816 168a 30E0      		ldi r19,hi8(RunParameter+18)
 6817 168c AE01      		movw r20,r28
 6818 168e 4E5F      		subi r20,lo8(-(2))
 6819 1690 5F4F      		sbci r21,hi8(-(2))
 6820 1692 6A81      		ldd r22,Y+2
 6821 1694 81E0      		ldi r24,lo8(1)
 6822 1696 0CC0      		rjmp .L537
 6823               	.L474:
 6824               	.LBE78:
 6825               	.LM687:
 6826 1698 8830      		cpi r24,lo8(8)
 6827 169a 69F4      		brne .L476
 6828               	.LBB79:
 6829               	.LM688:
 6830 169c 1B82      		std Y+3,__zero_reg__
 6831               	.LM689:
 6832 169e 00E0      		ldi r16,lo8(pm(FreshDisplayBufferChangeFont))
 6833 16a0 10E0      		ldi r17,hi8(pm(FreshDisplayBufferChangeFont))
 6834 16a2 20E0      		ldi r18,lo8(RunParameter+27)
 6835 16a4 30E0      		ldi r19,hi8(RunParameter+27)
 6836 16a6 AE01      		movw r20,r28
 6837 16a8 4D5F      		subi r20,lo8(-(3))
 6838 16aa 5F4F      		sbci r21,hi8(-(3))
 6839 16ac 6B81      		ldd r22,Y+3
 6840 16ae 82E0      		ldi r24,lo8(2)
 6841               	.L537:
 6842 16b0 0E94 0000 		call Key_Operation
 6843               	.LBE79:
 6844 16b4 3CC0      		rjmp .L461
 6845               	.L476:
 6846               	.LM690:
 6847 16b6 8930      		cpi r24,lo8(9)
 6848 16b8 D1F5      		brne .L461
 6849               	.LM691:
 6850 16ba 9E99      		sbic 51-0x20,6
 6851 16bc 22C0      		rjmp .L479
 6852               	.LBB80:
 6853               	.LBB81:
 6854               	.LM692:
 6855 16be 80E2      		ldi r24,lo8(20000)
 6856 16c0 9EE4      		ldi r25,hi8(20000)
 6857               	.LBB82:
 6858               	.LBB83:
 6859               	.LM693:
 6860               	/* #APP */
 6861 16c2 0197      		1: sbiw r24,1
 6862 16c4 F1F7      		brne 1b
 6863               	/* #NOAPP */
 6864               	.LBE83:
 6865               	.LBE82:
 6866               	.LBE81:
 6867               	.LBE80:
 6868               	.LM694:
 6869 16c6 9E99      		sbic 51-0x20,6
 6870 16c8 1AC0      		rjmp .L490
 6871               	.LBB84:
 6872               	.LM695:
 6873 16ca 8091 0000 		lds r24,RunParameter+23
 6874 16ce 3AE0      		ldi r19,lo8(10)
 6875 16d0 839F      		mul r24,r19
 6876 16d2 C001      		movw r24,r0
 6877 16d4 1124      		clr r1
 6878 16d6 2091 0000 		lds r18,RunParameter+24
 6879 16da 280F      		add r18,r24
 6880               	.LM696:
 6881 16dc 2F5F      		subi r18,lo8(-(1))
 6882               	.LM697:
 6883 16de 2531      		cpi r18,lo8(21)
 6884 16e0 08F0      		brlo .L489
 6885               	.LM698:
 6886 16e2 20E0      		ldi r18,lo8(0)
 6887               	.L489:
 6888               	.LM699:
 6889 16e4 822F      		mov r24,r18
 6890 16e6 632F      		mov r22,r19
 6891 16e8 0E94 0000 		call __udivmodqi4
 6892 16ec 8093 0000 		sts RunParameter+23,r24
 6893               	.LM700:
 6894 16f0 822F      		mov r24,r18
 6895 16f2 0E94 0000 		call __udivmodqi4
 6896 16f6 9093 0000 		sts RunParameter+24,r25
 6897               	.LM701:
 6898 16fa 0E94 0000 		call FreshDisplayBufferAjustProofTime
 6899               	.L490:
 6900               	.LBE84:
 6901               	.LM702:
 6902 16fe 9E9B      		sbis 51-0x20,6
 6903 1700 FECF      		rjmp .L490
 6904               	.L479:
 6905               	.LM703:
 6906 1702 9F99      		sbic 51-0x20,7
 6907 1704 14C0      		rjmp .L461
 6908               	.LBB85:
 6909               	.LBB86:
 6910               	.LM704:
 6911 1706 80E2      		ldi r24,lo8(20000)
 6912 1708 9EE4      		ldi r25,hi8(20000)
 6913               	.LBB87:
 6914               	.LBB88:
 6915               	.LM705:
 6916               	/* #APP */
 6917 170a 0197      		1: sbiw r24,1
 6918 170c F1F7      		brne 1b
 6919               	/* #NOAPP */
 6920               	.LBE88:
 6921               	.LBE87:
 6922               	.LBE86:
 6923               	.LBE85:
 6924               	.LM706:
 6925 170e 9F99      		sbic 51-0x20,7
 6926 1710 0CC0      		rjmp .L505
 6927               	.LM707:
 6928 1712 8091 0000 		lds r24,RunParameter+22
 6929 1716 8823      		tst r24
 6930 1718 19F0      		breq .L503
 6931               	.LM708:
 6932 171a 1092 0000 		sts RunParameter+22,__zero_reg__
 6933 171e 03C0      		rjmp .L504
 6934               	.L503:
 6935               	.LM709:
 6936 1720 81E0      		ldi r24,lo8(1)
 6937 1722 8093 0000 		sts RunParameter+22,r24
 6938               	.L504:
 6939               	.LM710:
 6940 1726 0E94 0000 		call FreshDisplayBufferAjustProofTime
 6941               	.L505:
 6942               	.LM711:
 6943 172a 9F9B      		sbis 51-0x20,7
 6944 172c FECF      		rjmp .L505
 6945               	.L461:
 6946               	.LM712:
 6947 172e 8099      		sbic 48-0x20,0
 6948 1730 67C0      		rjmp .L411
 6949               	.LBB89:
 6950               	.LBB90:
 6951               	.LM713:
 6952 1732 80E2      		ldi r24,lo8(20000)
 6953 1734 9EE4      		ldi r25,hi8(20000)
 6954               	.LBB91:
 6955               	.LBB92:
 6956               	.LM714:
 6957               	/* #APP */
 6958 1736 0197      		1: sbiw r24,1
 6959 1738 F1F7      		brne 1b
 6960               	/* #NOAPP */
 6961               	.LBE92:
 6962               	.LBE91:
 6963               	.LBE90:
 6964               	.LBE89:
 6965               	.LM715:
 6966 173a 80B3      		in r24,48-0x20
 6967 173c 9927      		clr r25
 6968 173e 9C01      		movw r18,r24
 6969 1740 2170      		andi r18,lo8(1)
 6970 1742 3070      		andi r19,hi8(1)
 6971 1744 80FD      		sbrc r24,0
 6972 1746 5AC0      		rjmp .L534
 6973               	.LM716:
 6974 1748 3093 0000 		sts (KEY_Time_count)+1,r19
 6975 174c 2093 0000 		sts KEY_Time_count,r18
 6976               	.LM717:
 6977 1750 8091 0000 		lds r24,RunParameter+21
 6978 1754 8F5F      		subi r24,lo8(-(1))
 6979 1756 8093 0000 		sts RunParameter+21,r24
 6980               	.LM718:
 6981 175a 8A30      		cpi r24,lo8(10)
 6982 175c 10F0      		brlo .L518
 6983               	.LM719:
 6984 175e 1092 0000 		sts RunParameter+21,__zero_reg__
 6985               	.L518:
 6986               	.LM720:
 6987 1762 8091 0000 		lds r24,RunParameter+21
 6988 1766 9927      		clr r25
 6989 1768 8430      		cpi r24,4
 6990 176a 9105      		cpc r25,__zero_reg__
 6991 176c B1F1      		breq .L524
 6992 176e 8530      		cpi r24,5
 6993 1770 9105      		cpc r25,__zero_reg__
 6994 1772 7CF4      		brge .L531
 6995 1774 8130      		cpi r24,1
 6996 1776 9105      		cpc r25,__zero_reg__
 6997 1778 39F1      		breq .L521
 6998 177a 8230      		cpi r24,2
 6999 177c 9105      		cpc r25,__zero_reg__
 7000 177e 1CF4      		brge .L532
 7001 1780 892B      		or r24,r25
 7002 1782 C9F0      		breq .L520
 7003 1784 3BC0      		rjmp .L534
 7004               	.L532:
 7005 1786 8230      		cpi r24,2
 7006 1788 9105      		cpc r25,__zero_reg__
 7007 178a 09F1      		breq .L522
 7008 178c 0397      		sbiw r24,3
 7009 178e 11F1      		breq .L523
 7010 1790 35C0      		rjmp .L534
 7011               	.L531:
 7012 1792 8730      		cpi r24,7
 7013 1794 9105      		cpc r25,__zero_reg__
 7014 1796 51F1      		breq .L527
 7015 1798 8830      		cpi r24,8
 7016 179a 9105      		cpc r25,__zero_reg__
 7017 179c 34F4      		brge .L533
 7018 179e 8530      		cpi r24,5
 7019 17a0 9105      		cpc r25,__zero_reg__
 7020 17a2 F1F0      		breq .L525
 7021 17a4 0697      		sbiw r24,6
 7022 17a6 F9F0      		breq .L526
 7023 17a8 29C0      		rjmp .L534
 7024               	.L533:
 7025 17aa 8830      		cpi r24,8
 7026 17ac 9105      		cpc r25,__zero_reg__
 7027 17ae 09F1      		breq .L528
 7028 17b0 0997      		sbiw r24,9
 7029 17b2 11F1      		breq .L529
 7030 17b4 23C0      		rjmp .L534
 7031               	.L520:
 7032               	.LM721:
 7033 17b6 0E94 0000 		call Write_time
 7034               	.LM722:
 7035 17ba 0E94 0000 		call SaveRunParameter
 7036               	.LM723:
 7037 17be 0E94 0000 		call clearScreen
 7038               	.LM724:
 7039 17c2 0E94 0000 		call FreshDisplayBufferNormal
 7040               	.LM725:
 7041 17c6 1AC0      		rjmp .L534
 7042               	.L521:
 7043               	.LM726:
 7044 17c8 0E94 0000 		call FreshDisplayBufferAjustYear
 7045               	.LM727:
 7046 17cc 17C0      		rjmp .L534
 7047               	.L522:
 7048               	.LM728:
 7049 17ce 0E94 0000 		call FreshDisplayBufferAjustMonth
 7050               	.LM729:
 7051 17d2 14C0      		rjmp .L534
 7052               	.L523:
 7053               	.LM730:
 7054 17d4 0E94 0000 		call FreshDisplayBufferAjustDay
 7055               	.LM731:
 7056 17d8 11C0      		rjmp .L534
 7057               	.L524:
 7058               	.LM732:
 7059 17da 0E94 0000 		call FreshDisplayBufferAjustHour
 7060               	.LM733:
 7061 17de 0EC0      		rjmp .L534
 7062               	.L525:
 7063               	.LM734:
 7064 17e0 0E94 0000 		call FreshDisplayBufferAjustMinute
 7065               	.LM735:
 7066 17e4 0BC0      		rjmp .L534
 7067               	.L526:
 7068               	.LM736:
 7069 17e6 0E94 0000 		call FreshDisplayBufferAjustWeek
 7070               	.LM737:
 7071 17ea 08C0      		rjmp .L534
 7072               	.L527:
 7073               	.LM738:
 7074 17ec 0E94 0000 		call FreshDisplayBufferAjustLightMode
 7075               	.LM739:
 7076 17f0 05C0      		rjmp .L534
 7077               	.L528:
 7078               	.LM740:
 7079 17f2 0E94 0000 		call FreshDisplayBufferChangeFont
 7080               	.LM741:
 7081 17f6 02C0      		rjmp .L534
 7082               	.L529:
 7083               	.LM742:
 7084 17f8 0E94 0000 		call FreshDisplayBufferAjustProofTime
 7085               	.L534:
 7086               	.LM743:
 7087 17fc 809B      		sbis 48-0x20,0
 7088 17fe FECF      		rjmp .L534
 7089               	.L411:
 7090               	/* epilogue: frame size=3 */
 7091 1800 2396      		adiw r28,3
 7092 1802 0FB6      		in __tmp_reg__,__SREG__
 7093 1804 F894      		cli
 7094 1806 DEBF      		out __SP_H__,r29
 7095 1808 0FBE      		out __SREG__,__tmp_reg__
 7096 180a CDBF      		out __SP_L__,r28
 7097 180c DF91      		pop r29
 7098 180e CF91      		pop r28
 7099 1810 1F91      		pop r17
 7100 1812 0F91      		pop r16
 7101 1814 0895      		ret
 7102               	/* epilogue end (size=11) */
 7103               	/* function Scan_Key size 445 (422) */
 7104               	.LFE59:
 7106               	.global	StartAD
 7108               	StartAD:
 7109               	.LFB60:
 7110               	.LM744:
 7111               	/* prologue: frame size=0 */
 7112               	/* prologue end (size=0) */
 7113               	.LM745:
 7114 1816 16B8      		out 38-0x20,__zero_reg__
 7115               	.LM746:
 7116 1818 80E4      		ldi r24,lo8(64)
 7117 181a 87B9      		out 39-0x20,r24
 7118               	.LM747:
 7119 181c 87ED      		ldi r24,lo8(-41)
 7120 181e 86B9      		out 38-0x20,r24
 7121               	/* epilogue: frame size=0 */
 7122 1820 0895      		ret
 7123               	/* epilogue end (size=1) */
 7124               	/* function StartAD size 6 (5) */
 7125               	.LFE60:
 7127               	.global	GetDispalyLight
 7129               	GetDispalyLight:
 7130               	.LFB61:
 7131               	.LM748:
 7132               	/* prologue: frame size=0 */
 7133               	/* prologue end (size=0) */
 7134               	.LM749:
 7135 1822 84B1      		in r24,36-0x20
 7136 1824 282F      		mov r18,r24
 7137 1826 3327      		clr r19
 7138               	.LM750:
 7139 1828 85B1      		in r24,37-0x20
 7140 182a 9927      		clr r25
 7141               	.LM751:
 7142 182c 982F      		mov r25,r24
 7143 182e 8827      		clr r24
 7144 1830 822B      		or r24,r18
 7145 1832 932B      		or r25,r19
 7146               	.LM752:
 7147 1834 9695      		lsr r25
 7148 1836 8795      		ror r24
 7149               	.LM753:
 7150 1838 8397      		sbiw r24,35
 7151 183a 6CE3      		ldi r22,lo8(60)
 7152 183c 70E0      		ldi r23,hi8(60)
 7153 183e 0E94 0000 		call __udivmodhi4
 7154 1842 CB01      		movw r24,r22
 7155               	.LM754:
 7156 1844 98E0      		ldi r25,lo8(8)
 7157 1846 292F      		mov r18,r25
 7158 1848 281B      		sub r18,r24
 7159 184a 2093 0000 		sts RunParameter+19,r18
 7160               	.LM755:
 7161 184e 9217      		cp r25,r18
 7162 1850 18F4      		brsh .L540
 7163               	.LM756:
 7164 1852 9093 0000 		sts RunParameter+19,r25
 7165 1856 05C0      		rjmp .L541
 7166               	.L540:
 7167               	.LM757:
 7168 1858 2223      		tst r18
 7169 185a 19F4      		brne .L541
 7170               	.LM758:
 7171 185c 81E0      		ldi r24,lo8(1)
 7172 185e 8093 0000 		sts RunParameter+19,r24
 7173               	.L541:
 7174               	.LM759:
 7175 1862 9091 0000 		lds r25,RunParameter+19
 7176 1866 89E1      		ldi r24,lo8(25)
 7177 1868 989F      		mul r25,r24
 7178 186a C001      		movw r24,r0
 7179 186c 1124      		clr r1
 7180 186e 8851      		subi r24,lo8(-(-24))
 7181 1870 8CBF      		out 92-0x20,r24
 7182               	/* epilogue: frame size=0 */
 7183 1872 0895      		ret
 7184               	/* epilogue end (size=1) */
 7185               	/* function GetDispalyLight size 41 (40) */
 7186               	.LFE61:
 7188               	.global	timer0_init
 7190               	timer0_init:
 7191               	.LFB62:
 7192               	.LM760:
 7193               	/* prologue: frame size=0 */
 7194               	/* prologue end (size=0) */
 7195               	.LM761:
 7196 1874 13BE      		out 83-0x20,__zero_reg__
 7197               	.LM762:
 7198 1876 12BE      		out 82-0x20,__zero_reg__
 7199               	.LM763:
 7200 1878 89E7      		ldi r24,lo8(121)
 7201 187a 83BF      		out 83-0x20,r24
 7202               	.LM764:
 7203 187c 8091 0000 		lds r24,RunParameter+18
 7204 1880 8930      		cpi r24,lo8(9)
 7205 1882 40F4      		brsh .L544
 7206               	.LM765:
 7207 1884 9091 0000 		lds r25,RunParameter+19
 7208 1888 89E1      		ldi r24,lo8(25)
 7209 188a 989F      		mul r25,r24
 7210 188c C001      		movw r24,r0
 7211 188e 1124      		clr r1
 7212 1890 8851      		subi r24,lo8(-(-24))
 7213 1892 01C0      		rjmp .L546
 7214               	.L544:
 7215               	.LM766:
 7216 1894 84E6      		ldi r24,lo8(100)
 7217               	.L546:
 7218 1896 8CBF      		out 92-0x20,r24
 7219 1898 0895      		ret
 7220               	/* epilogue: frame size=0 */
 7221               	/* epilogue: noreturn */
 7222               	/* epilogue end (size=0) */
 7223               	/* function timer0_init size 19 (19) */
 7224               	.LFE62:
 7226               	.global	timer2_init
 7228               	timer2_init:
 7229               	.LFB63:
 7230               	.LM767:
 7231               	/* prologue: frame size=0 */
 7232               	/* prologue end (size=0) */
 7233               	.LM768:
 7234 189a 85E0      		ldi r24,lo8(5)
 7235 189c 85BD      		out 69-0x20,r24
 7236               	.LM769:
 7237 189e 89B7      		in r24,89-0x20
 7238 18a0 8064      		ori r24,lo8(64)
 7239 18a2 89BF      		out 89-0x20,r24
 7240               	/* epilogue: frame size=0 */
 7241 18a4 0895      		ret
 7242               	/* epilogue end (size=1) */
 7243               	/* function timer2_init size 6 (5) */
 7244               	.LFE63:
 7246               	.global	__vector_4
 7248               	__vector_4:
 7249               	.LFB64:
 7250               	.LM770:
 7251               	/* prologue: frame size=0 */
 7252 18a6 1F92      		push __zero_reg__
 7253 18a8 0F92      		push __tmp_reg__
 7254 18aa 0FB6      		in __tmp_reg__,__SREG__
 7255 18ac 0F92      		push __tmp_reg__
 7256 18ae 1124      		clr __zero_reg__
 7257 18b0 2F93      		push r18
 7258 18b2 3F93      		push r19
 7259 18b4 4F93      		push r20
 7260 18b6 5F93      		push r21
 7261 18b8 6F93      		push r22
 7262 18ba 7F93      		push r23
 7263 18bc 8F93      		push r24
 7264 18be 9F93      		push r25
 7265 18c0 AF93      		push r26
 7266 18c2 BF93      		push r27
 7267 18c4 EF93      		push r30
 7268 18c6 FF93      		push r31
 7269               	/* prologue end (size=17) */
 7270               	.LM771:
 7271 18c8 8091 0000 		lds r24,RunParameter+21
 7272 18cc 8823      		tst r24
 7273 18ce D1F5      		brne .L549
 7274               	.LM772:
 7275 18d0 8091 0000 		lds r24,ReadDS18B20Count
 7276 18d4 9091 0000 		lds r25,(ReadDS18B20Count)+1
 7277 18d8 0196      		adiw r24,1
 7278 18da 9093 0000 		sts (ReadDS18B20Count)+1,r25
 7279 18de 8093 0000 		sts ReadDS18B20Count,r24
 7280               	.LM773:
 7281 18e2 8253      		subi r24,lo8(-14286)
 7282 18e4 984C      		sbci r25,hi8(-14286)
 7283 18e6 11F4      		brne .L550
 7284               	.LM774:
 7285 18e8 0E94 0000 		call ds1820_start
 7286               	.L550:
 7287               	.LM775:
 7288 18ec 8091 0000 		lds r24,ReadDS18B20Count
 7289 18f0 9091 0000 		lds r25,(ReadDS18B20Count)+1
 7290 18f4 8156      		subi r24,lo8(-5535)
 7291 18f6 9A4E      		sbci r25,hi8(-5535)
 7292 18f8 30F0      		brlo .L551
 7293               	.LM776:
 7294 18fa 0E94 0000 		call ReadTemputer
 7295               	.LM777:
 7296 18fe 1092 0000 		sts (ReadDS18B20Count)+1,__zero_reg__
 7297 1902 1092 0000 		sts ReadDS18B20Count,__zero_reg__
 7298               	.L551:
 7299               	.LM778:
 7300 1906 8091 0000 		lds r24,RunParameter+18
 7301 190a 8823      		tst r24
 7302 190c D9F4      		brne .L549
 7303               	.LM779:
 7304 190e 8091 0000 		lds r24,AD_time_count
 7305 1912 9091 0000 		lds r25,(AD_time_count)+1
 7306 1916 0196      		adiw r24,1
 7307 1918 9093 0000 		sts (AD_time_count)+1,r25
 7308 191c 8093 0000 		sts AD_time_count,r24
 7309               	.LM780:
 7310 1920 8436      		cpi r24,100
 7311 1922 9105      		cpc r25,__zero_reg__
 7312 1924 11F4      		brne .L553
 7313               	.LM781:
 7314 1926 0E94 0000 		call StartAD
 7315               	.L553:
 7316               	.LM782:
 7317 192a 8091 0000 		lds r24,AD_time_count
 7318 192e 9091 0000 		lds r25,(AD_time_count)+1
 7319 1932 893C      		cpi r24,201
 7320 1934 9105      		cpc r25,__zero_reg__
 7321 1936 30F0      		brlo .L549
 7322               	.LM783:
 7323 1938 0E94 0000 		call GetDispalyLight
 7324               	.LM784:
 7325 193c 1092 0000 		sts (AD_time_count)+1,__zero_reg__
 7326 1940 1092 0000 		sts AD_time_count,__zero_reg__
 7327               	.L549:
 7328               	.LM785:
 7329 1944 8091 0000 		lds r24,KEY_Time_count
 7330 1948 9091 0000 		lds r25,(KEY_Time_count)+1
 7331 194c 0196      		adiw r24,1
 7332 194e 9093 0000 		sts (KEY_Time_count)+1,r25
 7333 1952 8093 0000 		sts KEY_Time_count,r24
 7334               	.LM786:
 7335 1956 8091 0000 		lds r24,KEY_Time_count_speed_color
 7336 195a 9091 0000 		lds r25,(KEY_Time_count_speed_color)+1
 7337 195e 0196      		adiw r24,1
 7338 1960 9093 0000 		sts (KEY_Time_count_speed_color)+1,r25
 7339 1964 8093 0000 		sts KEY_Time_count_speed_color,r24
 7340               	.LM787:
 7341 1968 14BC      		out 68-0x20,__zero_reg__
 7342               	/* epilogue: frame size=0 */
 7343 196a FF91      		pop r31
 7344 196c EF91      		pop r30
 7345 196e BF91      		pop r27
 7346 1970 AF91      		pop r26
 7347 1972 9F91      		pop r25
 7348 1974 8F91      		pop r24
 7349 1976 7F91      		pop r23
 7350 1978 6F91      		pop r22
 7351 197a 5F91      		pop r21
 7352 197c 4F91      		pop r20
 7353 197e 3F91      		pop r19
 7354 1980 2F91      		pop r18
 7355 1982 0F90      		pop __tmp_reg__
 7356 1984 0FBE      		out __SREG__,__tmp_reg__
 7357 1986 0F90      		pop __tmp_reg__
 7358 1988 1F90      		pop __zero_reg__
 7359 198a 1895      		reti
 7360               	/* epilogue end (size=17) */
 7361               	/* function __vector_4 size 117 (83) */
 7362               	.LFE64:
 7364               	.global	init_devices
 7366               	init_devices:
 7367               	.LFB65:
 7368               	.LM788:
 7369               	/* prologue: frame size=0 */
 7370               	/* prologue end (size=0) */
 7371               	.LM789:
 7372               	/* #APP */
 7373 198c F894      		cli
 7374               	.LM790:
 7375               	/* #NOAPP */
 7376 198e 15BE      		out 85-0x20,__zero_reg__
 7377               	.LM791:
 7378 1990 1BBE      		out 91-0x20,__zero_reg__
 7379               	.LM792:
 7380 1992 0E94 0000 		call LED_SCREEN_INI
 7381               	.LM793:
 7382 1996 0E94 0000 		call Key_Init
 7383               	.LM794:
 7384 199a 0E94 0000 		call timer0_init
 7385               	.LM795:
 7386 199e 0E94 0000 		call timer2_init
 7387               	.LM796:
 7388 19a2 0E94 0000 		call PCF8563_init
 7389               	.LM797:
 7390 19a6 1092 0000 		sts (ReadDS18B20Count)+1,__zero_reg__
 7391 19aa 1092 0000 		sts ReadDS18B20Count,__zero_reg__
 7392               	.LM798:
 7393 19ae 1092 0000 		sts (AD_time_count)+1,__zero_reg__
 7394 19b2 1092 0000 		sts AD_time_count,__zero_reg__
 7395               	.LM799:
 7396 19b6 1092 0000 		sts (KEY_Time_count)+1,__zero_reg__
 7397 19ba 1092 0000 		sts KEY_Time_count,__zero_reg__
 7398               	.LM800:
 7399 19be 0E94 0000 		call ds1820_reset
 7400               	.LM801:
 7401 19c2 0E94 0000 		call clearScreen
 7402               	.LM802:
 7403               	/* #APP */
 7404 19c6 7894      		sei
 7405               	/* #NOAPP */
 7406               	/* epilogue: frame size=0 */
 7407 19c8 0895      		ret
 7408               	/* epilogue end (size=1) */
 7409               	/* function init_devices size 33 (32) */
 7410               	.LFE65:
 7412               	.global	main
 7414               	main:
 7415               	.LFB66:
 7416               	.LM803:
 7417               	/* prologue: frame size=0 */
 7418 19ca C0E0      		ldi r28,lo8(__stack - 0)
 7419 19cc D0E0      		ldi r29,hi8(__stack - 0)
 7420 19ce DEBF      		out __SP_H__,r29
 7421 19d0 CDBF      		out __SP_L__,r28
 7422               	/* prologue end (size=4) */
 7423               	.LM804:
 7424 19d2 0E94 0000 		call init_devices
 7425               	.LM805:
 7426 19d6 0E94 0000 		call ds1820_start
 7427               	.LM806:
 7428 19da 86E0      		ldi r24,lo8(6)
 7429 19dc 90E0      		ldi r25,hi8(6)
 7430 19de 0E94 0000 		call _delay_100ms
 7431               	.LM807:
 7432 19e2 0E94 0000 		call ReadTemputer
 7433               	.LM808:
 7434 19e6 8099      		sbic 48-0x20,0
 7435 19e8 1CC0      		rjmp .L557
 7436               	.LBB93:
 7437               	.LBB94:
 7438               	.LM809:
 7439 19ea 80E2      		ldi r24,lo8(20000)
 7440 19ec 9EE4      		ldi r25,hi8(20000)
 7441               	.LBB95:
 7442               	.LBB96:
 7443               	.LM810:
 7444               	/* #APP */
 7445 19ee 0197      		1: sbiw r24,1
 7446 19f0 F1F7      		brne 1b
 7447               	/* #NOAPP */
 7448               	.LBE96:
 7449               	.LBE95:
 7450               	.LBE94:
 7451               	.LBE93:
 7452               	.LM811:
 7453 19f2 8099      		sbic 48-0x20,0
 7454 19f4 16C0      		rjmp .L557
 7455               	.LM812:
 7456 19f6 81E0      		ldi r24,lo8(1)
 7457 19f8 8093 0000 		sts RunParameter+18,r24
 7458               	.LM813:
 7459 19fc 8093 0000 		sts RunParameter+19,r24
 7460               	.LM814:
 7461 1a00 8093 0000 		sts RunParameter+20,r24
 7462               	.LM815:
 7463 1a04 1092 0000 		sts RunParameter+21,__zero_reg__
 7464               	.LM816:
 7465 1a08 1092 0000 		sts RunParameter+22,__zero_reg__
 7466               	.LM817:
 7467 1a0c 1092 0000 		sts RunParameter+23,__zero_reg__
 7468               	.LM818:
 7469 1a10 1092 0000 		sts RunParameter+24,__zero_reg__
 7470               	.LM819:
 7471 1a14 1092 0000 		sts RunParameter+26,__zero_reg__
 7472               	.LM820:
 7473 1a18 1092 0000 		sts RunParameter+27,__zero_reg__
 7474               	.LM821:
 7475 1a1c 8CBF      		out 92-0x20,r24
 7476               	.LM822:
 7477 1a1e 0E94 0000 		call SaveRunParameter
 7478               	.L557:
 7479               	.LM823:
 7480 1a22 0E94 0000 		call ReadRunParameter
 7481               	.LM824:
 7482 1a26 0E94 0000 		call Show_welcome
 7483               	.LM825:
 7484 1a2a 0E94 0000 		call Updata_time
 7485               	.LM826:
 7486 1a2e 0E94 0000 		call FreshDisplayBufferNormal
 7487               	.L567:
 7488               	.LM827:
 7489 1a32 8091 0000 		lds r24,RunParameter+21
 7490 1a36 8823      		tst r24
 7491 1a38 B1F4      		brne .L569
 7492               	.LM828:
 7493 1a3a 0E94 0000 		call Updata_time
 7494               	.LM829:
 7495 1a3e 8091 0000 		lds r24,FreshDisplayBufferCount
 7496 1a42 9091 0000 		lds r25,(FreshDisplayBufferCount)+1
 7497 1a46 0196      		adiw r24,1
 7498 1a48 9093 0000 		sts (FreshDisplayBufferCount)+1,r25
 7499 1a4c 8093 0000 		sts FreshDisplayBufferCount,r24
 7500               	.LM830:
 7501 1a50 8151      		subi r24,lo8(10001)
 7502 1a52 9742      		sbci r25,hi8(10001)
 7503 1a54 40F0      		brlo .L569
 7504               	.LM831:
 7505 1a56 0E94 0000 		call AjustTimerMonthly
 7506               	.LM832:
 7507 1a5a 0E94 0000 		call FreshDisplayBufferNormal
 7508               	.LM833:
 7509 1a5e 1092 0000 		sts (FreshDisplayBufferCount)+1,__zero_reg__
 7510 1a62 1092 0000 		sts FreshDisplayBufferCount,__zero_reg__
 7511               	.L569:
 7512               	.LM834:
 7513 1a66 0E94 0000 		call display
 7514               	.LM835:
 7515 1a6a 0E94 0000 		call Scan_Key
 7516 1a6e E1CF      		rjmp .L567
 7517               	/* epilogue: frame size=0 */
 7518               	/* epilogue: noreturn */
 7519               	/* epilogue end (size=0) */
 7520               	/* function main size 86 (82) */
 7521               	.LFE66:
 7523               		.comm ReadDS18B20Count,2,1
 7524               		.comm init_f,1,1
 7525               		.comm display_cnt,1,1
 7526               		.comm display_buffer,496,1
 7527               		.comm display_buffer_temp,8,1
 7528               		.comm halfSecondCount,2,1
 7529               		.comm isSecondCountShow,1,1
 7530               		.comm currentMoveLeft,1,1
 7531               		.comm moveSpeedTimerCount,2,1
 7532               		.comm FreshDisplayBufferCount,2,1
 7533               		.comm syserr,1,1
 7534               		.comm write_buff,8,1
 7535               		.comm read_buff,8,1
 7536               		.comm KEY_Time_count,2,1
 7537               		.comm KEY_Time_count_speed_color,2,1
 7538               		.comm AD_time_count,2,1
 7539               	.Letext0:
DEFINED SYMBOLS
                            *ABS*:00000000 LED3264.c
C:\DOCUME~1\shawn\LOCALS~1\Temp/ccEdaaaa.s:3      *ABS*:0000003f __SREG__
C:\DOCUME~1\shawn\LOCALS~1\Temp/ccEdaaaa.s:4      *ABS*:0000003e __SP_H__
C:\DOCUME~1\shawn\LOCALS~1\Temp/ccEdaaaa.s:5      *ABS*:0000003d __SP_L__
C:\DOCUME~1\shawn\LOCALS~1\Temp/ccEdaaaa.s:6      *ABS*:00000000 __tmp_reg__
C:\DOCUME~1\shawn\LOCALS~1\Temp/ccEdaaaa.s:7      *ABS*:00000001 __zero_reg__
C:\DOCUME~1\shawn\LOCALS~1\Temp/ccEdaaaa.s:23     .bss:00000000 freshTimeCount
C:\DOCUME~1\shawn\LOCALS~1\Temp/ccEdaaaa.s:29     .data:00000000 time
C:\DOCUME~1\shawn\LOCALS~1\Temp/ccEdaaaa.s:41     .progmem.data:00000000 CHINESE
C:\DOCUME~1\shawn\LOCALS~1\Temp/ccEdaaaa.s:237    .progmem.data:000000c0 SCROLL_STYLE3
C:\DOCUME~1\shawn\LOCALS~1\Temp/ccEdaaaa.s:471    .progmem.data:000001a6 SCROLL_STYLE2
C:\DOCUME~1\shawn\LOCALS~1\Temp/ccEdaaaa.s:705    .progmem.data:0000028c SCROLL_STYLE1
C:\DOCUME~1\shawn\LOCALS~1\Temp/ccEdaaaa.s:939    .progmem.data:00000372 SCROLL
C:\DOCUME~1\shawn\LOCALS~1\Temp/ccEdaaaa.s:1403   .progmem.data:0000053e BIG_NUMBER_STYLE3
C:\DOCUME~1\shawn\LOCALS~1\Temp/ccEdaaaa.s:1827   .progmem.data:000006e2 BIG_NUMBER_STYLE2
C:\DOCUME~1\shawn\LOCALS~1\Temp/ccEdaaaa.s:2251   .progmem.data:00000886 BIG_NUMBER_STYLE1
C:\DOCUME~1\shawn\LOCALS~1\Temp/ccEdaaaa.s:2676   .data:00000007 RunParameter
C:\DOCUME~1\shawn\LOCALS~1\Temp/ccEdaaaa.s:2708   .text:00000000 s_10us
C:\DOCUME~1\shawn\LOCALS~1\Temp/ccEdaaaa.s:2738   .text:00000016 _delay_100ms
C:\DOCUME~1\shawn\LOCALS~1\Temp/ccEdaaaa.s:2768   .text:00000032 ds1820_reset
                            *COM*:00000001 init_f
C:\DOCUME~1\shawn\LOCALS~1\Temp/ccEdaaaa.s:2820   .text:00000068 ds1820_read_byte
C:\DOCUME~1\shawn\LOCALS~1\Temp/ccEdaaaa.s:2891   .text:000000b6 ds1820_write_byte
C:\DOCUME~1\shawn\LOCALS~1\Temp/ccEdaaaa.s:2952   .text:000000f6 ds1820_start
C:\DOCUME~1\shawn\LOCALS~1\Temp/ccEdaaaa.s:2973   .text:00000108 ReadTemputer
C:\DOCUME~1\shawn\LOCALS~1\Temp/ccEdaaaa.s:3147   .text:0000022a SaveRunParameter
C:\DOCUME~1\shawn\LOCALS~1\Temp/ccEdaaaa.s:3305   .text:000002c4 ReadRunParameter
C:\DOCUME~1\shawn\LOCALS~1\Temp/ccEdaaaa.s:3461   .text:00000364 LED_SCREEN_INI
                            *COM*:00000001 display_cnt
                            *COM*:00000002 halfSecondCount
                            *COM*:00000001 isSecondCountShow
                            *COM*:00000001 currentMoveLeft
                            *COM*:00000002 moveSpeedTimerCount
                            *COM*:00000002 FreshDisplayBufferCount
C:\DOCUME~1\shawn\LOCALS~1\Temp/ccEdaaaa.s:3511   .text:000003a0 clearScreen
                            *COM*:000001f0 display_buffer
C:\DOCUME~1\shawn\LOCALS~1\Temp/ccEdaaaa.s:3532   .text:000003b0 fullScreen
C:\DOCUME~1\shawn\LOCALS~1\Temp/ccEdaaaa.s:3553   .text:000003c2 writeCloclColon
C:\DOCUME~1\shawn\LOCALS~1\Temp/ccEdaaaa.s:3657   .text:0000048a writeOneChinese
C:\DOCUME~1\shawn\LOCALS~1\Temp/ccEdaaaa.s:3725   .text:000004da writeOneUnSCROLL
C:\DOCUME~1\shawn\LOCALS~1\Temp/ccEdaaaa.s:3774   .text:00000512 writeOneSCROLL
C:\DOCUME~1\shawn\LOCALS~1\Temp/ccEdaaaa.s:3908   .text:000005c8 wirteOneBigNumber
C:\DOCUME~1\shawn\LOCALS~1\Temp/ccEdaaaa.s:4209   .text:000007a2 FreshDisplayComment
C:\DOCUME~1\shawn\LOCALS~1\Temp/ccEdaaaa.s:4269   .text:00000802 FreshDisplayBufferAjustYear
C:\DOCUME~1\shawn\LOCALS~1\Temp/ccEdaaaa.s:4289   .text:00000812 FreshDisplayBufferAjustMonth
C:\DOCUME~1\shawn\LOCALS~1\Temp/ccEdaaaa.s:4309   .text:00000822 FreshDisplayBufferAjustDay
C:\DOCUME~1\shawn\LOCALS~1\Temp/ccEdaaaa.s:4329   .text:00000832 FreshDisplayBufferAjustHour
C:\DOCUME~1\shawn\LOCALS~1\Temp/ccEdaaaa.s:4349   .text:00000842 FreshDisplayBufferAjustMinute
C:\DOCUME~1\shawn\LOCALS~1\Temp/ccEdaaaa.s:4369   .text:00000852 FreshDisplayBufferAjustWeek
C:\DOCUME~1\shawn\LOCALS~1\Temp/ccEdaaaa.s:4409   .text:0000088c FreshDisplayBufferAjustSpeed
C:\DOCUME~1\shawn\LOCALS~1\Temp/ccEdaaaa.s:4454   .text:000008d0 FreshDisplayBufferAjustLightMode
C:\DOCUME~1\shawn\LOCALS~1\Temp/ccEdaaaa.s:4509   .text:00000922 FreshDisplayBufferAjustLight
C:\DOCUME~1\shawn\LOCALS~1\Temp/ccEdaaaa.s:4563   .text:00000974 FreshDisplayBufferChangeFont
C:\DOCUME~1\shawn\LOCALS~1\Temp/ccEdaaaa.s:4608   .text:000009b6 FreshDisplayBufferAjustProofTime
C:\DOCUME~1\shawn\LOCALS~1\Temp/ccEdaaaa.s:4687   .text:00000a3a FreshDisplayBufferNormal
C:\DOCUME~1\shawn\LOCALS~1\Temp/ccEdaaaa.s:4814   .text:00000b40 display
                            *COM*:00000008 display_buffer_temp
C:\DOCUME~1\shawn\LOCALS~1\Temp/ccEdaaaa.s:5518   .text:00000f50 Show_welcome
C:\DOCUME~1\shawn\LOCALS~1\Temp/ccEdaaaa.s:5610   .text:00000fec twi_init
C:\DOCUME~1\shawn\LOCALS~1\Temp/ccEdaaaa.s:5635   .text:00000ffc i2cstart
C:\DOCUME~1\shawn\LOCALS~1\Temp/ccEdaaaa.s:5656   .text:00001008 i2cwt
C:\DOCUME~1\shawn\LOCALS~1\Temp/ccEdaaaa.s:5689   .text:00001020 i2crd
C:\DOCUME~1\shawn\LOCALS~1\Temp/ccEdaaaa.s:5714   .text:00001030 i2cstop
C:\DOCUME~1\shawn\LOCALS~1\Temp/ccEdaaaa.s:5730   .text:00001036 clear
C:\DOCUME~1\shawn\LOCALS~1\Temp/ccEdaaaa.s:5755   .text:00001044 PCF8536_wt
                            *COM*:00000001 syserr
C:\DOCUME~1\shawn\LOCALS~1\Temp/ccEdaaaa.s:5806   .text:0000108a PCF8536_wt_p
C:\DOCUME~1\shawn\LOCALS~1\Temp/ccEdaaaa.s:5874   .text:000010e6 PCF8536_rd
C:\DOCUME~1\shawn\LOCALS~1\Temp/ccEdaaaa.s:5955   .text:0000115c PCF8563_init
                            *COM*:00000008 write_buff
                            *COM*:00000008 read_buff
C:\DOCUME~1\shawn\LOCALS~1\Temp/ccEdaaaa.s:5988   .text:00001186 Updata_time
C:\DOCUME~1\shawn\LOCALS~1\Temp/ccEdaaaa.s:6084   .text:0000123c Write_time
C:\DOCUME~1\shawn\LOCALS~1\Temp/ccEdaaaa.s:6187   .text:0000130a AjustTimerMonthly
C:\DOCUME~1\shawn\LOCALS~1\Temp/ccEdaaaa.s:6306   .text:000013de Key_Init
C:\DOCUME~1\shawn\LOCALS~1\Temp/ccEdaaaa.s:6335   .text:000013f0 Key_Operation
C:\DOCUME~1\shawn\LOCALS~1\Temp/ccEdaaaa.s:6502   .text:000014be Scan_Key
                            *COM*:00000002 KEY_Time_count
                            *COM*:00000002 KEY_Time_count_speed_color
C:\DOCUME~1\shawn\LOCALS~1\Temp/ccEdaaaa.s:7108   .text:00001816 StartAD
C:\DOCUME~1\shawn\LOCALS~1\Temp/ccEdaaaa.s:7129   .text:00001822 GetDispalyLight
C:\DOCUME~1\shawn\LOCALS~1\Temp/ccEdaaaa.s:7190   .text:00001874 timer0_init
C:\DOCUME~1\shawn\LOCALS~1\Temp/ccEdaaaa.s:7228   .text:0000189a timer2_init
C:\DOCUME~1\shawn\LOCALS~1\Temp/ccEdaaaa.s:7248   .text:000018a6 __vector_4
                            *COM*:00000002 ReadDS18B20Count
                            *COM*:00000002 AD_time_count
C:\DOCUME~1\shawn\LOCALS~1\Temp/ccEdaaaa.s:7366   .text:0000198c init_devices
C:\DOCUME~1\shawn\LOCALS~1\Temp/ccEdaaaa.s:7414   .text:000019ca main

UNDEFINED SYMBOLS
__do_copy_data
__do_clear_bss
__udivmodhi4
__eeprom_write_byte_1C1D1E
__eeprom_read_byte_1C1D1E
memset
__udivmodqi4
__stack
