   1               		.file	"LED3264.c"
   2               	__SREG__ = 0x3f
   3               	__SP_H__ = 0x3e
   4               	__SP_L__ = 0x3d
   5               	__tmp_reg__ = 0
   6               	__zero_reg__ = 1
   7               		.global __do_copy_data
   8               		.global __do_clear_bss
  16               	.Ltext0:
  17               	.global	s_10us
  19               	s_10us:
  20               	.LFB12:
  21               	.LM1:
  22               	/* prologue: frame size=0 */
  23               	/* prologue end (size=0) */
  24               	.LVL0:
  25 0000 00C0      		rjmp .L2
  26               	.LVL1:
  27               	.L3:
  28               	.LM2:
  29 0002 20E0      		ldi r18,lo8(0)
  30               	.L4:
  31               	.LM3:
  32               	/* #APP */
  33 0004 0000      		nop
  34               	.LM4:
  35               	/* #NOAPP */
  36 0006 2F5F      		subi r18,lo8(-(1))
  37 0008 2930      		cpi r18,lo8(9)
  38 000a 01F4      		brne .L4
  39               	.LM5:
  40 000c 0197      		sbiw r24,1
  41               	.LVL2:
  42               	.L2:
  43 000e 0097      		sbiw r24,0
  44 0010 01F4      		brne .L3
  45               	/* epilogue: frame size=0 */
  46 0012 0895      		ret
  47               	/* epilogue end (size=1) */
  48               	/* function s_10us size 11 (10) */
  49               	.LFE12:
  51               	.global	_delay_100ms
  53               	_delay_100ms:
  54               	.LFB13:
  55               	.LM6:
  56               	/* prologue: frame size=0 */
  57 0014 CF93      		push r28
  58 0016 DF93      		push r29
  59               	/* prologue end (size=2) */
  60               	.LVL3:
  61 0018 EC01      		movw r28,r24
  62 001a 00C0      		rjmp .L11
  63               	.LVL4:
  64               	.L12:
  65               	.LM7:
  66 001c 80E1      		ldi r24,lo8(10000)
  67 001e 97E2      		ldi r25,hi8(10000)
  68 0020 0E94 0000 		call s_10us
  69               	.LM8:
  70 0024 2197      		sbiw r28,1
  71               	.LVL5:
  72               	.L11:
  73 0026 2097      		sbiw r28,0
  74 0028 01F4      		brne .L12
  75               	/* epilogue: frame size=0 */
  76 002a DF91      		pop r29
  77 002c CF91      		pop r28
  78 002e 0895      		ret
  79               	/* epilogue end (size=3) */
  80               	/* function _delay_100ms size 14 (9) */
  81               	.LFE13:
  83               	.global	ds1820_reset
  85               	ds1820_reset:
  86               	.LFB14:
  87               	.LM9:
  88               	/* prologue: frame size=0 */
  89               	/* prologue end (size=0) */
  90               	.LM10:
  91 0030 8FB7      		in r24,95-0x20
  92 0032 8093 0000 		sts init_f,r24
  93               	.LM11:
  94               	/* #APP */
  95 0036 F894      		cli
  96               	.LM12:
  97               	/* #NOAPP */
  98 0038 8F9A      		sbi 49-0x20,7
  99               	.LM13:
 100 003a 9798      		cbi 50-0x20,7
 101               	.LM14:
 102 003c 8CE3      		ldi r24,lo8(60)
 103 003e 90E0      		ldi r25,hi8(60)
 104 0040 0E94 0000 		call s_10us
 105               	.LM15:
 106 0044 979A      		sbi 50-0x20,7
 107               	.LM16:
 108 0046 8F98      		cbi 49-0x20,7
 109               	.LM17:
 110 0048 85E0      		ldi r24,lo8(5)
 111 004a 90E0      		ldi r25,hi8(5)
 112 004c 0E94 0000 		call s_10us
 113               	.LM18:
 114 0050 80B3      		in r24,48-0x20
 115               	.LM19:
 116 0052 82E3      		ldi r24,lo8(50)
 117 0054 90E0      		ldi r25,hi8(50)
 118 0056 0E94 0000 		call s_10us
 119               	.LM20:
 120 005a 8091 0000 		lds r24,init_f
 121 005e 87FF      		sbrs r24,7
 122 0060 00C0      		rjmp .L18
 123               	.LM21:
 124               	/* #APP */
 125 0062 7894      		sei
 126               	/* #NOAPP */
 127               	.L18:
 128 0064 0895      		ret
 129               	/* epilogue: frame size=0 */
 130               	/* epilogue: noreturn */
 131               	/* epilogue end (size=0) */
 132               	/* function ds1820_reset size 29 (29) */
 133               	.LFE14:
 135               	.global	ds1820_read_byte
 137               	ds1820_read_byte:
 138               	.LFB15:
 139               	.LM22:
 140               	/* prologue: frame size=0 */
 141 0066 0F93      		push r16
 142 0068 1F93      		push r17
 143               	/* prologue end (size=2) */
 144               	.LM23:
 145 006a 8FB7      		in r24,95-0x20
 146 006c 8093 0000 		sts init_f,r24
 147               	.LM24:
 148               	/* #APP */
 149 0070 F894      		cli
 150               	/* #NOAPP */
 151 0072 08E0      		ldi r16,lo8(8)
 152               	.LVL6:
 153 0074 10E0      		ldi r17,lo8(0)
 154               	.LVL7:
 155               	.L20:
 156               	.LM25:
 157 0076 1695      		lsr r17
 158               	.LM26:
 159 0078 8F9A      		sbi 49-0x20,7
 160               	.LM27:
 161 007a 9798      		cbi 50-0x20,7
 162               	.LM28:
 163 007c 81E0      		ldi r24,lo8(1)
 164 007e 90E0      		ldi r25,hi8(1)
 165 0080 0E94 0000 		call s_10us
 166               	.LM29:
 167 0084 979A      		sbi 50-0x20,7
 168               	.LM30:
 169 0086 8F98      		cbi 49-0x20,7
 170               	.LM31:
 171 0088 81E0      		ldi r24,lo8(1)
 172 008a 90E0      		ldi r25,hi8(1)
 173 008c 0E94 0000 		call s_10us
 174               	.LM32:
 175 0090 8799      		sbic 48-0x20,7
 176               	.LM33:
 177 0092 1068      		ori r17,lo8(-128)
 178               	.L21:
 179               	.LM34:
 180 0094 83E0      		ldi r24,lo8(3)
 181 0096 90E0      		ldi r25,hi8(3)
 182 0098 0E94 0000 		call s_10us
 183               	.LM35:
 184 009c 0150      		subi r16,lo8(-(-1))
 185 009e 01F4      		brne .L20
 186               	.LM36:
 187 00a0 8091 0000 		lds r24,init_f
 188 00a4 87FF      		sbrs r24,7
 189 00a6 00C0      		rjmp .L24
 190               	.LM37:
 191               	/* #APP */
 192 00a8 7894      		sei
 193               	/* #NOAPP */
 194               	.L24:
 195               	.LM38:
 196 00aa 812F      		mov r24,r17
 197 00ac 90E0      		ldi r25,lo8(0)
 198               	/* epilogue: frame size=0 */
 199 00ae 1F91      		pop r17
 200 00b0 0F91      		pop r16
 201 00b2 0895      		ret
 202               	/* epilogue end (size=3) */
 203               	/* function ds1820_read_byte size 43 (38) */
 204               	.LFE15:
 206               	.global	ds1820_write_byte
 208               	ds1820_write_byte:
 209               	.LFB16:
 210               	.LM39:
 211               	/* prologue: frame size=0 */
 212 00b4 0F93      		push r16
 213 00b6 1F93      		push r17
 214               	/* prologue end (size=2) */
 215               	.LVL8:
 216 00b8 182F      		mov r17,r24
 217               	.LM40:
 218 00ba 8FB7      		in r24,95-0x20
 219               	.LVL9:
 220 00bc 8093 0000 		sts init_f,r24
 221               	.LM41:
 222               	/* #APP */
 223 00c0 F894      		cli
 224               	/* #NOAPP */
 225 00c2 08E0      		ldi r16,lo8(8)
 226               	.LVL10:
 227               	.L30:
 228               	.LM42:
 229 00c4 8F9A      		sbi 49-0x20,7
 230               	.LM43:
 231 00c6 9798      		cbi 50-0x20,7
 232               	.LM44:
 233 00c8 81E0      		ldi r24,lo8(1)
 234 00ca 90E0      		ldi r25,hi8(1)
 235 00cc 0E94 0000 		call s_10us
 236               	.LM45:
 237 00d0 10FD      		sbrc r17,0
 238               	.LM46:
 239 00d2 979A      		sbi 50-0x20,7
 240               	.L31:
 241               	.LM47:
 242 00d4 84E0      		ldi r24,lo8(4)
 243 00d6 90E0      		ldi r25,hi8(4)
 244 00d8 0E94 0000 		call s_10us
 245               	.LM48:
 246 00dc 979A      		sbi 50-0x20,7
 247               	.LM49:
 248 00de 0150      		subi r16,lo8(-(-1))
 249 00e0 01F0      		breq .L33
 250               	.LM50:
 251 00e2 1695      		lsr r17
 252 00e4 00C0      		rjmp .L30
 253               	.L33:
 254               	.LM51:
 255 00e6 8091 0000 		lds r24,init_f
 256 00ea 87FF      		sbrs r24,7
 257 00ec 00C0      		rjmp .L37
 258               	.LM52:
 259               	/* #APP */
 260 00ee 7894      		sei
 261               	/* #NOAPP */
 262               	.L37:
 263               	/* epilogue: frame size=0 */
 264 00f0 1F91      		pop r17
 265 00f2 0F91      		pop r16
 266 00f4 0895      		ret
 267               	/* epilogue end (size=3) */
 268               	/* function ds1820_write_byte size 37 (32) */
 269               	.LFE16:
 271               	.global	ds1820_start
 273               	ds1820_start:
 274               	.LFB17:
 275               	.LM53:
 276               	/* prologue: frame size=0 */
 277               	/* prologue end (size=0) */
 278               	.LM54:
 279 00f6 0E94 0000 		call ds1820_reset
 280               	.LM55:
 281 00fa 8CEC      		ldi r24,lo8(-52)
 282 00fc 0E94 0000 		call ds1820_write_byte
 283               	.LM56:
 284 0100 84E4      		ldi r24,lo8(68)
 285 0102 0E94 0000 		call ds1820_write_byte
 286               	/* epilogue: frame size=0 */
 287 0106 0895      		ret
 288               	/* epilogue end (size=1) */
 289               	/* function ds1820_start size 9 (8) */
 290               	.LFE17:
 292               	.global	ReadTemputer
 294               	ReadTemputer:
 295               	.LFB18:
 296               	.LM57:
 297               	/* prologue: frame size=2 */
 298 0108 EF92      		push r14
 299 010a FF92      		push r15
 300 010c 0F93      		push r16
 301 010e 1F93      		push r17
 302 0110 CF93      		push r28
 303 0112 DF93      		push r29
 304 0114 CDB7      		in r28,__SP_L__
 305 0116 DEB7      		in r29,__SP_H__
 306 0118 2297      		sbiw r28,2
 307 011a 0FB6      		in __tmp_reg__,__SREG__
 308 011c F894      		cli
 309 011e DEBF      		out __SP_H__,r29
 310 0120 0FBE      		out __SREG__,__tmp_reg__
 311 0122 CDBF      		out __SP_L__,r28
 312               	/* prologue end (size=14) */
 313               	.LM58:
 314 0124 0E94 0000 		call ds1820_reset
 315               	.LM59:
 316 0128 8CEC      		ldi r24,lo8(-52)
 317 012a 0E94 0000 		call ds1820_write_byte
 318               	.LM60:
 319 012e 8EEB      		ldi r24,lo8(-66)
 320 0130 0E94 0000 		call ds1820_write_byte
 321 0134 8E01      		movw r16,r28
 322 0136 0F5F      		subi r16,lo8(-(1))
 323 0138 1F4F      		sbci r17,hi8(-(1))
 324               	.LM61:
 325 013a E3E0      		ldi r30,lo8(3)
 326 013c EE2E      		mov r14,r30
 327 013e F12C      		mov r15,__zero_reg__
 328 0140 EC0E      		add r14,r28
 329 0142 FD1E      		adc r15,r29
 330               	.L41:
 331               	.LM62:
 332 0144 0E94 0000 		call ds1820_read_byte
 333 0148 F801      		movw r30,r16
 334 014a 8193      		st Z+,r24
 335 014c 8F01      		movw r16,r30
 336               	.LM63:
 337 014e EE15      		cp r30,r14
 338 0150 FF05      		cpc r31,r15
 339 0152 01F4      		brne .L41
 340               	.LM64:
 341 0154 8A81      		ldd r24,Y+2
 342 0156 90E0      		ldi r25,lo8(0)
 343               	.LVL11:
 344               	.LM65:
 345 0158 F82F      		mov r31,r24
 346 015a EE27      		clr r30
 347               	.LVL12:
 348               	.LM66:
 349 015c 8981      		ldd r24,Y+1
 350 015e 90E0      		ldi r25,lo8(0)
 351               	.LVL13:
 352 0160 E82B      		or r30,r24
 353 0162 F92B      		or r31,r25
 354               	.LM67:
 355 0164 CF01      		movw r24,r30
 356 0166 8070      		andi r24,lo8(-4096)
 357 0168 907F      		andi r25,hi8(-4096)
 358 016a 8050      		subi r24,lo8(-4096)
 359 016c 904F      		sbci r25,hi8(-4096)
 360 016e 01F0      		breq .L43
 361 0170 40E0      		ldi r20,lo8(0)
 362               	.LVL14:
 363 0172 00C0      		rjmp .L45
 364               	.LVL15:
 365               	.L43:
 366               	.LM68:
 367 0174 F095      		com r31
 368 0176 E195      		neg r30
 369 0178 FF4F      		sbci r31,lo8(-1)
 370 017a 41E0      		ldi r20,lo8(1)
 371               	.LVL16:
 372               	.L45:
 373               	.LM69:
 374 017c CF01      		movw r24,r30
 375 017e 880F      		lsl r24
 376 0180 991F      		rol r25
 377 0182 9F01      		movw r18,r30
 378 0184 53E0      		ldi r21,3
 379 0186 220F      	1:	lsl r18
 380 0188 331F      		rol r19
 381 018a 5A95      		dec r21
 382 018c 01F4      		brne 1b
 383 018e 820F      		add r24,r18
 384 0190 931F      		adc r25,r19
 385               	.LM70:
 386 0192 24E0      		ldi r18,4
 387 0194 9695      	1:	lsr r25
 388 0196 8795      		ror r24
 389 0198 2A95      		dec r18
 390 019a 01F4      		brne 1b
 391               	.LVL17:
 392 019c 68EE      		ldi r22,lo8(1000)
 393 019e 73E0      		ldi r23,hi8(1000)
 394 01a0 0E94 0000 		call __udivmodhi4
 395               	.LVL18:
 396 01a4 9C01      		movw r18,r24
 397               	.LVL19:
 398               	.LM71:
 399 01a6 4130      		cpi r20,lo8(1)
 400 01a8 01F4      		brne .L46
 401               	.LM72:
 402 01aa 8EE0      		ldi r24,lo8(14)
 403 01ac 8093 0000 		sts RunParameter+15,r24
 404 01b0 00C0      		rjmp .L48
 405               	.L46:
 406               	.LM73:
 407 01b2 64E6      		ldi r22,lo8(100)
 408 01b4 70E0      		ldi r23,hi8(100)
 409 01b6 0E94 0000 		call __udivmodhi4
 410 01ba 6093 0000 		sts RunParameter+15,r22
 411               	.L48:
 412               	.LM74:
 413 01be C901      		movw r24,r18
 414 01c0 64E6      		ldi r22,lo8(100)
 415 01c2 70E0      		ldi r23,hi8(100)
 416 01c4 0E94 0000 		call __udivmodhi4
 417 01c8 6AE0      		ldi r22,lo8(10)
 418 01ca 70E0      		ldi r23,hi8(10)
 419 01cc 0E94 0000 		call __udivmodhi4
 420 01d0 6093 0000 		sts RunParameter+16,r22
 421               	.LM75:
 422 01d4 EF70      		andi r30,lo8(15)
 423 01d6 F070      		andi r31,hi8(15)
 424               	.LVL20:
 425               	.LM76:
 426 01d8 81E7      		ldi r24,lo8(625)
 427 01da 92E0      		ldi r25,hi8(625)
 428 01dc 9C01      		movw r18,r24
 429 01de E29F      		mul r30,r18
 430 01e0 C001      		movw r24,r0
 431 01e2 E39F      		mul r30,r19
 432 01e4 900D      		add r25,r0
 433 01e6 F29F      		mul r31,r18
 434 01e8 900D      		add r25,r0
 435 01ea 1124      		clr r1
 436 01ec 68EE      		ldi r22,lo8(1000)
 437 01ee 73E0      		ldi r23,hi8(1000)
 438 01f0 0E94 0000 		call __udivmodhi4
 439 01f4 6093 0000 		sts RunParameter+17,r22
 440               	/* epilogue: frame size=2 */
 441 01f8 2296      		adiw r28,2
 442 01fa 0FB6      		in __tmp_reg__,__SREG__
 443 01fc F894      		cli
 444 01fe DEBF      		out __SP_H__,r29
 445 0200 0FBE      		out __SREG__,__tmp_reg__
 446 0202 CDBF      		out __SP_L__,r28
 447 0204 DF91      		pop r29
 448 0206 CF91      		pop r28
 449 0208 1F91      		pop r17
 450 020a 0F91      		pop r16
 451 020c FF90      		pop r15
 452 020e EF90      		pop r14
 453 0210 0895      		ret
 454               	/* epilogue end (size=13) */
 455               	/* function ReadTemputer size 134 (107) */
 456               	.LFE18:
 458               	.global	SaveRunParameter
 460               	SaveRunParameter:
 461               	.LFB19:
 462               	.LM77:
 463               	/* prologue: frame size=0 */
 464               	/* prologue end (size=0) */
 465               	.LM78:
 466               	/* #APP */
 467 0212 F894      		cli
 468               	.LM79:
 469               	/* #NOAPP */
 470 0214 8CB3      		in r24,60-0x20
 471 0216 90E0      		ldi r25,lo8(0)
 472 0218 DC01      		movw r26,r24
 473 021a A270      		andi r26,lo8(2)
 474 021c B070      		andi r27,hi8(2)
 475 021e 81FD      		sbrc r24,1
 476 0220 00C0      		rjmp .L53
 477               	.LBB119:
 478               	.LBB120:
 479               	.LM80:
 480 0222 8CEC      		ldi r24,lo8(-52)
 481               	/* #APP */
 482 0224 082E      		mov __tmp_reg__,r24
 483 0226 0E94 0000 		call __eeprom_write_byte_1C1D1E
 484               	.LVL21:
 485               	/* #NOAPP */
 486               	.LBE120:
 487               	.LBE119:
 488               	.LBB121:
 489               	.LBB122:
 490 022a 8091 0000 		lds r24,RunParameter+18
 491 022e A1E0      		ldi r26,lo8(1)
 492 0230 B0E0      		ldi r27,hi8(1)
 493               	.LVL22:
 494               	/* #APP */
 495 0232 082E      		mov __tmp_reg__,r24
 496 0234 0E94 0000 		call __eeprom_write_byte_1C1D1E
 497               	.LVL23:
 498               	/* #NOAPP */
 499               	.LBE122:
 500               	.LBE121:
 501               	.LBB123:
 502               	.LBB124:
 503 0238 8091 0000 		lds r24,RunParameter+19
 504 023c A2E0      		ldi r26,lo8(2)
 505 023e B0E0      		ldi r27,hi8(2)
 506               	.LVL24:
 507               	/* #APP */
 508 0240 082E      		mov __tmp_reg__,r24
 509 0242 0E94 0000 		call __eeprom_write_byte_1C1D1E
 510               	.LVL25:
 511               	/* #NOAPP */
 512               	.LBE124:
 513               	.LBE123:
 514               	.LBB125:
 515               	.LBB126:
 516 0246 8091 0000 		lds r24,RunParameter+20
 517 024a A3E0      		ldi r26,lo8(3)
 518 024c B0E0      		ldi r27,hi8(3)
 519               	.LVL26:
 520               	/* #APP */
 521 024e 082E      		mov __tmp_reg__,r24
 522 0250 0E94 0000 		call __eeprom_write_byte_1C1D1E
 523               	.LVL27:
 524               	/* #NOAPP */
 525               	.LBE126:
 526               	.LBE125:
 527               	.LBB127:
 528               	.LBB128:
 529 0254 8091 0000 		lds r24,RunParameter+21
 530 0258 A4E0      		ldi r26,lo8(4)
 531 025a B0E0      		ldi r27,hi8(4)
 532               	.LVL28:
 533               	/* #APP */
 534 025c 082E      		mov __tmp_reg__,r24
 535 025e 0E94 0000 		call __eeprom_write_byte_1C1D1E
 536               	.LVL29:
 537               	/* #NOAPP */
 538               	.LBE128:
 539               	.LBE127:
 540               	.LBB129:
 541               	.LBB130:
 542 0262 8091 0000 		lds r24,RunParameter+22
 543 0266 A5E0      		ldi r26,lo8(5)
 544 0268 B0E0      		ldi r27,hi8(5)
 545               	.LVL30:
 546               	/* #APP */
 547 026a 082E      		mov __tmp_reg__,r24
 548 026c 0E94 0000 		call __eeprom_write_byte_1C1D1E
 549               	.LVL31:
 550               	/* #NOAPP */
 551               	.LBE130:
 552               	.LBE129:
 553               	.LBB131:
 554               	.LBB132:
 555 0270 8091 0000 		lds r24,RunParameter+23
 556 0274 A6E0      		ldi r26,lo8(6)
 557 0276 B0E0      		ldi r27,hi8(6)
 558               	.LVL32:
 559               	/* #APP */
 560 0278 082E      		mov __tmp_reg__,r24
 561 027a 0E94 0000 		call __eeprom_write_byte_1C1D1E
 562               	.LVL33:
 563               	/* #NOAPP */
 564               	.LBE132:
 565               	.LBE131:
 566               	.LBB133:
 567               	.LBB134:
 568 027e 8091 0000 		lds r24,RunParameter+24
 569 0282 A7E0      		ldi r26,lo8(7)
 570 0284 B0E0      		ldi r27,hi8(7)
 571               	.LVL34:
 572               	/* #APP */
 573 0286 082E      		mov __tmp_reg__,r24
 574 0288 0E94 0000 		call __eeprom_write_byte_1C1D1E
 575               	.LVL35:
 576               	/* #NOAPP */
 577               	.LBE134:
 578               	.LBE133:
 579               	.LBB135:
 580               	.LBB136:
 581 028c 8091 0000 		lds r24,RunParameter+26
 582 0290 A8E0      		ldi r26,lo8(8)
 583 0292 B0E0      		ldi r27,hi8(8)
 584               	.LVL36:
 585               	/* #APP */
 586 0294 082E      		mov __tmp_reg__,r24
 587 0296 0E94 0000 		call __eeprom_write_byte_1C1D1E
 588               	.LVL37:
 589               	/* #NOAPP */
 590               	.LBE136:
 591               	.LBE135:
 592               	.LBB137:
 593               	.LBB138:
 594 029a 8091 0000 		lds r24,RunParameter+27
 595 029e A9E0      		ldi r26,lo8(9)
 596 02a0 B0E0      		ldi r27,hi8(9)
 597               	.LVL38:
 598               	/* #APP */
 599 02a2 082E      		mov __tmp_reg__,r24
 600 02a4 0E94 0000 		call __eeprom_write_byte_1C1D1E
 601               	.LVL39:
 602               	/* #NOAPP */
 603               	.LBE138:
 604               	.LBE137:
 605               	.LBB139:
 606               	.LBB140:
 607 02a8 8091 0000 		lds r24,RunParameter+28
 608 02ac A0E1      		ldi r26,lo8(16)
 609 02ae B0E0      		ldi r27,hi8(16)
 610               	.LVL40:
 611               	/* #APP */
 612 02b0 082E      		mov __tmp_reg__,r24
 613 02b2 0E94 0000 		call __eeprom_write_byte_1C1D1E
 614               	.LVL41:
 615               	/* #NOAPP */
 616               	.L53:
 617               	.LBE140:
 618               	.LBE139:
 619               	.LM81:
 620               	/* #APP */
 621 02b6 7894      		sei
 622               	/* #NOAPP */
 623               	/* epilogue: frame size=0 */
 624 02b8 0895      		ret
 625               	/* epilogue end (size=1) */
 626               	/* function SaveRunParameter size 97 (96) */
 627               	.LFE19:
 629               	.global	ReadRunParameter
 631               	ReadRunParameter:
 632               	.LFB20:
 633               	.LM82:
 634               	/* prologue: frame size=0 */
 635               	/* prologue end (size=0) */
 636               	.LM83:
 637               	/* #APP */
 638 02ba F894      		cli
 639               	.LM84:
 640               	/* #NOAPP */
 641 02bc 8CB3      		in r24,60-0x20
 642 02be 90E0      		ldi r25,lo8(0)
 643 02c0 DC01      		movw r26,r24
 644 02c2 A270      		andi r26,lo8(2)
 645 02c4 B070      		andi r27,hi8(2)
 646 02c6 81FD      		sbrc r24,1
 647 02c8 00C0      		rjmp .L57
 648               	.LBB141:
 649               	.LBB142:
 650               	.LM85:
 651               	/* #APP */
 652 02ca 0E94 0000 		call __eeprom_read_byte_1C1D1E
 653 02ce 802D      		mov r24,__tmp_reg__
 654               	.LVL42:
 655               	/* #NOAPP */
 656               	.LBE142:
 657               	.LBE141:
 658               	.LM86:
 659 02d0 8C3C      		cpi r24,lo8(-52)
 660 02d2 01F0      		breq .+2
 661 02d4 00C0      		rjmp .L59
 662               	.LBB143:
 663               	.LBB144:
 664               	.LM87:
 665 02d6 A1E0      		ldi r26,lo8(1)
 666 02d8 B0E0      		ldi r27,hi8(1)
 667               	.LVL43:
 668               	/* #APP */
 669 02da 0E94 0000 		call __eeprom_read_byte_1C1D1E
 670 02de 802D      		mov r24,__tmp_reg__
 671               	.LVL44:
 672               	/* #NOAPP */
 673               	.LBE144:
 674               	.LBE143:
 675               	.LM88:
 676 02e0 8093 0000 		sts RunParameter+18,r24
 677               	.LBB145:
 678               	.LBB146:
 679               	.LM89:
 680 02e4 A2E0      		ldi r26,lo8(2)
 681 02e6 B0E0      		ldi r27,hi8(2)
 682               	.LVL45:
 683               	/* #APP */
 684 02e8 0E94 0000 		call __eeprom_read_byte_1C1D1E
 685 02ec 802D      		mov r24,__tmp_reg__
 686               	.LVL46:
 687               	/* #NOAPP */
 688               	.LBE146:
 689               	.LBE145:
 690               	.LM90:
 691 02ee 8093 0000 		sts RunParameter+19,r24
 692               	.LBB147:
 693               	.LBB148:
 694               	.LM91:
 695 02f2 A3E0      		ldi r26,lo8(3)
 696 02f4 B0E0      		ldi r27,hi8(3)
 697               	.LVL47:
 698               	/* #APP */
 699 02f6 0E94 0000 		call __eeprom_read_byte_1C1D1E
 700 02fa 802D      		mov r24,__tmp_reg__
 701               	.LVL48:
 702               	/* #NOAPP */
 703               	.LBE148:
 704               	.LBE147:
 705               	.LM92:
 706 02fc 8093 0000 		sts RunParameter+20,r24
 707               	.LBB149:
 708               	.LBB150:
 709               	.LM93:
 710 0300 A5E0      		ldi r26,lo8(5)
 711 0302 B0E0      		ldi r27,hi8(5)
 712               	.LVL49:
 713               	/* #APP */
 714 0304 0E94 0000 		call __eeprom_read_byte_1C1D1E
 715 0308 802D      		mov r24,__tmp_reg__
 716               	.LVL50:
 717               	/* #NOAPP */
 718               	.LBE150:
 719               	.LBE149:
 720               	.LM94:
 721 030a 8093 0000 		sts RunParameter+22,r24
 722               	.LBB151:
 723               	.LBB152:
 724               	.LM95:
 725 030e A6E0      		ldi r26,lo8(6)
 726 0310 B0E0      		ldi r27,hi8(6)
 727               	.LVL51:
 728               	/* #APP */
 729 0312 0E94 0000 		call __eeprom_read_byte_1C1D1E
 730 0316 802D      		mov r24,__tmp_reg__
 731               	.LVL52:
 732               	/* #NOAPP */
 733               	.LBE152:
 734               	.LBE151:
 735               	.LM96:
 736 0318 8093 0000 		sts RunParameter+23,r24
 737               	.LBB153:
 738               	.LBB154:
 739               	.LM97:
 740 031c A7E0      		ldi r26,lo8(7)
 741 031e B0E0      		ldi r27,hi8(7)
 742               	.LVL53:
 743               	/* #APP */
 744 0320 0E94 0000 		call __eeprom_read_byte_1C1D1E
 745 0324 802D      		mov r24,__tmp_reg__
 746               	.LVL54:
 747               	/* #NOAPP */
 748               	.LBE154:
 749               	.LBE153:
 750               	.LM98:
 751 0326 8093 0000 		sts RunParameter+24,r24
 752               	.LBB155:
 753               	.LBB156:
 754               	.LM99:
 755 032a A8E0      		ldi r26,lo8(8)
 756 032c B0E0      		ldi r27,hi8(8)
 757               	.LVL55:
 758               	/* #APP */
 759 032e 0E94 0000 		call __eeprom_read_byte_1C1D1E
 760 0332 802D      		mov r24,__tmp_reg__
 761               	.LVL56:
 762               	/* #NOAPP */
 763               	.LBE156:
 764               	.LBE155:
 765               	.LM100:
 766 0334 8093 0000 		sts RunParameter+26,r24
 767               	.LBB157:
 768               	.LBB158:
 769               	.LM101:
 770 0338 A9E0      		ldi r26,lo8(9)
 771 033a B0E0      		ldi r27,hi8(9)
 772               	.LVL57:
 773               	/* #APP */
 774 033c 0E94 0000 		call __eeprom_read_byte_1C1D1E
 775 0340 802D      		mov r24,__tmp_reg__
 776               	.LVL58:
 777               	/* #NOAPP */
 778               	.LBE158:
 779               	.LBE157:
 780               	.LM102:
 781 0342 8093 0000 		sts RunParameter+27,r24
 782               	.LBB159:
 783               	.LBB160:
 784               	.LM103:
 785 0346 A0E1      		ldi r26,lo8(16)
 786 0348 B0E0      		ldi r27,hi8(16)
 787               	.LVL59:
 788               	/* #APP */
 789 034a 0E94 0000 		call __eeprom_read_byte_1C1D1E
 790 034e 802D      		mov r24,__tmp_reg__
 791               	.LVL60:
 792               	/* #NOAPP */
 793               	.LBE160:
 794               	.LBE159:
 795               	.LM104:
 796 0350 8093 0000 		sts RunParameter+28,r24
 797               	.LVL61:
 798               	.L59:
 799               	.LM105:
 800 0354 8091 0000 		lds r24,RunParameter+19
 801               	.LVL62:
 802 0358 29E1      		ldi r18,lo8(25)
 803 035a 829F      		mul r24,r18
 804 035c C001      		movw r24,r0
 805 035e 1124      		clr r1
 806 0360 8951      		subi r24,lo8(-(-25))
 807 0362 8CBF      		out 92-0x20,r24
 808               	.L57:
 809               	.LM106:
 810               	/* #APP */
 811 0364 7894      		sei
 812               	/* #NOAPP */
 813               	/* epilogue: frame size=0 */
 814 0366 0895      		ret
 815               	/* epilogue end (size=1) */
 816               	/* function ReadRunParameter size 99 (98) */
 817               	.LFE20:
 819               	.global	LED_SCREEN_INI
 821               	LED_SCREEN_INI:
 822               	.LFB21:
 823               	.LM107:
 824               	/* prologue: frame size=0 */
 825               	/* prologue end (size=0) */
 826               	.LM108:
 827 0368 BB9A      		sbi 55-0x20,3
 828               	.LM109:
 829 036a B89A      		sbi 55-0x20,0
 830               	.LM110:
 831 036c B99A      		sbi 55-0x20,1
 832               	.LM111:
 833 036e BA9A      		sbi 55-0x20,2
 834               	.LM112:
 835 0370 BC9A      		sbi 55-0x20,4
 836               	.LM113:
 837 0372 8C9A      		sbi 49-0x20,4
 838               	.LM114:
 839 0374 8D9A      		sbi 49-0x20,5
 840               	.LM115:
 841 0376 D19A      		sbi 58-0x20,1
 842               	.LM116:
 843 0378 D29A      		sbi 58-0x20,2
 844               	.LM117:
 845 037a D39A      		sbi 58-0x20,3
 846               	.LM118:
 847 037c D49A      		sbi 58-0x20,4
 848               	.LM119:
 849 037e 8A9A      		sbi 49-0x20,2
 850               	.LM120:
 851 0380 8B9A      		sbi 49-0x20,3
 852               	.LM121:
 853 0382 1092 0000 		sts display_cnt,__zero_reg__
 854               	.LM122:
 855 0386 1092 0000 		sts isSecondCountShow,__zero_reg__
 856               	.LM123:
 857 038a 1092 0000 		sts currentMoveLeft,__zero_reg__
 858               	.LM124:
 859 038e 1092 0000 		sts (moveSpeedTimerCount)+1,__zero_reg__
 860 0392 1092 0000 		sts moveSpeedTimerCount,__zero_reg__
 861               	/* epilogue: frame size=0 */
 862 0396 0895      		ret
 863               	/* epilogue end (size=1) */
 864               	/* function LED_SCREEN_INI size 24 (23) */
 865               	.LFE21:
 867               	.global	writeCloclColon
 869               	writeCloclColon:
 870               	.LFB24:
 871               	.LM125:
 872               	/* prologue: frame size=0 */
 873 0398 1F93      		push r17
 874               	/* prologue end (size=1) */
 875               	.LVL63:
 876 039a 9091 0000 		lds r25,display_buffer+36
 877 039e 2091 0000 		lds r18,display_buffer+44
 878 03a2 3091 0000 		lds r19,display_buffer+52
 879 03a6 4091 0000 		lds r20,display_buffer+35
 880 03aa 5091 0000 		lds r21,display_buffer+43
 881 03ae 6091 0000 		lds r22,display_buffer+51
 882 03b2 7091 0000 		lds r23,display_buffer+108
 883 03b6 E091 0000 		lds r30,display_buffer+116
 884 03ba F091 0000 		lds r31,display_buffer+124
 885 03be A091 0000 		lds r26,display_buffer+107
 886 03c2 B091 0000 		lds r27,display_buffer+115
 887 03c6 1091 0000 		lds r17,display_buffer+123
 888               	.LM126:
 889 03ca 8823      		tst r24
 890 03cc 01F0      		breq .L65
 891               	.LM127:
 892 03ce 906C      		ori r25,lo8(-64)
 893 03d0 9093 0000 		sts display_buffer+36,r25
 894               	.LM128:
 895 03d4 206C      		ori r18,lo8(-64)
 896 03d6 2093 0000 		sts display_buffer+44,r18
 897               	.LM129:
 898 03da 306C      		ori r19,lo8(-64)
 899 03dc 3093 0000 		sts display_buffer+52,r19
 900               	.LM130:
 901 03e0 4160      		ori r20,lo8(1)
 902 03e2 4093 0000 		sts display_buffer+35,r20
 903               	.LM131:
 904 03e6 5160      		ori r21,lo8(1)
 905 03e8 5093 0000 		sts display_buffer+43,r21
 906               	.LM132:
 907 03ec 6160      		ori r22,lo8(1)
 908 03ee 6093 0000 		sts display_buffer+51,r22
 909               	.LM133:
 910 03f2 706C      		ori r23,lo8(-64)
 911 03f4 7093 0000 		sts display_buffer+108,r23
 912               	.LM134:
 913 03f8 E06C      		ori r30,lo8(-64)
 914 03fa E093 0000 		sts display_buffer+116,r30
 915               	.LM135:
 916 03fe F06C      		ori r31,lo8(-64)
 917 0400 F093 0000 		sts display_buffer+124,r31
 918               	.LM136:
 919 0404 A160      		ori r26,lo8(1)
 920 0406 A093 0000 		sts display_buffer+107,r26
 921               	.LM137:
 922 040a B160      		ori r27,lo8(1)
 923 040c B093 0000 		sts display_buffer+115,r27
 924               	.LM138:
 925 0410 1160      		ori r17,lo8(1)
 926 0412 00C0      		rjmp .L69
 927               	.L65:
 928               	.LM139:
 929 0414 9F73      		andi r25,lo8(63)
 930 0416 9093 0000 		sts display_buffer+36,r25
 931               	.LM140:
 932 041a 2F73      		andi r18,lo8(63)
 933 041c 2093 0000 		sts display_buffer+44,r18
 934               	.LM141:
 935 0420 3F73      		andi r19,lo8(63)
 936 0422 3093 0000 		sts display_buffer+52,r19
 937               	.LM142:
 938 0426 4E7F      		andi r20,lo8(-2)
 939 0428 4093 0000 		sts display_buffer+35,r20
 940               	.LM143:
 941 042c 5E7F      		andi r21,lo8(-2)
 942 042e 5093 0000 		sts display_buffer+43,r21
 943               	.LM144:
 944 0432 6E7F      		andi r22,lo8(-2)
 945 0434 6093 0000 		sts display_buffer+51,r22
 946               	.LM145:
 947 0438 7F73      		andi r23,lo8(63)
 948 043a 7093 0000 		sts display_buffer+108,r23
 949               	.LM146:
 950 043e EF73      		andi r30,lo8(63)
 951 0440 E093 0000 		sts display_buffer+116,r30
 952               	.LM147:
 953 0444 FF73      		andi r31,lo8(63)
 954 0446 F093 0000 		sts display_buffer+124,r31
 955               	.LM148:
 956 044a AE7F      		andi r26,lo8(-2)
 957 044c A093 0000 		sts display_buffer+107,r26
 958               	.LM149:
 959 0450 BE7F      		andi r27,lo8(-2)
 960 0452 B093 0000 		sts display_buffer+115,r27
 961               	.LM150:
 962 0456 1E7F      		andi r17,lo8(-2)
 963               	.L69:
 964 0458 1093 0000 		sts display_buffer+123,r17
 965               	/* epilogue: frame size=0 */
 966 045c 1F91      		pop r17
 967 045e 0895      		ret
 968               	/* epilogue end (size=2) */
 969               	/* function writeCloclColon size 100 (97) */
 970               	.LFE24:
 972               	.global	writeOneChinese
 974               	writeOneChinese:
 975               	.LFB25:
 976               	.LM151:
 977               	/* prologue: frame size=0 */
 978 0460 CF93      		push r28
 979 0462 DF93      		push r29
 980               	/* prologue end (size=2) */
 981               	.LVL64:
 982 0464 E42F      		mov r30,r20
 983 0466 F0E0      		ldi r31,lo8(0)
 984 0468 25E0      		ldi r18,5
 985 046a EE0F      	1:	lsl r30
 986 046c FF1F      		rol r31
 987 046e 2A95      		dec r18
 988 0470 01F4      		brne 1b
 989 0472 E050      		subi r30,lo8(-(CHINESE))
 990 0474 F040      		sbci r31,hi8(-(CHINESE))
 991 0476 A62F      		mov r26,r22
 992 0478 B0E0      		ldi r27,lo8(0)
 993 047a 93E0      		ldi r25,3
 994 047c AA0F      	1:	lsl r26
 995 047e BB1F      		rol r27
 996 0480 9A95      		dec r25
 997 0482 01F4      		brne 1b
 998 0484 A80F      		add r26,r24
 999 0486 B11D      		adc r27,__zero_reg__
 1000 0488 A050      		subi r26,lo8(-(display_buffer))
 1001 048a B040      		sbci r27,hi8(-(display_buffer))
 1002 048c 90E0      		ldi r25,lo8(0)
 1003               	.LVL65:
 1004               	.L71:
 1005               	.LBB161:
 1006               	.LM152:
 1007               	/* #APP */
 1008 048e 8491      		lpm r24, Z
 1009               		
 1010               	.LVL66:
 1011               	/* #NOAPP */
 1012               	.LBE161:
 1013               	.LM153:
 1014 0490 8C93      		st X,r24
 1015               	.LBB162:
 1016               	.LM154:
 1017 0492 3196      		adiw r30,1
 1018               	/* #APP */
 1019 0494 8491      		lpm r24, Z
 1020               		
 1021               	.LVL67:
 1022               	/* #NOAPP */
 1023               	.LBE162:
 1024               	.LM155:
 1025 0496 ED01      		movw r28,r26
 1026 0498 8983      		std Y+1,r24
 1027               	.LM156:
 1028 049a 9F5F      		subi r25,lo8(-(1))
 1029 049c 3196      		adiw r30,1
 1030 049e 1896      		adiw r26,8
 1031 04a0 9031      		cpi r25,lo8(16)
 1032 04a2 01F4      		brne .L71
 1033               	/* epilogue: frame size=0 */
 1034 04a4 DF91      		pop r29
 1035 04a6 CF91      		pop r28
 1036 04a8 0895      		ret
 1037               	/* epilogue end (size=3) */
 1038               	/* function writeOneChinese size 43 (38) */
 1039               	.LFE25:
 1041               	.global	writeOneUnSCROLL
 1043               	writeOneUnSCROLL:
 1044               	.LFB26:
 1045               	.LM157:
 1046               	/* prologue: frame size=0 */
 1047               	/* prologue end (size=0) */
 1048               	.LVL68:
 1049 04aa 9AE0      		ldi r25,lo8(10)
 1050 04ac 499F      		mul r20,r25
 1051 04ae 9001      		movw r18,r0
 1052 04b0 1124      		clr r1
 1053 04b2 2050      		subi r18,lo8(-(SCROLL))
 1054 04b4 3040      		sbci r19,hi8(-(SCROLL))
 1055 04b6 A62F      		mov r26,r22
 1056 04b8 B0E0      		ldi r27,lo8(0)
 1057 04ba 43E0      		ldi r20,3
 1058 04bc AA0F      	1:	lsl r26
 1059 04be BB1F      		rol r27
 1060 04c0 4A95      		dec r20
 1061 04c2 01F4      		brne 1b
 1062               	.LVL69:
 1063 04c4 A80F      		add r26,r24
 1064 04c6 B11D      		adc r27,__zero_reg__
 1065 04c8 A050      		subi r26,lo8(-(display_buffer))
 1066 04ca B040      		sbci r27,hi8(-(display_buffer))
 1067 04cc 90E0      		ldi r25,lo8(0)
 1068               	.LVL70:
 1069               	.L77:
 1070               	.LBB163:
 1071               	.LM158:
 1072 04ce F901      		movw r30,r18
 1073               	/* #APP */
 1074 04d0 8491      		lpm r24, Z
 1075               		
 1076               	.LVL71:
 1077               	/* #NOAPP */
 1078               	.LBE163:
 1079               	.LM159:
 1080 04d2 8C93      		st X,r24
 1081               	.LM160:
 1082 04d4 9F5F      		subi r25,lo8(-(1))
 1083 04d6 2F5F      		subi r18,lo8(-(1))
 1084 04d8 3F4F      		sbci r19,hi8(-(1))
 1085 04da 1896      		adiw r26,8
 1086 04dc 9A30      		cpi r25,lo8(10)
 1087 04de 01F4      		brne .L77
 1088               	/* epilogue: frame size=0 */
 1089 04e0 0895      		ret
 1090               	/* epilogue end (size=1) */
 1091               	/* function writeOneUnSCROLL size 31 (30) */
 1092               	.LFE26:
 1094               	.global	writeOneSCROLL
 1096               	writeOneSCROLL:
 1097               	.LFB27:
 1098               	.LM161:
 1099               	/* prologue: frame size=0 */
 1100 04e2 CF93      		push r28
 1101 04e4 DF93      		push r29
 1102               	/* prologue end (size=2) */
 1103               	.LVL72:
 1104 04e6 982F      		mov r25,r24
 1105               	.LM162:
 1106 04e8 8091 0000 		lds r24,RunParameter+27
 1107               	.LVL73:
 1108 04ec 8823      		tst r24
 1109 04ee 01F4      		brne .L83
 1110               	.LM163:
 1111 04f0 8AE0      		ldi r24,lo8(10)
 1112 04f2 489F      		mul r20,r24
 1113 04f4 9001      		movw r18,r0
 1114 04f6 1124      		clr r1
 1115 04f8 2050      		subi r18,lo8(-(SCROLL_STYLE1))
 1116 04fa 3040      		sbci r19,hi8(-(SCROLL_STYLE1))
 1117 04fc A62F      		mov r26,r22
 1118 04fe B0E0      		ldi r27,lo8(0)
 1119 0500 73E0      		ldi r23,3
 1120 0502 AA0F      	1:	lsl r26
 1121 0504 BB1F      		rol r27
 1122 0506 7A95      		dec r23
 1123 0508 01F4      		brne 1b
 1124 050a A90F      		add r26,r25
 1125 050c B11D      		adc r27,__zero_reg__
 1126 050e A050      		subi r26,lo8(-(display_buffer))
 1127 0510 B040      		sbci r27,hi8(-(display_buffer))
 1128 0512 90E0      		ldi r25,lo8(0)
 1129               	.LVL74:
 1130               	.L85:
 1131               	.LBB164:
 1132               	.LM164:
 1133 0514 F901      		movw r30,r18
 1134               	/* #APP */
 1135 0516 8491      		lpm r24, Z
 1136               		
 1137               	/* #NOAPP */
 1138               	.LBE164:
 1139               	.LM165:
 1140 0518 8C93      		st X,r24
 1141               	.LM166:
 1142 051a 9F5F      		subi r25,lo8(-(1))
 1143 051c 2F5F      		subi r18,lo8(-(1))
 1144 051e 3F4F      		sbci r19,hi8(-(1))
 1145 0520 5896      		adiw r26,24
 1146 0522 9A30      		cpi r25,lo8(10)
 1147 0524 01F4      		brne .+2
 1148 0526 00C0      		rjmp .L91
 1149 0528 00C0      		rjmp .L85
 1150               	.LVL75:
 1151               	.L83:
 1152 052a 70E0      		ldi r23,lo8(0)
 1153               	.LVL76:
 1154 052c A92F      		mov r26,r25
 1155 052e B0E0      		ldi r27,lo8(0)
 1156               	.LVL77:
 1157               	.LM167:
 1158 0530 8130      		cpi r24,lo8(1)
 1159 0532 01F4      		brne .L87
 1160               	.LVL78:
 1161 0534 8AE0      		ldi r24,lo8(10)
 1162 0536 489F      		mul r20,r24
 1163 0538 9001      		movw r18,r0
 1164 053a 1124      		clr r1
 1165 053c 2050      		subi r18,lo8(-(SCROLL_STYLE2))
 1166 053e 3040      		sbci r19,hi8(-(SCROLL_STYLE2))
 1167 0540 EB01      		movw r28,r22
 1168 0542 63E0      		ldi r22,3
 1169 0544 CC0F      	1:	lsl r28
 1170 0546 DD1F      		rol r29
 1171 0548 6A95      		dec r22
 1172 054a 01F4      		brne 1b
 1173               	.LVL79:
 1174 054c CA0F      		add r28,r26
 1175 054e DB1F      		adc r29,r27
 1176 0550 C050      		subi r28,lo8(-(display_buffer))
 1177 0552 D040      		sbci r29,hi8(-(display_buffer))
 1178 0554 90E0      		ldi r25,lo8(0)
 1179               	.LVL80:
 1180               	.L89:
 1181               	.LBB165:
 1182               	.LM168:
 1183 0556 F901      		movw r30,r18
 1184               	/* #APP */
 1185 0558 8491      		lpm r24, Z
 1186               		
 1187               	/* #NOAPP */
 1188               	.LBE165:
 1189               	.LM169:
 1190 055a 8883      		st Y,r24
 1191               	.LM170:
 1192 055c 9F5F      		subi r25,lo8(-(1))
 1193 055e 2F5F      		subi r18,lo8(-(1))
 1194 0560 3F4F      		sbci r19,hi8(-(1))
 1195 0562 6896      		adiw r28,24
 1196 0564 9A30      		cpi r25,lo8(10)
 1197 0566 01F0      		breq .L91
 1198 0568 00C0      		rjmp .L89
 1199               	.LVL81:
 1200               	.L87:
 1201 056a 8AE0      		ldi r24,lo8(10)
 1202 056c 489F      		mul r20,r24
 1203 056e 9001      		movw r18,r0
 1204 0570 1124      		clr r1
 1205 0572 2050      		subi r18,lo8(-(SCROLL_STYLE3))
 1206 0574 3040      		sbci r19,hi8(-(SCROLL_STYLE3))
 1207 0576 EB01      		movw r28,r22
 1208 0578 53E0      		ldi r21,3
 1209 057a CC0F      	1:	lsl r28
 1210 057c DD1F      		rol r29
 1211 057e 5A95      		dec r21
 1212 0580 01F4      		brne 1b
 1213 0582 CA0F      		add r28,r26
 1214 0584 DB1F      		adc r29,r27
 1215 0586 C050      		subi r28,lo8(-(display_buffer))
 1216 0588 D040      		sbci r29,hi8(-(display_buffer))
 1217 058a 90E0      		ldi r25,lo8(0)
 1218               	.LVL82:
 1219               	.L90:
 1220               	.LBB166:
 1221               	.LM171:
 1222 058c F901      		movw r30,r18
 1223               	/* #APP */
 1224 058e 8491      		lpm r24, Z
 1225               		
 1226               	.LVL83:
 1227               	/* #NOAPP */
 1228               	.LBE166:
 1229               	.LM172:
 1230 0590 8883      		st Y,r24
 1231               	.LM173:
 1232 0592 9F5F      		subi r25,lo8(-(1))
 1233 0594 2F5F      		subi r18,lo8(-(1))
 1234 0596 3F4F      		sbci r19,hi8(-(1))
 1235 0598 6896      		adiw r28,24
 1236 059a 9A30      		cpi r25,lo8(10)
 1237 059c 01F4      		brne .L90
 1238               	.LVL84:
 1239               	.L91:
 1240               	/* epilogue: frame size=0 */
 1241 059e DF91      		pop r29
 1242 05a0 CF91      		pop r28
 1243 05a2 0895      		ret
 1244               	/* epilogue end (size=3) */
 1245               	/* function writeOneSCROLL size 106 (101) */
 1246               	.LFE27:
 1248               	.global	wirteOneBigNumber
 1250               	wirteOneBigNumber:
 1251               	.LFB28:
 1252               	.LM174:
 1253               	/* prologue: frame size=0 */
 1254 05a4 1F93      		push r17
 1255 05a6 CF93      		push r28
 1256 05a8 DF93      		push r29
 1257               	/* prologue end (size=3) */
 1258               	.LVL85:
 1259 05aa 982F      		mov r25,r24
 1260               	.LM175:
 1261 05ac 8091 0000 		lds r24,RunParameter+27
 1262               	.LVL86:
 1263 05b0 8823      		tst r24
 1264 05b2 01F4      		brne .L96
 1265               	.LM176:
 1266 05b4 85E1      		ldi r24,lo8(21)
 1267 05b6 489F      		mul r20,r24
 1268 05b8 F001      		movw r30,r0
 1269 05ba 1124      		clr r1
 1270 05bc EE0F      		lsl r30
 1271 05be FF1F      		rol r31
 1272 05c0 E050      		subi r30,lo8(-(BIG_NUMBER_STYLE1))
 1273 05c2 F040      		sbci r31,hi8(-(BIG_NUMBER_STYLE1))
 1274 05c4 A92F      		mov r26,r25
 1275 05c6 B0E0      		ldi r27,lo8(0)
 1276 05c8 A050      		subi r26,lo8(-(display_buffer))
 1277 05ca B040      		sbci r27,hi8(-(display_buffer))
 1278 05cc 10E0      		ldi r17,lo8(0)
 1279               	.LVL87:
 1280               	.LM177:
 1281 05ce 70E0      		ldi r23,lo8(0)
 1282               	.LVL88:
 1283               	.LM178:
 1284 05d0 48E0      		ldi r20,lo8(8)
 1285 05d2 50E0      		ldi r21,hi8(8)
 1286               	.LVL89:
 1287 05d4 461B      		sub r20,r22
 1288 05d6 570B      		sbc r21,r23
 1289               	.LVL90:
 1290               	.L98:
 1291               	.LBB167:
 1292               	.LM179:
 1293               	/* #APP */
 1294 05d8 2491      		lpm r18, Z
 1295               		
 1296               	.LVL91:
 1297               	/* #NOAPP */
 1298               	.LBE167:
 1299               	.LM180:
 1300 05da 30E0      		ldi r19,lo8(0)
 1301 05dc C901      		movw r24,r18
 1302               	.LVL92:
 1303 05de 062E      		mov r0,r22
 1304 05e0 00C0      		rjmp 2f
 1305 05e2 9595      	1:	asr r25
 1306 05e4 8795      		ror r24
 1307 05e6 0A94      	2:	dec r0
 1308 05e8 02F4      		brpl 1b
 1309 05ea 8C93      		st X,r24
 1310               	.LBB168:
 1311               	.LM181:
 1312 05ec 3196      		adiw r30,1
 1313               	/* #APP */
 1314 05ee 8491      		lpm r24, Z
 1315               		
 1316               	.LVL93:
 1317               	/* #NOAPP */
 1318               	.LBE168:
 1319               	.LM182:
 1320 05f0 90E0      		ldi r25,lo8(0)
 1321               	.LVL94:
 1322 05f2 062E      		mov r0,r22
 1323 05f4 00C0      		rjmp 2f
 1324 05f6 9595      	1:	asr r25
 1325 05f8 8795      		ror r24
 1326 05fa 0A94      	2:	dec r0
 1327 05fc 02F4      		brpl 1b
 1328               	.LVL95:
 1329 05fe 042E      		mov r0,r20
 1330 0600 00C0      		rjmp 2f
 1331 0602 220F      	1:	lsl r18
 1332 0604 331F      		rol r19
 1333 0606 0A94      	2:	dec r0
 1334 0608 02F4      		brpl 1b
 1335 060a 822B      		or r24,r18
 1336               	.LVL96:
 1337 060c ED01      		movw r28,r26
 1338 060e 8983      		std Y+1,r24
 1339               	.LM183:
 1340 0610 1F5F      		subi r17,lo8(-(1))
 1341 0612 3196      		adiw r30,1
 1342 0614 1896      		adiw r26,8
 1343 0616 1531      		cpi r17,lo8(21)
 1344 0618 01F4      		brne .+2
 1345 061a 00C0      		rjmp .L104
 1346 061c 00C0      		rjmp .L98
 1347               	.LVL97:
 1348               	.L96:
 1349 061e 292F      		mov r18,r25
 1350 0620 30E0      		ldi r19,lo8(0)
 1351               	.LVL98:
 1352               	.LM184:
 1353 0622 8130      		cpi r24,lo8(1)
 1354 0624 01F4      		brne .L100
 1355               	.LVL99:
 1356               	.LM185:
 1357 0626 85E1      		ldi r24,lo8(21)
 1358 0628 489F      		mul r20,r24
 1359 062a F001      		movw r30,r0
 1360 062c 1124      		clr r1
 1361 062e EE0F      		lsl r30
 1362 0630 FF1F      		rol r31
 1363 0632 E050      		subi r30,lo8(-(BIG_NUMBER_STYLE2))
 1364 0634 F040      		sbci r31,hi8(-(BIG_NUMBER_STYLE2))
 1365 0636 D901      		movw r26,r18
 1366 0638 A050      		subi r26,lo8(-(display_buffer))
 1367 063a B040      		sbci r27,hi8(-(display_buffer))
 1368 063c 10E0      		ldi r17,lo8(0)
 1369               	.LVL100:
 1370               	.LM186:
 1371 063e 70E0      		ldi r23,lo8(0)
 1372               	.LVL101:
 1373               	.LM187:
 1374 0640 48E0      		ldi r20,lo8(8)
 1375 0642 50E0      		ldi r21,hi8(8)
 1376               	.LVL102:
 1377 0644 461B      		sub r20,r22
 1378 0646 570B      		sbc r21,r23
 1379               	.LVL103:
 1380               	.L102:
 1381               	.LBB169:
 1382               	.LM188:
 1383               	/* #APP */
 1384 0648 2491      		lpm r18, Z
 1385               		
 1386               	.LVL104:
 1387               	/* #NOAPP */
 1388               	.LBE169:
 1389               	.LM189:
 1390 064a 30E0      		ldi r19,lo8(0)
 1391               	.LVL105:
 1392 064c C901      		movw r24,r18
 1393               	.LVL106:
 1394 064e 062E      		mov r0,r22
 1395 0650 00C0      		rjmp 2f
 1396 0652 9595      	1:	asr r25
 1397 0654 8795      		ror r24
 1398 0656 0A94      	2:	dec r0
 1399 0658 02F4      		brpl 1b
 1400 065a 8C93      		st X,r24
 1401               	.LBB170:
 1402               	.LM190:
 1403 065c 3196      		adiw r30,1
 1404               	/* #APP */
 1405 065e 8491      		lpm r24, Z
 1406               		
 1407               	.LVL107:
 1408               	/* #NOAPP */
 1409               	.LBE170:
 1410               	.LM191:
 1411 0660 90E0      		ldi r25,lo8(0)
 1412               	.LVL108:
 1413 0662 062E      		mov r0,r22
 1414 0664 00C0      		rjmp 2f
 1415 0666 9595      	1:	asr r25
 1416 0668 8795      		ror r24
 1417 066a 0A94      	2:	dec r0
 1418 066c 02F4      		brpl 1b
 1419               	.LVL109:
 1420 066e 042E      		mov r0,r20
 1421 0670 00C0      		rjmp 2f
 1422 0672 220F      	1:	lsl r18
 1423 0674 331F      		rol r19
 1424 0676 0A94      	2:	dec r0
 1425 0678 02F4      		brpl 1b
 1426 067a 822B      		or r24,r18
 1427               	.LVL110:
 1428 067c ED01      		movw r28,r26
 1429 067e 8983      		std Y+1,r24
 1430               	.LM192:
 1431 0680 1F5F      		subi r17,lo8(-(1))
 1432 0682 3196      		adiw r30,1
 1433 0684 1896      		adiw r26,8
 1434 0686 1531      		cpi r17,lo8(21)
 1435 0688 01F0      		breq .L104
 1436 068a 00C0      		rjmp .L102
 1437               	.LVL111:
 1438               	.L100:
 1439               	.LM193:
 1440 068c 85E1      		ldi r24,lo8(21)
 1441 068e 489F      		mul r20,r24
 1442 0690 F001      		movw r30,r0
 1443 0692 1124      		clr r1
 1444 0694 EE0F      		lsl r30
 1445 0696 FF1F      		rol r31
 1446 0698 E050      		subi r30,lo8(-(BIG_NUMBER_STYLE3))
 1447 069a F040      		sbci r31,hi8(-(BIG_NUMBER_STYLE3))
 1448 069c D901      		movw r26,r18
 1449 069e A050      		subi r26,lo8(-(display_buffer))
 1450 06a0 B040      		sbci r27,hi8(-(display_buffer))
 1451 06a2 10E0      		ldi r17,lo8(0)
 1452               	.LVL112:
 1453               	.LM194:
 1454 06a4 70E0      		ldi r23,lo8(0)
 1455               	.LVL113:
 1456               	.LM195:
 1457 06a6 48E0      		ldi r20,lo8(8)
 1458 06a8 50E0      		ldi r21,hi8(8)
 1459               	.LVL114:
 1460 06aa 461B      		sub r20,r22
 1461 06ac 570B      		sbc r21,r23
 1462               	.L103:
 1463               	.LBB171:
 1464               	.LM196:
 1465               	/* #APP */
 1466 06ae 2491      		lpm r18, Z
 1467               		
 1468               	.LVL115:
 1469               	/* #NOAPP */
 1470               	.LBE171:
 1471               	.LM197:
 1472 06b0 30E0      		ldi r19,lo8(0)
 1473               	.LVL116:
 1474 06b2 C901      		movw r24,r18
 1475               	.LVL117:
 1476 06b4 062E      		mov r0,r22
 1477 06b6 00C0      		rjmp 2f
 1478 06b8 9595      	1:	asr r25
 1479 06ba 8795      		ror r24
 1480 06bc 0A94      	2:	dec r0
 1481 06be 02F4      		brpl 1b
 1482 06c0 8C93      		st X,r24
 1483               	.LBB172:
 1484               	.LM198:
 1485 06c2 3196      		adiw r30,1
 1486               	/* #APP */
 1487 06c4 8491      		lpm r24, Z
 1488               		
 1489               	.LVL118:
 1490               	/* #NOAPP */
 1491               	.LBE172:
 1492               	.LM199:
 1493 06c6 90E0      		ldi r25,lo8(0)
 1494               	.LVL119:
 1495 06c8 062E      		mov r0,r22
 1496 06ca 00C0      		rjmp 2f
 1497 06cc 9595      	1:	asr r25
 1498 06ce 8795      		ror r24
 1499 06d0 0A94      	2:	dec r0
 1500 06d2 02F4      		brpl 1b
 1501               	.LVL120:
 1502 06d4 042E      		mov r0,r20
 1503 06d6 00C0      		rjmp 2f
 1504 06d8 220F      	1:	lsl r18
 1505 06da 331F      		rol r19
 1506 06dc 0A94      	2:	dec r0
 1507 06de 02F4      		brpl 1b
 1508 06e0 822B      		or r24,r18
 1509               	.LVL121:
 1510 06e2 ED01      		movw r28,r26
 1511 06e4 8983      		std Y+1,r24
 1512               	.LM200:
 1513 06e6 1F5F      		subi r17,lo8(-(1))
 1514 06e8 3196      		adiw r30,1
 1515 06ea 1896      		adiw r26,8
 1516 06ec 1531      		cpi r17,lo8(21)
 1517 06ee 01F4      		brne .L103
 1518               	.LVL122:
 1519               	.L104:
 1520               	/* epilogue: frame size=0 */
 1521 06f0 DF91      		pop r29
 1522 06f2 CF91      		pop r28
 1523 06f4 1F91      		pop r17
 1524 06f6 0895      		ret
 1525               	/* epilogue end (size=4) */
 1526               	/* function wirteOneBigNumber size 188 (181) */
 1527               	.LFE28:
 1529               	.global	FreshDisplayBufferSecond
 1531               	FreshDisplayBufferSecond:
 1532               	.LFB43:
 1533               	.LM201:
 1534               	/* prologue: frame size=0 */
 1535 06f8 CF93      		push r28
 1536 06fa DF93      		push r29
 1537               	/* prologue end (size=2) */
 1538               	.LM202:
 1539 06fc 8091 0000 		lds r24,RunParameter+27
 1540 0700 8823      		tst r24
 1541 0702 01F4      		brne .L109
 1542               	.LM203:
 1543 0704 9091 0000 		lds r25,RunParameter+12
 1544 0708 8AE0      		ldi r24,lo8(10)
 1545 070a 989F      		mul r25,r24
 1546 070c F001      		movw r30,r0
 1547 070e 1124      		clr r1
 1548 0710 E050      		subi r30,lo8(-(SCROLL_STYLE1))
 1549 0712 F040      		sbci r31,hi8(-(SCROLL_STYLE1))
 1550 0714 C0E0      		ldi r28,lo8(display_buffer_second)
 1551 0716 D0E0      		ldi r29,hi8(display_buffer_second)
 1552               	.LM204:
 1553 0718 9E01      		movw r18,r28
 1554               	.L111:
 1555               	.LBB173:
 1556               	.LM205:
 1557               	/* #APP */
 1558 071a 8491      		lpm r24, Z
 1559               		
 1560               	.LVL123:
 1561               	/* #NOAPP */
 1562               	.LBE173:
 1563               	.LM206:
 1564 071c 8993      		st Y+,r24
 1565 071e 3196      		adiw r30,1
 1566               	.LM207:
 1567 0720 D901      		movw r26,r18
 1568               	.LM208:
 1569 0722 80E0      		ldi r24,hi8(display_buffer_second+10)
 1570 0724 C030      		cpi r28,lo8(display_buffer_second+10)
 1571 0726 D807      		cpc r29,r24
 1572               	.LVL124:
 1573 0728 01F4      		brne .L111
 1574 072a 9091 0000 		lds r25,RunParameter+13
 1575 072e 8AE0      		ldi r24,lo8(10)
 1576 0730 989F      		mul r25,r24
 1577 0732 F001      		movw r30,r0
 1578 0734 1124      		clr r1
 1579 0736 E050      		subi r30,lo8(-(SCROLL_STYLE1))
 1580 0738 F040      		sbci r31,hi8(-(SCROLL_STYLE1))
 1581               	.L113:
 1582               	.LBB174:
 1583               	.LM209:
 1584               	/* #APP */
 1585 073a 8491      		lpm r24, Z
 1586               		
 1587               	.LVL125:
 1588               	/* #NOAPP */
 1589               	.LBE174:
 1590               	.LM210:
 1591 073c ED01      		movw r28,r26
 1592 073e 8A87      		std Y+10,r24
 1593 0740 3196      		adiw r30,1
 1594 0742 1196      		adiw r26,1
 1595               	.LM211:
 1596 0744 80E0      		ldi r24,hi8(display_buffer_second+10)
 1597 0746 A030      		cpi r26,lo8(display_buffer_second+10)
 1598 0748 B807      		cpc r27,r24
 1599               	.LVL126:
 1600 074a 01F4      		brne .+2
 1601 074c 00C0      		rjmp .L123
 1602 074e 00C0      		rjmp .L113
 1603               	.L109:
 1604 0750 9091 0000 		lds r25,RunParameter+12
 1605               	.LM212:
 1606 0754 8130      		cpi r24,lo8(1)
 1607 0756 01F4      		brne .L115
 1608 0758 8AE0      		ldi r24,lo8(10)
 1609 075a 989F      		mul r25,r24
 1610 075c F001      		movw r30,r0
 1611 075e 1124      		clr r1
 1612 0760 E050      		subi r30,lo8(-(SCROLL_STYLE2))
 1613 0762 F040      		sbci r31,hi8(-(SCROLL_STYLE2))
 1614 0764 C0E0      		ldi r28,lo8(display_buffer_second)
 1615 0766 D0E0      		ldi r29,hi8(display_buffer_second)
 1616               	.LM213:
 1617 0768 9E01      		movw r18,r28
 1618               	.L117:
 1619               	.LBB175:
 1620               	.LM214:
 1621               	/* #APP */
 1622 076a 8491      		lpm r24, Z
 1623               		
 1624               	.LVL127:
 1625               	/* #NOAPP */
 1626               	.LBE175:
 1627               	.LM215:
 1628 076c 8993      		st Y+,r24
 1629 076e 3196      		adiw r30,1
 1630               	.LM216:
 1631 0770 D901      		movw r26,r18
 1632               	.LM217:
 1633 0772 80E0      		ldi r24,hi8(display_buffer_second+10)
 1634 0774 C030      		cpi r28,lo8(display_buffer_second+10)
 1635 0776 D807      		cpc r29,r24
 1636               	.LVL128:
 1637 0778 01F4      		brne .L117
 1638 077a 9091 0000 		lds r25,RunParameter+13
 1639 077e 8AE0      		ldi r24,lo8(10)
 1640 0780 989F      		mul r25,r24
 1641 0782 F001      		movw r30,r0
 1642 0784 1124      		clr r1
 1643 0786 E050      		subi r30,lo8(-(SCROLL_STYLE2))
 1644 0788 F040      		sbci r31,hi8(-(SCROLL_STYLE2))
 1645               	.L119:
 1646               	.LBB176:
 1647               	.LM218:
 1648               	/* #APP */
 1649 078a 8491      		lpm r24, Z
 1650               		
 1651               	.LVL129:
 1652               	/* #NOAPP */
 1653               	.LBE176:
 1654               	.LM219:
 1655 078c ED01      		movw r28,r26
 1656 078e 8A87      		std Y+10,r24
 1657 0790 3196      		adiw r30,1
 1658 0792 1196      		adiw r26,1
 1659               	.LM220:
 1660 0794 80E0      		ldi r24,hi8(display_buffer_second+10)
 1661 0796 A030      		cpi r26,lo8(display_buffer_second+10)
 1662 0798 B807      		cpc r27,r24
 1663               	.LVL130:
 1664 079a 01F0      		breq .L123
 1665 079c 00C0      		rjmp .L119
 1666               	.L115:
 1667 079e 8AE0      		ldi r24,lo8(10)
 1668 07a0 989F      		mul r25,r24
 1669 07a2 F001      		movw r30,r0
 1670 07a4 1124      		clr r1
 1671 07a6 E050      		subi r30,lo8(-(SCROLL_STYLE3))
 1672 07a8 F040      		sbci r31,hi8(-(SCROLL_STYLE3))
 1673 07aa C0E0      		ldi r28,lo8(display_buffer_second)
 1674 07ac D0E0      		ldi r29,hi8(display_buffer_second)
 1675               	.LM221:
 1676 07ae 9E01      		movw r18,r28
 1677               	.L120:
 1678               	.LBB177:
 1679               	.LM222:
 1680               	/* #APP */
 1681 07b0 8491      		lpm r24, Z
 1682               		
 1683               	.LVL131:
 1684               	/* #NOAPP */
 1685               	.LBE177:
 1686               	.LM223:
 1687 07b2 8993      		st Y+,r24
 1688 07b4 3196      		adiw r30,1
 1689               	.LM224:
 1690 07b6 D901      		movw r26,r18
 1691               	.LM225:
 1692 07b8 80E0      		ldi r24,hi8(display_buffer_second+10)
 1693 07ba C030      		cpi r28,lo8(display_buffer_second+10)
 1694 07bc D807      		cpc r29,r24
 1695               	.LVL132:
 1696 07be 01F4      		brne .L120
 1697 07c0 9091 0000 		lds r25,RunParameter+13
 1698 07c4 8AE0      		ldi r24,lo8(10)
 1699 07c6 989F      		mul r25,r24
 1700 07c8 F001      		movw r30,r0
 1701 07ca 1124      		clr r1
 1702 07cc E050      		subi r30,lo8(-(SCROLL_STYLE3))
 1703 07ce F040      		sbci r31,hi8(-(SCROLL_STYLE3))
 1704               	.L122:
 1705               	.LBB178:
 1706               	.LM226:
 1707               	/* #APP */
 1708 07d0 8491      		lpm r24, Z
 1709               		
 1710               	.LVL133:
 1711               	/* #NOAPP */
 1712               	.LBE178:
 1713               	.LM227:
 1714 07d2 ED01      		movw r28,r26
 1715 07d4 8A87      		std Y+10,r24
 1716 07d6 3196      		adiw r30,1
 1717 07d8 1196      		adiw r26,1
 1718               	.LM228:
 1719 07da 80E0      		ldi r24,hi8(display_buffer_second+10)
 1720 07dc A030      		cpi r26,lo8(display_buffer_second+10)
 1721 07de B807      		cpc r27,r24
 1722               	.LVL134:
 1723 07e0 01F4      		brne .L122
 1724               	.L123:
 1725               	/* epilogue: frame size=0 */
 1726 07e2 DF91      		pop r29
 1727 07e4 CF91      		pop r28
 1728 07e6 0895      		ret
 1729               	/* epilogue end (size=3) */
 1730               	/* function FreshDisplayBufferSecond size 138 (133) */
 1731               	.LFE43:
 1733               	.global	display
 1735               	display:
 1736               	.LFB44:
 1737               	.LM229:
 1738               	/* prologue: frame size=0 */
 1739 07e8 CF93      		push r28
 1740 07ea DF93      		push r29
 1741               	/* prologue end (size=2) */
 1742               	.LM230:
 1743 07ec 2091 0000 		lds r18,moveSpeedTimerCount
 1744 07f0 3091 0000 		lds r19,(moveSpeedTimerCount)+1
 1745 07f4 2F5F      		subi r18,lo8(-(1))
 1746 07f6 3F4F      		sbci r19,hi8(-(1))
 1747 07f8 3093 0000 		sts (moveSpeedTimerCount)+1,r19
 1748 07fc 2093 0000 		sts moveSpeedTimerCount,r18
 1749               	.LM231:
 1750 0800 4091 0000 		lds r20,RunParameter+20
 1751 0804 89E0      		ldi r24,lo8(9)
 1752 0806 90E0      		ldi r25,hi8(9)
 1753 0808 841B      		sub r24,r20
 1754 080a 9109      		sbc r25,__zero_reg__
 1755 080c AC01      		movw r20,r24
 1756 080e 73E0      		ldi r23,3
 1757 0810 440F      	1:	lsl r20
 1758 0812 551F      		rol r21
 1759 0814 7A95      		dec r23
 1760 0816 01F4      		brne 1b
 1761 0818 880F      		lsl r24
 1762 081a 991F      		rol r25
 1763 081c 840F      		add r24,r20
 1764 081e 951F      		adc r25,r21
 1765 0820 8217      		cp r24,r18
 1766 0822 9307      		cpc r25,r19
 1767 0824 00F4      		brsh .L134
 1768               	.LM232:
 1769 0826 1092 0000 		sts (moveSpeedTimerCount)+1,__zero_reg__
 1770 082a 1092 0000 		sts moveSpeedTimerCount,__zero_reg__
 1771               	.LM233:
 1772 082e 8091 0000 		lds r24,currentMoveLeft
 1773 0832 8F5F      		subi r24,lo8(-(1))
 1774 0834 8093 0000 		sts currentMoveLeft,r24
 1775               	.LM234:
 1776 0838 813C      		cpi r24,lo8(-63)
 1777 083a 00F0      		brlo .L134
 1778               	.LM235:
 1779 083c 1092 0000 		sts currentMoveLeft,__zero_reg__
 1780               	.L134:
 1781               	.LM236:
 1782 0840 9298      		cbi 50-0x20,2
 1783               	.LM237:
 1784 0842 8091 0000 		lds r24,display_cnt
 1785 0846 8630      		cpi r24,lo8(6)
 1786 0848 00F4      		brsh .+2
 1787 084a 00C0      		rjmp .L137
 1788               	.LM238:
 1789 084c 8091 0000 		lds r24,RunParameter+21
 1790 0850 8823      		tst r24
 1791 0852 01F0      		breq .+2
 1792 0854 00C0      		rjmp .L137
 1793               	.LBB179:
 1794               	.LM239:
 1795 0856 9091 0000 		lds r25,currentMoveLeft
 1796               	.LM240:
 1797 085a 3091 0000 		lds r19,display_cnt
 1798               	.LM241:
 1799 085e 8091 0000 		lds r24,display_cnt
 1800 0862 482F      		mov r20,r24
 1801 0864 50E0      		ldi r21,lo8(0)
 1802 0866 23E0      		ldi r18,3
 1803 0868 440F      	1:	lsl r20
 1804 086a 551F      		rol r21
 1805 086c 2A95      		dec r18
 1806 086e 01F4      		brne 1b
 1807 0870 292F      		mov r18,r25
 1808 0872 2695      		lsr r18
 1809 0874 2695      		lsr r18
 1810 0876 2695      		lsr r18
 1811 0878 88E1      		ldi r24,lo8(24)
 1812 087a 389F      		mul r19,r24
 1813 087c F001      		movw r30,r0
 1814 087e 1124      		clr r1
 1815 0880 E20F      		add r30,r18
 1816 0882 F11D      		adc r31,__zero_reg__
 1817 0884 E050      		subi r30,lo8(-(display_buffer+32))
 1818 0886 F040      		sbci r31,hi8(-(display_buffer+32))
 1819 0888 C0E0      		ldi r28,lo8(display_buffer_temp)
 1820 088a D0E0      		ldi r29,hi8(display_buffer_temp)
 1821 088c 9770      		andi r25,lo8(7)
 1822               	.LM242:
 1823 088e A92F      		mov r26,r25
 1824               	.LVL135:
 1825 0890 B0E0      		ldi r27,lo8(0)
 1826               	.LVL136:
 1827 0892 68E0      		ldi r22,lo8(8)
 1828 0894 70E0      		ldi r23,hi8(8)
 1829 0896 6A1B      		sub r22,r26
 1830 0898 7B0B      		sbc r23,r27
 1831               	.L141:
 1832 089a 2181      		ldd r18,Z+1
 1833 089c 30E0      		ldi r19,lo8(0)
 1834 089e 062E      		mov r0,r22
 1835 08a0 00C0      		rjmp 2f
 1836 08a2 3595      	1:	asr r19
 1837 08a4 2795      		ror r18
 1838 08a6 0A94      	2:	dec r0
 1839 08a8 02F4      		brpl 1b
 1840 08aa 8191      		ld r24,Z+
 1841 08ac 90E0      		ldi r25,lo8(0)
 1842 08ae 0A2E      		mov r0,r26
 1843 08b0 00C0      		rjmp 2f
 1844 08b2 880F      	1:	lsl r24
 1845 08b4 991F      		rol r25
 1846 08b6 0A94      	2:	dec r0
 1847 08b8 02F4      		brpl 1b
 1848 08ba 282B      		or r18,r24
 1849 08bc 2993      		st Y+,r18
 1850               	.LM243:
 1851 08be 80E0      		ldi r24,hi8(display_buffer_temp+6)
 1852 08c0 C030      		cpi r28,lo8(display_buffer_temp+6)
 1853 08c2 D807      		cpc r29,r24
 1854 08c4 01F4      		brne .L141
 1855               	.LM244:
 1856 08c6 DA01      		movw r26,r20
 1857               	.LVL137:
 1858 08c8 A050      		subi r26,lo8(-(display_buffer))
 1859 08ca B040      		sbci r27,hi8(-(display_buffer))
 1860               	.LM245:
 1861 08cc 8091 0000 		lds r24,display_buffer_temp+5
 1862 08d0 887F      		andi r24,lo8(-8)
 1863 08d2 8093 0000 		sts display_buffer_temp+5,r24
 1864               	.LM246:
 1865 08d6 E091 0000 		lds r30,display_cnt
 1866 08da F0E0      		ldi r31,lo8(0)
 1867 08dc E050      		subi r30,lo8(-(display_buffer_second-6))
 1868 08de F040      		sbci r31,hi8(-(display_buffer_second-6))
 1869 08e0 8081      		ld r24,Z
 1870 08e2 8093 0000 		sts display_buffer_temp+6,r24
 1871               	.LM247:
 1872 08e6 E091 0000 		lds r30,display_cnt
 1873 08ea F0E0      		ldi r31,lo8(0)
 1874 08ec E050      		subi r30,lo8(-(display_buffer_second))
 1875 08ee F040      		sbci r31,hi8(-(display_buffer_second))
 1876 08f0 8481      		ldd r24,Z+4
 1877 08f2 8093 0000 		sts display_buffer_temp+7,r24
 1878 08f6 FE01      		movw r30,r28
 1879               	.LVL138:
 1880 08f8 3697      		sbiw r30,6
 1881 08fa 00C0      		rjmp .L143
 1882               	.LVL139:
 1883               	.L137:
 1884               	.LBE179:
 1885               	.LM248:
 1886 08fc 8091 0000 		lds r24,display_cnt
 1887 0900 A82F      		mov r26,r24
 1888               	.LVL140:
 1889 0902 B0E0      		ldi r27,lo8(0)
 1890               	.LVL141:
 1891 0904 93E0      		ldi r25,3
 1892 0906 AA0F      	1:	lsl r26
 1893 0908 BB1F      		rol r27
 1894 090a 9A95      		dec r25
 1895 090c 01F4      		brne 1b
 1896               	.LVL142:
 1897 090e A050      		subi r26,lo8(-(display_buffer))
 1898 0910 B040      		sbci r27,hi8(-(display_buffer))
 1899               	.LM249:
 1900 0912 8091 0000 		lds r24,display_cnt
 1901 0916 E82F      		mov r30,r24
 1902               	.LVL143:
 1903 0918 F0E0      		ldi r31,lo8(0)
 1904               	.LVL144:
 1905 091a 83E0      		ldi r24,3
 1906 091c EE0F      	1:	lsl r30
 1907 091e FF1F      		rol r31
 1908 0920 8A95      		dec r24
 1909 0922 01F4      		brne 1b
 1910               	.LVL145:
 1911 0924 E050      		subi r30,lo8(-(display_buffer+128))
 1912 0926 F040      		sbci r31,hi8(-(display_buffer+128))
 1913               	.LVL146:
 1914               	.L143:
 1915               	.LM250:
 1916 0928 8091 0000 		lds r24,RunParameter+26
 1917 092c 8823      		tst r24
 1918 092e 01F4      		brne .+2
 1919 0930 00C0      		rjmp .L144
 1920 0932 00C0      		rjmp .L247
 1921               	.LVL147:
 1922               	.L146:
 1923               	.LM251:
 1924 0934 9498      		cbi 50-0x20,4
 1925               	.LM252:
 1926 0936 9598      		cbi 50-0x20,5
 1927               	.LM253:
 1928 0938 D998      		cbi 59-0x20,1
 1929               	.LM254:
 1930 093a DA98      		cbi 59-0x20,2
 1931               	.LM255:
 1932 093c DB98      		cbi 59-0x20,3
 1933               	.LM256:
 1934 093e DC98      		cbi 59-0x20,4
 1935               	.LM257:
 1936 0940 8C91      		ld r24,X
 1937 0942 90E0      		ldi r25,lo8(0)
 1938 0944 022E      		mov r0,r18
 1939 0946 00C0      		rjmp 2f
 1940 0948 9595      	1:	asr r25
 1941 094a 8795      		ror r24
 1942 094c 0A94      	2:	dec r0
 1943 094e 02F4      		brpl 1b
 1944 0950 80FD      		sbrc r24,0
 1945               	.LM258:
 1946 0952 949A      		sbi 50-0x20,4
 1947               	.L147:
 1948               	.LM259:
 1949 0954 8081      		ld r24,Z
 1950 0956 90E0      		ldi r25,lo8(0)
 1951 0958 022E      		mov r0,r18
 1952 095a 00C0      		rjmp 2f
 1953 095c 9595      	1:	asr r25
 1954 095e 8795      		ror r24
 1955 0960 0A94      	2:	dec r0
 1956 0962 02F4      		brpl 1b
 1957 0964 80FD      		sbrc r24,0
 1958               	.LM260:
 1959 0966 959A      		sbi 50-0x20,5
 1960               	.L149:
 1961               	.LM261:
 1962 0968 9398      		cbi 50-0x20,3
 1963               	.LM262:
 1964 096a 939A      		sbi 50-0x20,3
 1965 096c 2150      		subi r18,lo8(-(-1))
 1966 096e 3040      		sbci r19,hi8(-(-1))
 1967               	.LM263:
 1968 0970 8FEF      		ldi r24,hi8(-1)
 1969 0972 2F3F      		cpi r18,lo8(-1)
 1970 0974 3807      		cpc r19,r24
 1971 0976 01F4      		brne .L146
 1972               	.LM264:
 1973 0978 4F5F      		subi r20,lo8(-(1))
 1974 097a 4830      		cpi r20,lo8(8)
 1975 097c 01F4      		brne .+2
 1976 097e 00C0      		rjmp .L152
 1977               	.LM265:
 1978 0980 1196      		adiw r26,1
 1979               	.LM266:
 1980 0982 3196      		adiw r30,1
 1981 0984 00C0      		rjmp .L154
 1982               	.LVL148:
 1983               	.L247:
 1984               	.LM267:
 1985 0986 8130      		cpi r24,lo8(1)
 1986 0988 01F4      		brne .L249
 1987 098a 00C0      		rjmp .L155
 1988               	.LVL149:
 1989               	.L157:
 1990               	.LM268:
 1991 098c 9498      		cbi 50-0x20,4
 1992               	.LM269:
 1993 098e 9598      		cbi 50-0x20,5
 1994               	.LM270:
 1995 0990 D998      		cbi 59-0x20,1
 1996               	.LM271:
 1997 0992 DA98      		cbi 59-0x20,2
 1998               	.LM272:
 1999 0994 DB98      		cbi 59-0x20,3
 2000               	.LM273:
 2001 0996 DC98      		cbi 59-0x20,4
 2002               	.LM274:
 2003 0998 8C91      		ld r24,X
 2004 099a 90E0      		ldi r25,lo8(0)
 2005 099c 022E      		mov r0,r18
 2006 099e 00C0      		rjmp 2f
 2007 09a0 9595      	1:	asr r25
 2008 09a2 8795      		ror r24
 2009 09a4 0A94      	2:	dec r0
 2010 09a6 02F4      		brpl 1b
 2011 09a8 80FD      		sbrc r24,0
 2012               	.LM275:
 2013 09aa D99A      		sbi 59-0x20,1
 2014               	.L158:
 2015               	.LM276:
 2016 09ac 8081      		ld r24,Z
 2017 09ae 90E0      		ldi r25,lo8(0)
 2018 09b0 022E      		mov r0,r18
 2019 09b2 00C0      		rjmp 2f
 2020 09b4 9595      	1:	asr r25
 2021 09b6 8795      		ror r24
 2022 09b8 0A94      	2:	dec r0
 2023 09ba 02F4      		brpl 1b
 2024 09bc 80FD      		sbrc r24,0
 2025               	.LM277:
 2026 09be DA9A      		sbi 59-0x20,2
 2027               	.L160:
 2028               	.LM278:
 2029 09c0 9398      		cbi 50-0x20,3
 2030               	.LM279:
 2031 09c2 939A      		sbi 50-0x20,3
 2032 09c4 2150      		subi r18,lo8(-(-1))
 2033 09c6 3040      		sbci r19,hi8(-(-1))
 2034               	.LM280:
 2035 09c8 8FEF      		ldi r24,hi8(-1)
 2036 09ca 2F3F      		cpi r18,lo8(-1)
 2037 09cc 3807      		cpc r19,r24
 2038 09ce 01F4      		brne .L157
 2039               	.LM281:
 2040 09d0 4F5F      		subi r20,lo8(-(1))
 2041 09d2 4830      		cpi r20,lo8(8)
 2042 09d4 01F4      		brne .+2
 2043 09d6 00C0      		rjmp .L152
 2044               	.LM282:
 2045 09d8 1196      		adiw r26,1
 2046               	.LM283:
 2047 09da 3196      		adiw r30,1
 2048 09dc 00C0      		rjmp .L164
 2049               	.LVL150:
 2050               	.L249:
 2051               	.LM284:
 2052 09de 8230      		cpi r24,lo8(2)
 2053 09e0 01F4      		brne .L251
 2054 09e2 00C0      		rjmp .L165
 2055               	.LVL151:
 2056               	.L167:
 2057               	.LM285:
 2058 09e4 9498      		cbi 50-0x20,4
 2059               	.LM286:
 2060 09e6 9598      		cbi 50-0x20,5
 2061               	.LM287:
 2062 09e8 D998      		cbi 59-0x20,1
 2063               	.LM288:
 2064 09ea DA98      		cbi 59-0x20,2
 2065               	.LM289:
 2066 09ec DB98      		cbi 59-0x20,3
 2067               	.LM290:
 2068 09ee DC98      		cbi 59-0x20,4
 2069               	.LM291:
 2070 09f0 8C91      		ld r24,X
 2071 09f2 90E0      		ldi r25,lo8(0)
 2072 09f4 022E      		mov r0,r18
 2073 09f6 00C0      		rjmp 2f
 2074 09f8 9595      	1:	asr r25
 2075 09fa 8795      		ror r24
 2076 09fc 0A94      	2:	dec r0
 2077 09fe 02F4      		brpl 1b
 2078 0a00 80FF      		sbrs r24,0
 2079 0a02 00C0      		rjmp .L168
 2080               	.LM292:
 2081 0a04 949A      		sbi 50-0x20,4
 2082               	.LM293:
 2083 0a06 D99A      		sbi 59-0x20,1
 2084               	.L168:
 2085               	.LM294:
 2086 0a08 8081      		ld r24,Z
 2087 0a0a 90E0      		ldi r25,lo8(0)
 2088 0a0c 022E      		mov r0,r18
 2089 0a0e 00C0      		rjmp 2f
 2090 0a10 9595      	1:	asr r25
 2091 0a12 8795      		ror r24
 2092 0a14 0A94      	2:	dec r0
 2093 0a16 02F4      		brpl 1b
 2094 0a18 80FF      		sbrs r24,0
 2095 0a1a 00C0      		rjmp .L170
 2096               	.LM295:
 2097 0a1c 959A      		sbi 50-0x20,5
 2098               	.LM296:
 2099 0a1e DA9A      		sbi 59-0x20,2
 2100               	.L170:
 2101               	.LM297:
 2102 0a20 9398      		cbi 50-0x20,3
 2103               	.LM298:
 2104 0a22 939A      		sbi 50-0x20,3
 2105 0a24 2150      		subi r18,lo8(-(-1))
 2106 0a26 3040      		sbci r19,hi8(-(-1))
 2107               	.LM299:
 2108 0a28 8FEF      		ldi r24,hi8(-1)
 2109 0a2a 2F3F      		cpi r18,lo8(-1)
 2110 0a2c 3807      		cpc r19,r24
 2111 0a2e 01F4      		brne .L167
 2112               	.LM300:
 2113 0a30 4F5F      		subi r20,lo8(-(1))
 2114 0a32 4830      		cpi r20,lo8(8)
 2115 0a34 01F4      		brne .+2
 2116 0a36 00C0      		rjmp .L152
 2117               	.LM301:
 2118 0a38 1196      		adiw r26,1
 2119               	.LM302:
 2120 0a3a 3196      		adiw r30,1
 2121 0a3c 00C0      		rjmp .L174
 2122               	.LVL152:
 2123               	.L251:
 2124               	.LM303:
 2125 0a3e 8330      		cpi r24,lo8(3)
 2126 0a40 01F4      		brne .L253
 2127 0a42 00C0      		rjmp .L175
 2128               	.LVL153:
 2129               	.L177:
 2130               	.LM304:
 2131 0a44 9498      		cbi 50-0x20,4
 2132               	.LM305:
 2133 0a46 9598      		cbi 50-0x20,5
 2134               	.LM306:
 2135 0a48 D998      		cbi 59-0x20,1
 2136               	.LM307:
 2137 0a4a DA98      		cbi 59-0x20,2
 2138               	.LM308:
 2139 0a4c DB98      		cbi 59-0x20,3
 2140               	.LM309:
 2141 0a4e DC98      		cbi 59-0x20,4
 2142               	.LM310:
 2143 0a50 8C91      		ld r24,X
 2144 0a52 90E0      		ldi r25,lo8(0)
 2145 0a54 022E      		mov r0,r18
 2146 0a56 00C0      		rjmp 2f
 2147 0a58 9595      	1:	asr r25
 2148 0a5a 8795      		ror r24
 2149 0a5c 0A94      	2:	dec r0
 2150 0a5e 02F4      		brpl 1b
 2151 0a60 80FD      		sbrc r24,0
 2152               	.LM311:
 2153 0a62 DB9A      		sbi 59-0x20,3
 2154               	.L178:
 2155               	.LM312:
 2156 0a64 8081      		ld r24,Z
 2157 0a66 90E0      		ldi r25,lo8(0)
 2158 0a68 022E      		mov r0,r18
 2159 0a6a 00C0      		rjmp 2f
 2160 0a6c 9595      	1:	asr r25
 2161 0a6e 8795      		ror r24
 2162 0a70 0A94      	2:	dec r0
 2163 0a72 02F4      		brpl 1b
 2164 0a74 80FD      		sbrc r24,0
 2165               	.LM313:
 2166 0a76 DC9A      		sbi 59-0x20,4
 2167               	.L180:
 2168               	.LM314:
 2169 0a78 9398      		cbi 50-0x20,3
 2170               	.LM315:
 2171 0a7a 939A      		sbi 50-0x20,3
 2172 0a7c 2150      		subi r18,lo8(-(-1))
 2173 0a7e 3040      		sbci r19,hi8(-(-1))
 2174               	.LM316:
 2175 0a80 8FEF      		ldi r24,hi8(-1)
 2176 0a82 2F3F      		cpi r18,lo8(-1)
 2177 0a84 3807      		cpc r19,r24
 2178 0a86 01F4      		brne .L177
 2179               	.LM317:
 2180 0a88 4F5F      		subi r20,lo8(-(1))
 2181 0a8a 4830      		cpi r20,lo8(8)
 2182 0a8c 01F4      		brne .+2
 2183 0a8e 00C0      		rjmp .L152
 2184               	.LM318:
 2185 0a90 1196      		adiw r26,1
 2186               	.LM319:
 2187 0a92 3196      		adiw r30,1
 2188 0a94 00C0      		rjmp .L184
 2189               	.LVL154:
 2190               	.L253:
 2191               	.LM320:
 2192 0a96 8430      		cpi r24,lo8(4)
 2193 0a98 01F4      		brne .L255
 2194 0a9a 00C0      		rjmp .L185
 2195               	.LVL155:
 2196               	.L187:
 2197               	.LM321:
 2198 0a9c 9498      		cbi 50-0x20,4
 2199               	.LM322:
 2200 0a9e 9598      		cbi 50-0x20,5
 2201               	.LM323:
 2202 0aa0 D998      		cbi 59-0x20,1
 2203               	.LM324:
 2204 0aa2 DA98      		cbi 59-0x20,2
 2205               	.LM325:
 2206 0aa4 DB98      		cbi 59-0x20,3
 2207               	.LM326:
 2208 0aa6 DC98      		cbi 59-0x20,4
 2209               	.LM327:
 2210 0aa8 8C91      		ld r24,X
 2211 0aaa 90E0      		ldi r25,lo8(0)
 2212 0aac 022E      		mov r0,r18
 2213 0aae 00C0      		rjmp 2f
 2214 0ab0 9595      	1:	asr r25
 2215 0ab2 8795      		ror r24
 2216 0ab4 0A94      	2:	dec r0
 2217 0ab6 02F4      		brpl 1b
 2218 0ab8 80FF      		sbrs r24,0
 2219 0aba 00C0      		rjmp .L188
 2220               	.LM328:
 2221 0abc D99A      		sbi 59-0x20,1
 2222               	.LM329:
 2223 0abe DB9A      		sbi 59-0x20,3
 2224               	.L188:
 2225               	.LM330:
 2226 0ac0 8081      		ld r24,Z
 2227 0ac2 90E0      		ldi r25,lo8(0)
 2228 0ac4 022E      		mov r0,r18
 2229 0ac6 00C0      		rjmp 2f
 2230 0ac8 9595      	1:	asr r25
 2231 0aca 8795      		ror r24
 2232 0acc 0A94      	2:	dec r0
 2233 0ace 02F4      		brpl 1b
 2234 0ad0 80FF      		sbrs r24,0
 2235 0ad2 00C0      		rjmp .L190
 2236               	.LM331:
 2237 0ad4 DA9A      		sbi 59-0x20,2
 2238               	.LM332:
 2239 0ad6 DC9A      		sbi 59-0x20,4
 2240               	.L190:
 2241               	.LM333:
 2242 0ad8 9398      		cbi 50-0x20,3
 2243               	.LM334:
 2244 0ada 939A      		sbi 50-0x20,3
 2245 0adc 2150      		subi r18,lo8(-(-1))
 2246 0ade 3040      		sbci r19,hi8(-(-1))
 2247               	.LM335:
 2248 0ae0 8FEF      		ldi r24,hi8(-1)
 2249 0ae2 2F3F      		cpi r18,lo8(-1)
 2250 0ae4 3807      		cpc r19,r24
 2251 0ae6 01F4      		brne .L187
 2252               	.LM336:
 2253 0ae8 4F5F      		subi r20,lo8(-(1))
 2254 0aea 4830      		cpi r20,lo8(8)
 2255 0aec 01F4      		brne .+2
 2256 0aee 00C0      		rjmp .L152
 2257               	.LM337:
 2258 0af0 1196      		adiw r26,1
 2259               	.LM338:
 2260 0af2 3196      		adiw r30,1
 2261 0af4 00C0      		rjmp .L194
 2262               	.LVL156:
 2263               	.L255:
 2264               	.LM339:
 2265 0af6 8530      		cpi r24,lo8(5)
 2266 0af8 01F4      		brne .L257
 2267 0afa 00C0      		rjmp .L195
 2268               	.LVL157:
 2269               	.L197:
 2270               	.LM340:
 2271 0afc 9498      		cbi 50-0x20,4
 2272               	.LM341:
 2273 0afe 9598      		cbi 50-0x20,5
 2274               	.LM342:
 2275 0b00 D998      		cbi 59-0x20,1
 2276               	.LM343:
 2277 0b02 DA98      		cbi 59-0x20,2
 2278               	.LM344:
 2279 0b04 DB98      		cbi 59-0x20,3
 2280               	.LM345:
 2281 0b06 DC98      		cbi 59-0x20,4
 2282               	.LM346:
 2283 0b08 8C91      		ld r24,X
 2284 0b0a 90E0      		ldi r25,lo8(0)
 2285 0b0c 022E      		mov r0,r18
 2286 0b0e 00C0      		rjmp 2f
 2287 0b10 9595      	1:	asr r25
 2288 0b12 8795      		ror r24
 2289 0b14 0A94      	2:	dec r0
 2290 0b16 02F4      		brpl 1b
 2291 0b18 80FF      		sbrs r24,0
 2292 0b1a 00C0      		rjmp .L198
 2293               	.LM347:
 2294 0b1c 949A      		sbi 50-0x20,4
 2295               	.LM348:
 2296 0b1e DB9A      		sbi 59-0x20,3
 2297               	.L198:
 2298               	.LM349:
 2299 0b20 8081      		ld r24,Z
 2300 0b22 90E0      		ldi r25,lo8(0)
 2301 0b24 022E      		mov r0,r18
 2302 0b26 00C0      		rjmp 2f
 2303 0b28 9595      	1:	asr r25
 2304 0b2a 8795      		ror r24
 2305 0b2c 0A94      	2:	dec r0
 2306 0b2e 02F4      		brpl 1b
 2307 0b30 80FF      		sbrs r24,0
 2308 0b32 00C0      		rjmp .L200
 2309               	.LM350:
 2310 0b34 959A      		sbi 50-0x20,5
 2311               	.LM351:
 2312 0b36 DC9A      		sbi 59-0x20,4
 2313               	.L200:
 2314               	.LM352:
 2315 0b38 9398      		cbi 50-0x20,3
 2316               	.LM353:
 2317 0b3a 939A      		sbi 50-0x20,3
 2318 0b3c 2150      		subi r18,lo8(-(-1))
 2319 0b3e 3040      		sbci r19,hi8(-(-1))
 2320               	.LM354:
 2321 0b40 8FEF      		ldi r24,hi8(-1)
 2322 0b42 2F3F      		cpi r18,lo8(-1)
 2323 0b44 3807      		cpc r19,r24
 2324 0b46 01F4      		brne .L197
 2325               	.LM355:
 2326 0b48 4F5F      		subi r20,lo8(-(1))
 2327 0b4a 4830      		cpi r20,lo8(8)
 2328 0b4c 01F0      		breq .L152
 2329               	.LM356:
 2330 0b4e 1196      		adiw r26,1
 2331               	.LM357:
 2332 0b50 3196      		adiw r30,1
 2333 0b52 00C0      		rjmp .L204
 2334               	.LVL158:
 2335               	.L257:
 2336               	.LM358:
 2337 0b54 8630      		cpi r24,lo8(6)
 2338 0b56 01F4      		brne .L152
 2339 0b58 00C0      		rjmp .L205
 2340               	.LVL159:
 2341               	.L206:
 2342               	.LM359:
 2343 0b5a 9498      		cbi 50-0x20,4
 2344               	.LM360:
 2345 0b5c 9598      		cbi 50-0x20,5
 2346               	.LM361:
 2347 0b5e D998      		cbi 59-0x20,1
 2348               	.LM362:
 2349 0b60 DA98      		cbi 59-0x20,2
 2350               	.LM363:
 2351 0b62 DB98      		cbi 59-0x20,3
 2352               	.LM364:
 2353 0b64 DC98      		cbi 59-0x20,4
 2354               	.LM365:
 2355 0b66 8C91      		ld r24,X
 2356 0b68 90E0      		ldi r25,lo8(0)
 2357 0b6a 022E      		mov r0,r18
 2358 0b6c 00C0      		rjmp 2f
 2359 0b6e 9595      	1:	asr r25
 2360 0b70 8795      		ror r24
 2361 0b72 0A94      	2:	dec r0
 2362 0b74 02F4      		brpl 1b
 2363 0b76 80FF      		sbrs r24,0
 2364 0b78 00C0      		rjmp .L207
 2365               	.LM366:
 2366 0b7a 949A      		sbi 50-0x20,4
 2367               	.LM367:
 2368 0b7c D99A      		sbi 59-0x20,1
 2369               	.LM368:
 2370 0b7e DB9A      		sbi 59-0x20,3
 2371               	.L207:
 2372               	.LM369:
 2373 0b80 8081      		ld r24,Z
 2374 0b82 90E0      		ldi r25,lo8(0)
 2375 0b84 022E      		mov r0,r18
 2376 0b86 00C0      		rjmp 2f
 2377 0b88 9595      	1:	asr r25
 2378 0b8a 8795      		ror r24
 2379 0b8c 0A94      	2:	dec r0
 2380 0b8e 02F4      		brpl 1b
 2381 0b90 80FF      		sbrs r24,0
 2382 0b92 00C0      		rjmp .L209
 2383               	.LM370:
 2384 0b94 959A      		sbi 50-0x20,5
 2385               	.LM371:
 2386 0b96 DA9A      		sbi 59-0x20,2
 2387               	.LM372:
 2388 0b98 DC9A      		sbi 59-0x20,4
 2389               	.L209:
 2390               	.LM373:
 2391 0b9a 9398      		cbi 50-0x20,3
 2392               	.LM374:
 2393 0b9c 939A      		sbi 50-0x20,3
 2394 0b9e 2150      		subi r18,lo8(-(-1))
 2395 0ba0 3040      		sbci r19,hi8(-(-1))
 2396               	.LM375:
 2397 0ba2 8FEF      		ldi r24,hi8(-1)
 2398 0ba4 2F3F      		cpi r18,lo8(-1)
 2399 0ba6 3807      		cpc r19,r24
 2400 0ba8 01F4      		brne .L206
 2401               	.LM376:
 2402 0baa 4F5F      		subi r20,lo8(-(1))
 2403 0bac 4830      		cpi r20,lo8(8)
 2404 0bae 01F0      		breq .L152
 2405               	.LM377:
 2406 0bb0 1196      		adiw r26,1
 2407               	.LM378:
 2408 0bb2 3196      		adiw r30,1
 2409 0bb4 00C0      		rjmp .L213
 2410               	.L152:
 2411               	.LM379:
 2412 0bb6 929A      		sbi 50-0x20,2
 2413               	.LM380:
 2414 0bb8 8091 0000 		lds r24,display_cnt
 2415 0bbc 8730      		cpi r24,lo8(7)
 2416 0bbe 01F0      		breq .L222
 2417 0bc0 8830      		cpi r24,lo8(8)
 2418 0bc2 00F4      		brsh .L231
 2419 0bc4 8330      		cpi r24,lo8(3)
 2420 0bc6 01F0      		breq .L218
 2421 0bc8 8430      		cpi r24,lo8(4)
 2422 0bca 00F4      		brsh .L232
 2423 0bcc 8130      		cpi r24,lo8(1)
 2424 0bce 01F0      		breq .L216
 2425 0bd0 8230      		cpi r24,lo8(2)
 2426 0bd2 00F4      		brsh .L217
 2427 0bd4 00C0      		rjmp .L260
 2428               	.L232:
 2429 0bd6 8530      		cpi r24,lo8(5)
 2430 0bd8 01F0      		breq .L220
 2431 0bda 8630      		cpi r24,lo8(6)
 2432 0bdc 00F4      		brsh .L221
 2433 0bde 00C0      		rjmp .L261
 2434               	.L231:
 2435 0be0 8B30      		cpi r24,lo8(11)
 2436 0be2 01F0      		breq .L226
 2437 0be4 8C30      		cpi r24,lo8(12)
 2438 0be6 00F4      		brsh .L233
 2439 0be8 8930      		cpi r24,lo8(9)
 2440 0bea 01F0      		breq .L224
 2441 0bec 8A30      		cpi r24,lo8(10)
 2442 0bee 00F4      		brsh .L225
 2443 0bf0 00C0      		rjmp .L262
 2444               	.L233:
 2445 0bf2 8D30      		cpi r24,lo8(13)
 2446 0bf4 01F0      		breq .L228
 2447 0bf6 8D30      		cpi r24,lo8(13)
 2448 0bf8 00F0      		brlo .L227
 2449 0bfa 8E30      		cpi r24,lo8(14)
 2450 0bfc 01F0      		breq .L229
 2451 0bfe 8F30      		cpi r24,lo8(15)
 2452 0c00 01F4      		brne .L263
 2453 0c02 00C0      		rjmp .L230
 2454               	.L260:
 2455               	.LM381:
 2456 0c04 C498      		cbi 56-0x20,4
 2457 0c06 00C0      		rjmp .L268
 2458               	.L216:
 2459               	.LM382:
 2460 0c08 C498      		cbi 56-0x20,4
 2461 0c0a 00C0      		rjmp .L274
 2462               	.L217:
 2463               	.LM383:
 2464 0c0c C498      		cbi 56-0x20,4
 2465               	.L273:
 2466 0c0e C298      		cbi 56-0x20,2
 2467               	.L267:
 2468 0c10 C19A      		sbi 56-0x20,1
 2469               	.L264:
 2470 0c12 C098      		cbi 56-0x20,0
 2471 0c14 00C0      		rjmp .L234
 2472               	.L218:
 2473               	.LM384:
 2474 0c16 C498      		cbi 56-0x20,4
 2475 0c18 00C0      		rjmp .L276
 2476               	.L261:
 2477               	.LM385:
 2478 0c1a C498      		cbi 56-0x20,4
 2479 0c1c 00C0      		rjmp .L269
 2480               	.L220:
 2481               	.LM386:
 2482 0c1e C498      		cbi 56-0x20,4
 2483 0c20 00C0      		rjmp .L275
 2484               	.L221:
 2485               	.LM387:
 2486 0c22 C498      		cbi 56-0x20,4
 2487 0c24 00C0      		rjmp .L272
 2488               	.L222:
 2489               	.LM388:
 2490 0c26 C498      		cbi 56-0x20,4
 2491 0c28 00C0      		rjmp .L277
 2492               	.L262:
 2493               	.LM389:
 2494 0c2a C49A      		sbi 56-0x20,4
 2495               	.L268:
 2496 0c2c C298      		cbi 56-0x20,2
 2497 0c2e 00C0      		rjmp .L266
 2498               	.L224:
 2499               	.LM390:
 2500 0c30 C49A      		sbi 56-0x20,4
 2501               	.L274:
 2502 0c32 C298      		cbi 56-0x20,2
 2503 0c34 00C0      		rjmp .L270
 2504               	.L225:
 2505               	.LM391:
 2506 0c36 C49A      		sbi 56-0x20,4
 2507 0c38 00C0      		rjmp .L273
 2508               	.L226:
 2509               	.LM392:
 2510 0c3a C49A      		sbi 56-0x20,4
 2511               	.L276:
 2512 0c3c C298      		cbi 56-0x20,2
 2513 0c3e 00C0      		rjmp .L271
 2514               	.L227:
 2515               	.LM393:
 2516 0c40 C49A      		sbi 56-0x20,4
 2517               	.L269:
 2518 0c42 C29A      		sbi 56-0x20,2
 2519               	.L266:
 2520 0c44 C198      		cbi 56-0x20,1
 2521 0c46 00C0      		rjmp .L264
 2522               	.L228:
 2523               	.LM394:
 2524 0c48 C49A      		sbi 56-0x20,4
 2525               	.L275:
 2526 0c4a C29A      		sbi 56-0x20,2
 2527               	.L270:
 2528 0c4c C198      		cbi 56-0x20,1
 2529 0c4e 00C0      		rjmp .L265
 2530               	.L229:
 2531               	.LM395:
 2532 0c50 C49A      		sbi 56-0x20,4
 2533               	.L272:
 2534 0c52 C29A      		sbi 56-0x20,2
 2535 0c54 00C0      		rjmp .L267
 2536               	.L230:
 2537               	.LM396:
 2538 0c56 C49A      		sbi 56-0x20,4
 2539               	.L277:
 2540 0c58 C29A      		sbi 56-0x20,2
 2541               	.L271:
 2542 0c5a C19A      		sbi 56-0x20,1
 2543               	.L265:
 2544 0c5c C09A      		sbi 56-0x20,0
 2545 0c5e 00C0      		rjmp .L234
 2546               	.L263:
 2547               	.LM397:
 2548 0c60 1092 0000 		sts display_cnt,__zero_reg__
 2549               	.L234:
 2550               	.LM398:
 2551 0c64 8091 0000 		lds r24,display_cnt
 2552 0c68 8F5F      		subi r24,lo8(-(1))
 2553 0c6a 8093 0000 		sts display_cnt,r24
 2554               	.LM399:
 2555 0c6e 8091 0000 		lds r24,display_cnt
 2556 0c72 8031      		cpi r24,lo8(16)
 2557 0c74 01F4      		brne .L237
 2558 0c76 1092 0000 		sts display_cnt,__zero_reg__
 2559 0c7a 00C0      		rjmp .L237
 2560               	.LVL160:
 2561               	.L144:
 2562               	.LM400:
 2563 0c7c 40E0      		ldi r20,lo8(0)
 2564               	.LVL161:
 2565               	.L154:
 2566 0c7e 27E0      		ldi r18,lo8(7)
 2567 0c80 30E0      		ldi r19,hi8(7)
 2568 0c82 00C0      		rjmp .L146
 2569               	.LVL162:
 2570               	.L155:
 2571 0c84 40E0      		ldi r20,lo8(0)
 2572               	.LVL163:
 2573               	.L164:
 2574 0c86 27E0      		ldi r18,lo8(7)
 2575 0c88 30E0      		ldi r19,hi8(7)
 2576 0c8a 00C0      		rjmp .L157
 2577               	.LVL164:
 2578               	.L165:
 2579 0c8c 40E0      		ldi r20,lo8(0)
 2580               	.LVL165:
 2581               	.L174:
 2582 0c8e 27E0      		ldi r18,lo8(7)
 2583 0c90 30E0      		ldi r19,hi8(7)
 2584 0c92 00C0      		rjmp .L167
 2585               	.LVL166:
 2586               	.L175:
 2587 0c94 40E0      		ldi r20,lo8(0)
 2588               	.LVL167:
 2589               	.L184:
 2590 0c96 27E0      		ldi r18,lo8(7)
 2591 0c98 30E0      		ldi r19,hi8(7)
 2592 0c9a 00C0      		rjmp .L177
 2593               	.LVL168:
 2594               	.L185:
 2595 0c9c 40E0      		ldi r20,lo8(0)
 2596               	.LVL169:
 2597               	.L194:
 2598 0c9e 27E0      		ldi r18,lo8(7)
 2599 0ca0 30E0      		ldi r19,hi8(7)
 2600 0ca2 00C0      		rjmp .L187
 2601               	.LVL170:
 2602               	.L195:
 2603 0ca4 40E0      		ldi r20,lo8(0)
 2604               	.LVL171:
 2605               	.L204:
 2606 0ca6 27E0      		ldi r18,lo8(7)
 2607 0ca8 30E0      		ldi r19,hi8(7)
 2608 0caa 00C0      		rjmp .L197
 2609               	.LVL172:
 2610               	.L205:
 2611 0cac 40E0      		ldi r20,lo8(0)
 2612               	.LVL173:
 2613               	.L213:
 2614 0cae 27E0      		ldi r18,lo8(7)
 2615 0cb0 30E0      		ldi r19,hi8(7)
 2616 0cb2 00C0      		rjmp .L206
 2617               	.L237:
 2618               	/* epilogue: frame size=0 */
 2619 0cb4 DF91      		pop r29
 2620 0cb6 CF91      		pop r28
 2621 0cb8 0895      		ret
 2622               	/* epilogue end (size=3) */
 2623               	/* function display size 623 (618) */
 2624               	.LFE44:
 2626               	.global	twi_init
 2628               	twi_init:
 2629               	.LFB46:
 2630               	.LM401:
 2631               	/* prologue: frame size=0 */
 2632               	/* prologue end (size=0) */
 2633               	.LM402:
 2634 0cba 16BE      		out 86-0x20,__zero_reg__
 2635               	.LM403:
 2636 0cbc 84E6      		ldi r24,lo8(100)
 2637 0cbe 80B9      		out 32-0x20,r24
 2638               	.LM404:
 2639 0cc0 11B8      		out 33-0x20,__zero_reg__
 2640               	.LM405:
 2641 0cc2 12B8      		out 34-0x20,__zero_reg__
 2642               	.LM406:
 2643 0cc4 84E0      		ldi r24,lo8(4)
 2644 0cc6 86BF      		out 86-0x20,r24
 2645               	/* epilogue: frame size=0 */
 2646 0cc8 0895      		ret
 2647               	/* epilogue end (size=1) */
 2648               	/* function twi_init size 8 (7) */
 2649               	.LFE46:
 2651               	.global	i2cstart
 2653               	i2cstart:
 2654               	.LFB47:
 2655               	.LM407:
 2656               	/* prologue: frame size=0 */
 2657               	/* prologue end (size=0) */
 2658               	.LM408:
 2659 0cca 84EA      		ldi r24,lo8(-92)
 2660 0ccc 86BF      		out 86-0x20,r24
 2661               	.L281:
 2662               	.LM409:
 2663 0cce 06B6      		in __tmp_reg__,86-0x20
 2664 0cd0 07FE      		sbrs __tmp_reg__,7
 2665 0cd2 00C0      		rjmp .L281
 2666               	/* epilogue: frame size=0 */
 2667 0cd4 0895      		ret
 2668               	/* epilogue end (size=1) */
 2669               	/* function i2cstart size 6 (5) */
 2670               	.LFE47:
 2672               	.global	i2cwt
 2674               	i2cwt:
 2675               	.LFB48:
 2676               	.LM410:
 2677               	/* prologue: frame size=0 */
 2678               	/* prologue end (size=0) */
 2679               	.LVL174:
 2680               	.LM411:
 2681 0cd6 83B9      		out 35-0x20,r24
 2682               	.LM412:
 2683 0cd8 84E8      		ldi r24,lo8(-124)
 2684               	.LVL175:
 2685 0cda 86BF      		out 86-0x20,r24
 2686               	.L287:
 2687               	.LM413:
 2688 0cdc 06B6      		in __tmp_reg__,86-0x20
 2689 0cde 07FE      		sbrs __tmp_reg__,7
 2690 0ce0 00C0      		rjmp .L287
 2691               	.LM414:
 2692               	/* #APP */
 2693 0ce2 0000      		nop
 2694               	.LM415:
 2695               	/* #NOAPP */
 2696 0ce4 81B1      		in r24,33-0x20
 2697 0ce6 90E0      		ldi r25,lo8(0)
 2698               	.LM416:
 2699 0ce8 887F      		andi r24,lo8(248)
 2700 0cea 9070      		andi r25,hi8(248)
 2701               	/* epilogue: frame size=0 */
 2702 0cec 0895      		ret
 2703               	/* epilogue end (size=1) */
 2704               	/* function i2cwt size 13 (12) */
 2705               	.LFE48:
 2707               	.global	i2crd
 2709               	i2crd:
 2710               	.LFB49:
 2711               	.LM417:
 2712               	/* prologue: frame size=0 */
 2713               	/* prologue end (size=0) */
 2714               	.LM418:
 2715 0cee 84EC      		ldi r24,lo8(-60)
 2716 0cf0 86BF      		out 86-0x20,r24
 2717               	.L293:
 2718               	.LM419:
 2719 0cf2 06B6      		in __tmp_reg__,86-0x20
 2720 0cf4 07FE      		sbrs __tmp_reg__,7
 2721 0cf6 00C0      		rjmp .L293
 2722               	.LM420:
 2723 0cf8 83B1      		in r24,35-0x20
 2724               	.LM421:
 2725 0cfa 90E0      		ldi r25,lo8(0)
 2726               	/* epilogue: frame size=0 */
 2727 0cfc 0895      		ret
 2728               	/* epilogue end (size=1) */
 2729               	/* function i2crd size 8 (7) */
 2730               	.LFE49:
 2732               	.global	i2cstop
 2734               	i2cstop:
 2735               	.LFB50:
 2736               	.LM422:
 2737               	/* prologue: frame size=0 */
 2738               	/* prologue end (size=0) */
 2739               	.LM423:
 2740 0cfe 84E9      		ldi r24,lo8(-108)
 2741 0d00 86BF      		out 86-0x20,r24
 2742               	/* epilogue: frame size=0 */
 2743 0d02 0895      		ret
 2744               	/* epilogue end (size=1) */
 2745               	/* function i2cstop size 3 (2) */
 2746               	.LFE50:
 2748               	.global	clear
 2750               	clear:
 2751               	.LFB51:
 2752               	.LM424:
 2753               	/* prologue: frame size=0 */
 2754               	/* prologue end (size=0) */
 2755               	.LVL176:
 2756 0d04 FC01      		movw r30,r24
 2757 0d06 00C0      		rjmp .L301
 2758               	.LVL177:
 2759               	.L302:
 2760               	.LM425:
 2761 0d08 1192      		st Z+,__zero_reg__
 2762               	.LM426:
 2763 0d0a 6150      		subi r22,lo8(-(-1))
 2764               	.LVL178:
 2765               	.L301:
 2766 0d0c 6623      		tst r22
 2767 0d0e 01F4      		brne .L302
 2768               	/* epilogue: frame size=0 */
 2769 0d10 0895      		ret
 2770               	/* epilogue end (size=1) */
 2771               	/* function clear size 7 (6) */
 2772               	.LFE51:
 2774               	.global	PCF8536_wt
 2776               	PCF8536_wt:
 2777               	.LFB52:
 2778               	.LM427:
 2779               	/* prologue: frame size=0 */
 2780 0d12 1F93      		push r17
 2781 0d14 CF93      		push r28
 2782 0d16 DF93      		push r29
 2783               	/* prologue end (size=3) */
 2784               	.LVL179:
 2785 0d18 EC01      		movw r28,r24
 2786 0d1a 162F      		mov r17,r22
 2787               	.LBB180:
 2788               	.LBB181:
 2789               	.LM428:
 2790 0d1c 84EA      		ldi r24,lo8(-92)
 2791               	.LVL180:
 2792 0d1e 86BF      		out 86-0x20,r24
 2793               	.LVL181:
 2794               	.L306:
 2795               	.LM429:
 2796 0d20 06B6      		in __tmp_reg__,86-0x20
 2797 0d22 07FE      		sbrs __tmp_reg__,7
 2798 0d24 00C0      		rjmp .L306
 2799               	.LBE181:
 2800               	.LBE180:
 2801               	.LM430:
 2802 0d26 8D2F      		mov r24,r29
 2803 0d28 9927      		clr r25
 2804               	.LM431:
 2805 0d2a 880F      		lsl r24
 2806 0d2c 8E55      		subi r24,lo8(-(-94))
 2807 0d2e 0E94 0000 		call i2cwt
 2808 0d32 8831      		cpi r24,lo8(24)
 2809 0d34 01F4      		brne .L308
 2810               	.LM432:
 2811 0d36 8C2F      		mov r24,r28
 2812 0d38 0E94 0000 		call i2cwt
 2813               	.LM433:
 2814 0d3c 812F      		mov r24,r17
 2815 0d3e 0E94 0000 		call i2cwt
 2816 0d42 00C0      		rjmp .L310
 2817               	.L308:
 2818               	.LM434:
 2819 0d44 81E0      		ldi r24,lo8(1)
 2820 0d46 8093 0000 		sts syserr,r24
 2821               	.L310:
 2822               	.LBB182:
 2823               	.LBB183:
 2824               	.LM435:
 2825 0d4a 84E9      		ldi r24,lo8(-108)
 2826 0d4c 86BF      		out 86-0x20,r24
 2827               	.LBE183:
 2828               	.LBE182:
 2829               	/* epilogue: frame size=0 */
 2830 0d4e DF91      		pop r29
 2831 0d50 CF91      		pop r28
 2832 0d52 1F91      		pop r17
 2833 0d54 0895      		ret
 2834               	/* epilogue end (size=4) */
 2835               	/* function PCF8536_wt size 34 (27) */
 2836               	.LFE52:
 2838               	.global	PCF8536_wt_p
 2840               	PCF8536_wt_p:
 2841               	.LFB53:
 2842               	.LM436:
 2843               	/* prologue: frame size=0 */
 2844 0d56 EF92      		push r14
 2845 0d58 FF92      		push r15
 2846 0d5a 1F93      		push r17
 2847 0d5c CF93      		push r28
 2848 0d5e DF93      		push r29
 2849               	/* prologue end (size=5) */
 2850               	.LVL182:
 2851 0d60 EC01      		movw r28,r24
 2852 0d62 7B01      		movw r14,r22
 2853 0d64 142F      		mov r17,r20
 2854               	.LBB184:
 2855               	.LBB185:
 2856               	.LM437:
 2857 0d66 84EA      		ldi r24,lo8(-92)
 2858               	.LVL183:
 2859 0d68 86BF      		out 86-0x20,r24
 2860               	.LVL184:
 2861               	.L315:
 2862               	.LM438:
 2863 0d6a 06B6      		in __tmp_reg__,86-0x20
 2864 0d6c 07FE      		sbrs __tmp_reg__,7
 2865 0d6e 00C0      		rjmp .L315
 2866               	.LBE185:
 2867               	.LBE184:
 2868               	.LM439:
 2869 0d70 8D2F      		mov r24,r29
 2870 0d72 9927      		clr r25
 2871               	.LM440:
 2872 0d74 880F      		lsl r24
 2873 0d76 8E55      		subi r24,lo8(-(-94))
 2874 0d78 0E94 0000 		call i2cwt
 2875 0d7c 8831      		cpi r24,lo8(24)
 2876 0d7e 01F4      		brne .L317
 2877               	.LM441:
 2878 0d80 8C2F      		mov r24,r28
 2879 0d82 0E94 0000 		call i2cwt
 2880 0d86 00C0      		rjmp .L319
 2881               	.L320:
 2882               	.LM442:
 2883 0d88 F701      		movw r30,r14
 2884 0d8a 8191      		ld r24,Z+
 2885 0d8c 7F01      		movw r14,r30
 2886 0d8e 0E94 0000 		call i2cwt
 2887               	.LM443:
 2888               	/* #APP */
 2889 0d92 0000      		nop
 2890               	.LM444:
 2891               	/* #NOAPP */
 2892 0d94 1150      		subi r17,lo8(-(-1))
 2893               	.L319:
 2894 0d96 1123      		tst r17
 2895 0d98 01F4      		brne .L320
 2896 0d9a 00C0      		rjmp .L321
 2897               	.L317:
 2898               	.LM445:
 2899 0d9c 81E0      		ldi r24,lo8(1)
 2900 0d9e 8093 0000 		sts syserr,r24
 2901               	.L321:
 2902               	.LBB186:
 2903               	.LBB187:
 2904               	.LM446:
 2905 0da2 84E9      		ldi r24,lo8(-108)
 2906 0da4 86BF      		out 86-0x20,r24
 2907               	.LBE187:
 2908               	.LBE186:
 2909               	/* epilogue: frame size=0 */
 2910 0da6 DF91      		pop r29
 2911 0da8 CF91      		pop r28
 2912 0daa 1F91      		pop r17
 2913 0dac FF90      		pop r15
 2914 0dae EF90      		pop r14
 2915 0db0 0895      		ret
 2916               	/* epilogue end (size=6) */
 2917               	/* function PCF8536_wt_p size 47 (36) */
 2918               	.LFE53:
 2920               	.global	PCF8536_rd
 2922               	PCF8536_rd:
 2923               	.LFB54:
 2924               	.LM447:
 2925               	/* prologue: frame size=0 */
 2926 0db2 EF92      		push r14
 2927 0db4 FF92      		push r15
 2928 0db6 0F93      		push r16
 2929 0db8 1F93      		push r17
 2930 0dba CF93      		push r28
 2931 0dbc DF93      		push r29
 2932               	/* prologue end (size=6) */
 2933               	.LVL185:
 2934 0dbe EC01      		movw r28,r24
 2935 0dc0 7B01      		movw r14,r22
 2936 0dc2 142F      		mov r17,r20
 2937               	.LM448:
 2938 0dc4 892F      		mov r24,r25
 2939 0dc6 9927      		clr r25
 2940               	.LVL186:
 2941               	.LM449:
 2942 0dc8 082F      		mov r16,r24
 2943               	.LVL187:
 2944 0dca 000F      		lsl r16
 2945               	.LBB188:
 2946               	.LBB189:
 2947               	.LM450:
 2948 0dcc 84EA      		ldi r24,lo8(-92)
 2949 0dce 86BF      		out 86-0x20,r24
 2950               	.LVL188:
 2951               	.L326:
 2952               	.LM451:
 2953 0dd0 06B6      		in __tmp_reg__,86-0x20
 2954 0dd2 07FE      		sbrs __tmp_reg__,7
 2955 0dd4 00C0      		rjmp .L326
 2956               	.LBE189:
 2957               	.LBE188:
 2958               	.LM452:
 2959 0dd6 802F      		mov r24,r16
 2960 0dd8 8E55      		subi r24,lo8(-(-94))
 2961 0dda 0E94 0000 		call i2cwt
 2962 0dde 8831      		cpi r24,lo8(24)
 2963 0de0 01F4      		brne .L328
 2964               	.LM453:
 2965 0de2 8C2F      		mov r24,r28
 2966 0de4 0E94 0000 		call i2cwt
 2967 0de8 00C0      		rjmp .L330
 2968               	.L328:
 2969               	.LM454:
 2970 0dea 81E0      		ldi r24,lo8(1)
 2971 0dec 8093 0000 		sts syserr,r24
 2972               	.L330:
 2973               	.LBB190:
 2974               	.LBB191:
 2975               	.LM455:
 2976 0df0 84EA      		ldi r24,lo8(-92)
 2977 0df2 86BF      		out 86-0x20,r24
 2978               	.L331:
 2979               	.LM456:
 2980 0df4 06B6      		in __tmp_reg__,86-0x20
 2981 0df6 07FE      		sbrs __tmp_reg__,7
 2982 0df8 00C0      		rjmp .L331
 2983               	.LBE191:
 2984               	.LBE190:
 2985               	.LM457:
 2986 0dfa 802F      		mov r24,r16
 2987 0dfc 8D55      		subi r24,lo8(-(-93))
 2988 0dfe 0E94 0000 		call i2cwt
 2989 0e02 8831      		cpi r24,lo8(24)
 2990 0e04 01F4      		brne .L333
 2991               	.LM458:
 2992 0e06 8C2F      		mov r24,r28
 2993 0e08 0E94 0000 		call i2cwt
 2994 0e0c 00C0      		rjmp .L347
 2995               	.L333:
 2996               	.LM459:
 2997 0e0e 81E0      		ldi r24,lo8(1)
 2998 0e10 8093 0000 		sts syserr,r24
 2999 0e14 00C0      		rjmp .L347
 3000               	.L336:
 3001               	.LBB192:
 3002               	.LBB193:
 3003               	.LM460:
 3004 0e16 84EC      		ldi r24,lo8(-60)
 3005 0e18 86BF      		out 86-0x20,r24
 3006               	.L337:
 3007               	.LM461:
 3008 0e1a 06B6      		in __tmp_reg__,86-0x20
 3009 0e1c 07FE      		sbrs __tmp_reg__,7
 3010 0e1e 00C0      		rjmp .L337
 3011               	.LM462:
 3012 0e20 83B1      		in r24,35-0x20
 3013               	.LBE193:
 3014               	.LBE192:
 3015               	.LM463:
 3016 0e22 F701      		movw r30,r14
 3017 0e24 8193      		st Z+,r24
 3018 0e26 7F01      		movw r14,r30
 3019               	.LM464:
 3020 0e28 1150      		subi r17,lo8(-(-1))
 3021               	.L347:
 3022 0e2a 1123      		tst r17
 3023 0e2c 01F4      		brne .L336
 3024               	/* epilogue: frame size=0 */
 3025 0e2e DF91      		pop r29
 3026 0e30 CF91      		pop r28
 3027 0e32 1F91      		pop r17
 3028 0e34 0F91      		pop r16
 3029 0e36 FF90      		pop r15
 3030 0e38 EF90      		pop r14
 3031 0e3a 0895      		ret
 3032               	/* epilogue end (size=7) */
 3033               	/* function PCF8536_rd size 69 (56) */
 3034               	.LFE54:
 3036               	.global	PCF8563_init
 3038               	PCF8563_init:
 3039               	.LFB55:
 3040               	.LM465:
 3041               	/* prologue: frame size=0 */
 3042               	/* prologue end (size=0) */
 3043               	.LM466:
 3044 0e3c 68E0      		ldi r22,lo8(8)
 3045 0e3e 80E0      		ldi r24,lo8(write_buff)
 3046 0e40 90E0      		ldi r25,hi8(write_buff)
 3047 0e42 0E94 0000 		call clear
 3048               	.LM467:
 3049 0e46 68E0      		ldi r22,lo8(8)
 3050 0e48 80E0      		ldi r24,lo8(read_buff)
 3051 0e4a 90E0      		ldi r25,hi8(read_buff)
 3052 0e4c 0E94 0000 		call clear
 3053               	.LM468:
 3054 0e50 60E2      		ldi r22,lo8(32)
 3055 0e52 80E0      		ldi r24,lo8(0)
 3056 0e54 90E0      		ldi r25,hi8(0)
 3057 0e56 0E94 0000 		call PCF8536_wt
 3058               	.LM469:
 3059 0e5a 60E0      		ldi r22,lo8(0)
 3060 0e5c 80E0      		ldi r24,lo8(0)
 3061 0e5e 90E0      		ldi r25,hi8(0)
 3062 0e60 0E94 0000 		call PCF8536_wt
 3063               	/* epilogue: frame size=0 */
 3064 0e64 0895      		ret
 3065               	/* epilogue end (size=1) */
 3066               	/* function PCF8563_init size 21 (20) */
 3067               	.LFE55:
 3069               	.global	Updata_time
 3071               	Updata_time:
 3072               	.LFB56:
 3073               	.LM470:
 3074               	/* prologue: frame size=0 */
 3075               	/* prologue end (size=0) */
 3076               	.LM471:
 3077 0e66 47E0      		ldi r20,lo8(7)
 3078 0e68 60E0      		ldi r22,lo8(time)
 3079 0e6a 70E0      		ldi r23,hi8(time)
 3080 0e6c 82E0      		ldi r24,lo8(2)
 3081 0e6e 90E0      		ldi r25,hi8(2)
 3082 0e70 0E94 0000 		call PCF8536_rd
 3083               	.LM472:
 3084 0e74 8091 0000 		lds r24,time
 3085 0e78 982F      		mov r25,r24
 3086 0e7a 9F77      		andi r25,lo8(127)
 3087 0e7c 9093 0000 		sts time,r25
 3088               	.LM473:
 3089 0e80 2091 0000 		lds r18,time+1
 3090 0e84 422F      		mov r20,r18
 3091 0e86 4F77      		andi r20,lo8(127)
 3092 0e88 4093 0000 		sts time+1,r20
 3093               	.LM474:
 3094 0e8c 5091 0000 		lds r21,time+2
 3095 0e90 752F      		mov r23,r21
 3096 0e92 7F73      		andi r23,lo8(63)
 3097 0e94 7093 0000 		sts time+2,r23
 3098               	.LM475:
 3099 0e98 E091 0000 		lds r30,time+3
 3100 0e9c AE2F      		mov r26,r30
 3101 0e9e AF73      		andi r26,lo8(63)
 3102 0ea0 A093 0000 		sts time+3,r26
 3103               	.LM476:
 3104 0ea4 F091 0000 		lds r31,time+4
 3105 0ea8 F770      		andi r31,lo8(7)
 3106 0eaa F093 0000 		sts time+4,r31
 3107               	.LM477:
 3108 0eae 3091 0000 		lds r19,time+5
 3109 0eb2 632F      		mov r22,r19
 3110 0eb4 6F71      		andi r22,lo8(31)
 3111 0eb6 6093 0000 		sts time+5,r22
 3112               	.LM478:
 3113 0eba 8F70      		andi r24,lo8(15)
 3114 0ebc 8093 0000 		sts RunParameter+13,r24
 3115               	.LM479:
 3116 0ec0 9295      		swap r25
 3117 0ec2 9F70      		andi r25,lo8(15)
 3118 0ec4 9093 0000 		sts RunParameter+12,r25
 3119               	.LM480:
 3120 0ec8 2F70      		andi r18,lo8(15)
 3121 0eca 2093 0000 		sts RunParameter+11,r18
 3122               	.LM481:
 3123 0ece 4295      		swap r20
 3124 0ed0 4F70      		andi r20,lo8(15)
 3125 0ed2 4093 0000 		sts RunParameter+10,r20
 3126               	.LM482:
 3127 0ed6 5F70      		andi r21,lo8(15)
 3128 0ed8 5093 0000 		sts RunParameter+9,r21
 3129               	.LM483:
 3130 0edc 7295      		swap r23
 3131 0ede 7F70      		andi r23,lo8(15)
 3132 0ee0 7093 0000 		sts RunParameter+8,r23
 3133               	.LM484:
 3134 0ee4 EF70      		andi r30,lo8(15)
 3135 0ee6 E093 0000 		sts RunParameter+7,r30
 3136               	.LM485:
 3137 0eea A295      		swap r26
 3138 0eec AF70      		andi r26,lo8(15)
 3139 0eee A093 0000 		sts RunParameter+6,r26
 3140               	.LM486:
 3141 0ef2 3F70      		andi r19,lo8(15)
 3142 0ef4 3093 0000 		sts RunParameter+5,r19
 3143               	.LM487:
 3144 0ef8 6295      		swap r22
 3145 0efa 6F70      		andi r22,lo8(15)
 3146 0efc 6093 0000 		sts RunParameter+4,r22
 3147               	.LM488:
 3148 0f00 8091 0000 		lds r24,time+6
 3149 0f04 982F      		mov r25,r24
 3150 0f06 9F70      		andi r25,lo8(15)
 3151 0f08 9093 0000 		sts RunParameter+3,r25
 3152               	.LM489:
 3153 0f0c 8295      		swap r24
 3154 0f0e 8F70      		andi r24,lo8(15)
 3155 0f10 8093 0000 		sts RunParameter+2,r24
 3156               	.LM490:
 3157 0f14 FF5F      		subi r31,lo8(-(1))
 3158 0f16 F093 0000 		sts RunParameter+14,r31
 3159               	/* epilogue: frame size=0 */
 3160 0f1a 0895      		ret
 3161               	/* epilogue end (size=1) */
 3162               	/* function Updata_time size 91 (90) */
 3163               	.LFE56:
 3165               	.global	Write_time
 3167               	Write_time:
 3168               	.LFB57:
 3169               	.LM491:
 3170               	/* prologue: frame size=7 */
 3171 0f1c CF93      		push r28
 3172 0f1e DF93      		push r29
 3173 0f20 CDB7      		in r28,__SP_L__
 3174 0f22 DEB7      		in r29,__SP_H__
 3175 0f24 2797      		sbiw r28,7
 3176 0f26 0FB6      		in __tmp_reg__,__SREG__
 3177 0f28 F894      		cli
 3178 0f2a DEBF      		out __SP_H__,r29
 3179 0f2c 0FBE      		out __SREG__,__tmp_reg__
 3180 0f2e CDBF      		out __SP_L__,r28
 3181               	/* prologue end (size=10) */
 3182               	.LM492:
 3183 0f30 6091 0000 		lds r22,RunParameter+10
 3184 0f34 6295      		swap r22
 3185 0f36 607F      		andi r22,lo8(-16)
 3186 0f38 8091 0000 		lds r24,RunParameter+11
 3187 0f3c 682B      		or r22,r24
 3188 0f3e 5091 0000 		lds r21,RunParameter+8
 3189 0f42 5295      		swap r21
 3190 0f44 507F      		andi r21,lo8(-16)
 3191 0f46 8091 0000 		lds r24,RunParameter+9
 3192 0f4a 582B      		or r21,r24
 3193 0f4c 4091 0000 		lds r20,RunParameter+6
 3194 0f50 4295      		swap r20
 3195 0f52 407F      		andi r20,lo8(-16)
 3196 0f54 8091 0000 		lds r24,RunParameter+7
 3197 0f58 482B      		or r20,r24
 3198 0f5a 7091 0000 		lds r23,RunParameter+14
 3199 0f5e 7150      		subi r23,lo8(-(-1))
 3200 0f60 3091 0000 		lds r19,RunParameter+4
 3201 0f64 3295      		swap r19
 3202 0f66 307F      		andi r19,lo8(-16)
 3203 0f68 8091 0000 		lds r24,RunParameter+5
 3204 0f6c 382B      		or r19,r24
 3205 0f6e 2091 0000 		lds r18,RunParameter+2
 3206 0f72 2295      		swap r18
 3207 0f74 207F      		andi r18,lo8(-16)
 3208 0f76 8091 0000 		lds r24,RunParameter+3
 3209 0f7a 282B      		or r18,r24
 3210 0f7c 8091 0000 		lds r24,RunParameter+12
 3211 0f80 8295      		swap r24
 3212 0f82 807F      		andi r24,lo8(-16)
 3213 0f84 9091 0000 		lds r25,RunParameter+13
 3214 0f88 892B      		or r24,r25
 3215 0f8a 8983      		std Y+1,r24
 3216 0f8c 6A83      		std Y+2,r22
 3217 0f8e 5B83      		std Y+3,r21
 3218 0f90 4C83      		std Y+4,r20
 3219 0f92 7D83      		std Y+5,r23
 3220 0f94 3E83      		std Y+6,r19
 3221 0f96 2F83      		std Y+7,r18
 3222               	.LM493:
 3223 0f98 47E0      		ldi r20,lo8(7)
 3224 0f9a BE01      		movw r22,r28
 3225 0f9c 6F5F      		subi r22,lo8(-(1))
 3226 0f9e 7F4F      		sbci r23,hi8(-(1))
 3227 0fa0 82E0      		ldi r24,lo8(2)
 3228 0fa2 90E0      		ldi r25,hi8(2)
 3229 0fa4 0E94 0000 		call PCF8536_wt_p
 3230               	/* epilogue: frame size=7 */
 3231 0fa8 2796      		adiw r28,7
 3232 0faa 0FB6      		in __tmp_reg__,__SREG__
 3233 0fac F894      		cli
 3234 0fae DEBF      		out __SP_H__,r29
 3235 0fb0 0FBE      		out __SREG__,__tmp_reg__
 3236 0fb2 CDBF      		out __SP_L__,r28
 3237 0fb4 DF91      		pop r29
 3238 0fb6 CF91      		pop r28
 3239 0fb8 0895      		ret
 3240               	/* epilogue end (size=9) */
 3241               	/* function Write_time size 79 (60) */
 3242               	.LFE57:
 3244               	.global	AjustTimerMonthly
 3246               	AjustTimerMonthly:
 3247               	.LFB58:
 3248               	.LM494:
 3249               	/* prologue: frame size=0 */
 3250 0fba 1F93      		push r17
 3251               	/* prologue end (size=1) */
 3252               	.LM495:
 3253 0fbc 8091 0000 		lds r24,RunParameter+6
 3254 0fc0 8823      		tst r24
 3255 0fc2 01F0      		breq .+2
 3256 0fc4 00C0      		rjmp .L368
 3257               	.LM496:
 3258 0fc6 1091 0000 		lds r17,RunParameter+7
 3259 0fca 1130      		cpi r17,lo8(1)
 3260 0fcc 01F0      		breq .+2
 3261 0fce 00C0      		rjmp .L368
 3262               	.LM497:
 3263 0fd0 8091 0000 		lds r24,RunParameter+8
 3264 0fd4 8823      		tst r24
 3265 0fd6 01F0      		breq .+2
 3266 0fd8 00C0      		rjmp .L368
 3267 0fda 8091 0000 		lds r24,RunParameter+9
 3268 0fde 8330      		cpi r24,lo8(3)
 3269 0fe0 01F4      		brne .L368
 3270               	.LM498:
 3271 0fe2 8091 0000 		lds r24,RunParameter+10
 3272 0fe6 8330      		cpi r24,lo8(3)
 3273 0fe8 01F4      		brne .L360
 3274 0fea 8091 0000 		lds r24,RunParameter+11
 3275 0fee 8823      		tst r24
 3276 0ff0 01F4      		brne .L368
 3277               	.LM499:
 3278 0ff2 8091 0000 		lds r24,RunParameter+22
 3279 0ff6 9091 0000 		lds r25,RunParameter+25
 3280 0ffa 8823      		tst r24
 3281 0ffc 01F0      		breq .L363
 3282 0ffe 9923      		tst r25
 3283 1000 01F4      		brne .L368
 3284               	.LBB194:
 3285               	.LM500:
 3286 1002 2091 0000 		lds r18,RunParameter+24
 3287               	.LVL189:
 3288 1006 225E      		subi r18,lo8(-(30))
 3289 1008 8091 0000 		lds r24,RunParameter+23
 3290 100c 3AE0      		ldi r19,lo8(10)
 3291 100e 839F      		mul r24,r19
 3292 1010 C001      		movw r24,r0
 3293 1012 1124      		clr r1
 3294 1014 280F      		add r18,r24
 3295 1016 00C0      		rjmp .L369
 3296               	.LVL190:
 3297               	.L363:
 3298               	.LBE194:
 3299               	.LM501:
 3300 1018 9923      		tst r25
 3301 101a 01F4      		brne .L368
 3302               	.LBB195:
 3303               	.LM502:
 3304 101c 8091 0000 		lds r24,RunParameter+23
 3305 1020 2AE0      		ldi r18,lo8(10)
 3306 1022 829F      		mul r24,r18
 3307 1024 C001      		movw r24,r0
 3308 1026 1124      		clr r1
 3309 1028 2EE1      		ldi r18,lo8(30)
 3310               	.LVL191:
 3311 102a 281B      		sub r18,r24
 3312 102c 8091 0000 		lds r24,RunParameter+24
 3313 1030 281B      		sub r18,r24
 3314               	.LVL192:
 3315               	.L369:
 3316               	.LM503:
 3317 1032 822F      		mov r24,r18
 3318 1034 6AE0      		ldi r22,lo8(10)
 3319 1036 0E94 0000 		call __udivmodqi4
 3320 103a 8093 0000 		sts RunParameter+10,r24
 3321               	.LM504:
 3322 103e 822F      		mov r24,r18
 3323 1040 0E94 0000 		call __udivmodqi4
 3324 1044 9093 0000 		sts RunParameter+11,r25
 3325               	.LM505:
 3326 1048 0E94 0000 		call Write_time
 3327               	.LVL193:
 3328               	.LM506:
 3329 104c 1093 0000 		sts RunParameter+25,r17
 3330 1050 00C0      		rjmp .L368
 3331               	.L360:
 3332               	.LBE195:
 3333               	.LM507:
 3334 1052 8530      		cpi r24,lo8(5)
 3335 1054 01F4      		brne .L368
 3336               	.LM508:
 3337 1056 1092 0000 		sts RunParameter+25,__zero_reg__
 3338               	.L368:
 3339               	/* epilogue: frame size=0 */
 3340 105a 1F91      		pop r17
 3341 105c 0895      		ret
 3342               	/* epilogue end (size=2) */
 3343               	/* function AjustTimerMonthly size 82 (79) */
 3344               	.LFE58:
 3346               	.global	Voice_Init
 3348               	Voice_Init:
 3349               	.LFB59:
 3350               	.LM509:
 3351               	/* prologue: frame size=0 */
 3352               	/* prologue end (size=0) */
 3353               	.LM510:
 3354 105e AA9A      		sbi 53-0x20,2
 3355               	.LM511:
 3356 1060 A298      		cbi 52-0x20,2
 3357               	.LM512:
 3358 1062 A39A      		sbi 52-0x20,3
 3359               	.LM513:
 3360 1064 A49A      		sbi 52-0x20,4
 3361               	/* epilogue: frame size=0 */
 3362 1066 0895      		ret
 3363               	/* epilogue end (size=1) */
 3364               	/* function Voice_Init size 5 (4) */
 3365               	.LFE59:
 3367               	.global	SPEEK_Time
 3369               	SPEEK_Time:
 3370               	.LFB60:
 3371               	.LM514:
 3372               	/* prologue: frame size=0 */
 3373               	/* prologue end (size=0) */
 3374               	.LM515:
 3375 1068 9091 0000 		lds r25,SPEEK_TIME_Status
 3376 106c 9B30      		cpi r25,lo8(11)
 3377 106e 01F4      		brne .+2
 3378 1070 00C0      		rjmp .L385
 3379               	.LM516:
 3380 1072 9C30      		cpi r25,lo8(12)
 3381 1074 00F4      		brsh .L397
 3382 1076 9530      		cpi r25,lo8(5)
 3383 1078 01F4      		brne .+2
 3384 107a 00C0      		rjmp .L379
 3385 107c 9630      		cpi r25,lo8(6)
 3386 107e 00F4      		brsh .L398
 3387 1080 9230      		cpi r25,lo8(2)
 3388 1082 01F4      		brne .+2
 3389 1084 00C0      		rjmp .L376
 3390 1086 9330      		cpi r25,lo8(3)
 3391 1088 00F4      		brsh .L399
 3392 108a 9923      		tst r25
 3393 108c 01F4      		brne .+2
 3394 108e 00C0      		rjmp .L374
 3395 1090 9130      		cpi r25,lo8(1)
 3396 1092 01F0      		breq .+2
 3397 1094 00C0      		rjmp .L486
 3398 1096 00C0      		rjmp .L375
 3399               	.L399:
 3400 1098 9330      		cpi r25,lo8(3)
 3401 109a 01F4      		brne .+2
 3402 109c 00C0      		rjmp .L377
 3403 109e 9430      		cpi r25,lo8(4)
 3404 10a0 01F0      		breq .+2
 3405 10a2 00C0      		rjmp .L486
 3406 10a4 00C0      		rjmp .L378
 3407               	.L398:
 3408 10a6 9830      		cpi r25,lo8(8)
 3409 10a8 01F4      		brne .+2
 3410 10aa 00C0      		rjmp .L382
 3411 10ac 9930      		cpi r25,lo8(9)
 3412 10ae 00F4      		brsh .L400
 3413 10b0 9630      		cpi r25,lo8(6)
 3414 10b2 01F4      		brne .+2
 3415 10b4 00C0      		rjmp .L380
 3416 10b6 9730      		cpi r25,lo8(7)
 3417 10b8 01F0      		breq .+2
 3418 10ba 00C0      		rjmp .L486
 3419 10bc 00C0      		rjmp .L381
 3420               	.L400:
 3421 10be 9930      		cpi r25,lo8(9)
 3422 10c0 01F4      		brne .+2
 3423 10c2 00C0      		rjmp .L383
 3424 10c4 9A30      		cpi r25,lo8(10)
 3425 10c6 01F0      		breq .+2
 3426 10c8 00C0      		rjmp .L486
 3427 10ca 00C0      		rjmp .L384
 3428               	.L397:
 3429 10cc 9131      		cpi r25,lo8(17)
 3430 10ce 01F4      		brne .+2
 3431 10d0 00C0      		rjmp .L391
 3432 10d2 9231      		cpi r25,lo8(18)
 3433 10d4 00F4      		brsh .L401
 3434 10d6 9E30      		cpi r25,lo8(14)
 3435 10d8 01F4      		brne .+2
 3436 10da 00C0      		rjmp .L388
 3437 10dc 9F30      		cpi r25,lo8(15)
 3438 10de 00F4      		brsh .L402
 3439 10e0 9C30      		cpi r25,lo8(12)
 3440 10e2 01F4      		brne .+2
 3441 10e4 00C0      		rjmp .L386
 3442 10e6 9D30      		cpi r25,lo8(13)
 3443 10e8 01F0      		breq .+2
 3444 10ea 00C0      		rjmp .L486
 3445 10ec 00C0      		rjmp .L387
 3446               	.L402:
 3447 10ee 9F30      		cpi r25,lo8(15)
 3448 10f0 01F4      		brne .+2
 3449 10f2 00C0      		rjmp .L389
 3450 10f4 9031      		cpi r25,lo8(16)
 3451 10f6 01F0      		breq .+2
 3452 10f8 00C0      		rjmp .L486
 3453 10fa 00C0      		rjmp .L390
 3454               	.L401:
 3455 10fc 9431      		cpi r25,lo8(20)
 3456 10fe 01F4      		brne .+2
 3457 1100 00C0      		rjmp .L394
 3458 1102 9531      		cpi r25,lo8(21)
 3459 1104 00F4      		brsh .L403
 3460 1106 9231      		cpi r25,lo8(18)
 3461 1108 01F4      		brne .+2
 3462 110a 00C0      		rjmp .L392
 3463 110c 9331      		cpi r25,lo8(19)
 3464 110e 01F0      		breq .+2
 3465 1110 00C0      		rjmp .L486
 3466 1112 00C0      		rjmp .L393
 3467               	.L403:
 3468 1114 9436      		cpi r25,lo8(100)
 3469 1116 01F4      		brne .+2
 3470 1118 00C0      		rjmp .L395
 3471 111a 9536      		cpi r25,lo8(101)
 3472 111c 01F0      		breq .+2
 3473 111e 00C0      		rjmp .L486
 3474 1120 00C0      		rjmp .L396
 3475               	.L374:
 3476               	.LM517:
 3477 1122 1092 0000 		sts inVoice,__zero_reg__
 3478 1126 0895      		ret
 3479               	.L375:
 3480               	.LM518:
 3481 1128 89E1      		ldi r24,lo8(25)
 3482 112a 8093 0000 		sts PLUSE_Number,r24
 3483               	.LM519:
 3484 112e 9093 0000 		sts PLUSE_Status,r25
 3485               	.LM520:
 3486 1132 82E0      		ldi r24,lo8(2)
 3487 1134 00C0      		rjmp .L487
 3488               	.L376:
 3489               	.LM521:
 3490 1136 8091 0000 		lds r24,PLUSE_Status
 3491 113a 8823      		tst r24
 3492 113c 01F0      		breq .+2
 3493 113e 00C0      		rjmp .L486
 3494 1140 9A9B      		sbis 51-0x20,2
 3495 1142 00C0      		rjmp .L486
 3496               	.LM522:
 3497 1144 86E1      		ldi r24,lo8(22)
 3498 1146 8093 0000 		sts PLUSE_Number,r24
 3499               	.LM523:
 3500 114a 81E0      		ldi r24,lo8(1)
 3501 114c 8093 0000 		sts PLUSE_Status,r24
 3502               	.LM524:
 3503 1150 83E0      		ldi r24,lo8(3)
 3504               	.LVL194:
 3505               	.L487:
 3506 1152 8093 0000 		sts SPEEK_TIME_Status,r24
 3507 1156 0895      		ret
 3508               	.LVL195:
 3509               	.L377:
 3510               	.LM525:
 3511 1158 8091 0000 		lds r24,PLUSE_Status
 3512 115c 8823      		tst r24
 3513 115e 01F0      		breq .+2
 3514 1160 00C0      		rjmp .L486
 3515 1162 9A9B      		sbis 51-0x20,2
 3516 1164 00C0      		rjmp .L486
 3517               	.LM526:
 3518 1166 8091 0000 		lds r24,RunParameter+8
 3519 116a 2AE0      		ldi r18,lo8(10)
 3520 116c 829F      		mul r24,r18
 3521 116e C001      		movw r24,r0
 3522 1170 1124      		clr r1
 3523 1172 2091 0000 		lds r18,RunParameter+9
 3524               	.LVL196:
 3525 1176 280F      		add r18,r24
 3526               	.LM527:
 3527 1178 2730      		cpi r18,lo8(7)
 3528 117a 00F0      		brlo .L414
 3529               	.LM528:
 3530 117c 822F      		mov r24,r18
 3531 117e 8750      		subi r24,lo8(-(-7))
 3532 1180 8630      		cpi r24,lo8(6)
 3533 1182 00F4      		brsh .L410
 3534               	.LM529:
 3535 1184 8CE1      		ldi r24,lo8(28)
 3536 1186 00C0      		rjmp .L495
 3537               	.L410:
 3538               	.LM530:
 3539 1188 822F      		mov r24,r18
 3540 118a 8D50      		subi r24,lo8(-(-13))
 3541 118c 8630      		cpi r24,lo8(6)
 3542 118e 00F4      		brsh .L412
 3543               	.LM531:
 3544 1190 8DE1      		ldi r24,lo8(29)
 3545 1192 00C0      		rjmp .L495
 3546               	.L412:
 3547               	.LM532:
 3548 1194 2351      		subi r18,lo8(-(-19))
 3549 1196 2530      		cpi r18,lo8(5)
 3550 1198 00F4      		brsh .L414
 3551               	.LM533:
 3552 119a 8EE1      		ldi r24,lo8(30)
 3553               	.L495:
 3554 119c 8093 0000 		sts PLUSE_Number,r24
 3555               	.LM534:
 3556 11a0 81E0      		ldi r24,lo8(1)
 3557 11a2 8093 0000 		sts PLUSE_Status,r24
 3558               	.L414:
 3559               	.LM535:
 3560 11a6 84E0      		ldi r24,lo8(4)
 3561 11a8 00C0      		rjmp .L487
 3562               	.LVL197:
 3563               	.L378:
 3564               	.LM536:
 3565 11aa 8091 0000 		lds r24,PLUSE_Status
 3566 11ae 8823      		tst r24
 3567 11b0 01F0      		breq .+2
 3568 11b2 00C0      		rjmp .L486
 3569 11b4 9A9B      		sbis 51-0x20,2
 3570 11b6 00C0      		rjmp .L486
 3571               	.LM537:
 3572 11b8 8091 0000 		lds r24,RunParameter+8
 3573 11bc 8230      		cpi r24,lo8(2)
 3574 11be 00F0      		brlo .L418
 3575               	.LM538:
 3576 11c0 8F5F      		subi r24,lo8(-(1))
 3577 11c2 8093 0000 		sts PLUSE_Number,r24
 3578               	.LM539:
 3579 11c6 81E0      		ldi r24,lo8(1)
 3580 11c8 8093 0000 		sts PLUSE_Status,r24
 3581               	.L418:
 3582               	.LM540:
 3583 11cc 85E0      		ldi r24,lo8(5)
 3584 11ce 00C0      		rjmp .L487
 3585               	.L379:
 3586               	.LM541:
 3587 11d0 8091 0000 		lds r24,PLUSE_Status
 3588 11d4 8823      		tst r24
 3589 11d6 01F0      		breq .+2
 3590 11d8 00C0      		rjmp .L486
 3591 11da 9A9B      		sbis 51-0x20,2
 3592 11dc 00C0      		rjmp .L486
 3593               	.LM542:
 3594 11de 8091 0000 		lds r24,RunParameter+8
 3595 11e2 8823      		tst r24
 3596 11e4 01F0      		breq .L422
 3597               	.LM543:
 3598 11e6 8BE0      		ldi r24,lo8(11)
 3599 11e8 8093 0000 		sts PLUSE_Number,r24
 3600               	.LM544:
 3601 11ec 81E0      		ldi r24,lo8(1)
 3602 11ee 8093 0000 		sts PLUSE_Status,r24
 3603               	.L422:
 3604               	.LM545:
 3605 11f2 86E0      		ldi r24,lo8(6)
 3606 11f4 00C0      		rjmp .L487
 3607               	.L380:
 3608               	.LM546:
 3609 11f6 8091 0000 		lds r24,PLUSE_Status
 3610 11fa 8823      		tst r24
 3611 11fc 01F0      		breq .+2
 3612 11fe 00C0      		rjmp .L486
 3613 1200 9A9B      		sbis 51-0x20,2
 3614 1202 00C0      		rjmp .L486
 3615               	.LM547:
 3616 1204 9091 0000 		lds r25,RunParameter+9
 3617 1208 9923      		tst r25
 3618 120a 01F4      		brne .L426
 3619 120c 8091 0000 		lds r24,RunParameter+8
 3620 1210 8823      		tst r24
 3621 1212 01F4      		brne .L494
 3622               	.L426:
 3623               	.LM548:
 3624 1214 9F5F      		subi r25,lo8(-(1))
 3625 1216 9093 0000 		sts PLUSE_Number,r25
 3626               	.LM549:
 3627 121a 81E0      		ldi r24,lo8(1)
 3628 121c 8093 0000 		sts PLUSE_Status,r24
 3629               	.L494:
 3630               	.LM550:
 3631 1220 87E0      		ldi r24,lo8(7)
 3632 1222 00C0      		rjmp .L487
 3633               	.L381:
 3634               	.LM551:
 3635 1224 8091 0000 		lds r24,PLUSE_Status
 3636 1228 8823      		tst r24
 3637 122a 01F0      		breq .+2
 3638 122c 00C0      		rjmp .L486
 3639 122e 9A9B      		sbis 51-0x20,2
 3640 1230 00C0      		rjmp .L486
 3641               	.LM552:
 3642 1232 8DE0      		ldi r24,lo8(13)
 3643 1234 8093 0000 		sts PLUSE_Number,r24
 3644               	.LM553:
 3645 1238 81E0      		ldi r24,lo8(1)
 3646 123a 8093 0000 		sts PLUSE_Status,r24
 3647               	.LM554:
 3648 123e 88E0      		ldi r24,lo8(8)
 3649 1240 00C0      		rjmp .L487
 3650               	.L382:
 3651               	.LM555:
 3652 1242 8091 0000 		lds r24,PLUSE_Status
 3653 1246 8823      		tst r24
 3654 1248 01F0      		breq .+2
 3655 124a 00C0      		rjmp .L486
 3656 124c 9A9B      		sbis 51-0x20,2
 3657 124e 00C0      		rjmp .L486
 3658               	.LM556:
 3659 1250 8091 0000 		lds r24,RunParameter+10
 3660 1254 8823      		tst r24
 3661 1256 01F4      		brne .L433
 3662 1258 8091 0000 		lds r24,RunParameter+11
 3663 125c 8823      		tst r24
 3664 125e 01F4      		brne .L435
 3665               	.LM557:
 3666 1260 8AE1      		ldi r24,lo8(26)
 3667 1262 00C0      		rjmp .L496
 3668               	.L433:
 3669               	.LM558:
 3670 1264 8230      		cpi r24,lo8(2)
 3671 1266 00F0      		brlo .L435
 3672               	.LM559:
 3673 1268 8F5F      		subi r24,lo8(-(1))
 3674               	.L496:
 3675 126a 8093 0000 		sts PLUSE_Number,r24
 3676               	.LM560:
 3677 126e 81E0      		ldi r24,lo8(1)
 3678 1270 8093 0000 		sts PLUSE_Status,r24
 3679               	.L435:
 3680               	.LM561:
 3681 1274 89E0      		ldi r24,lo8(9)
 3682 1276 00C0      		rjmp .L487
 3683               	.L383:
 3684               	.LM562:
 3685 1278 8091 0000 		lds r24,PLUSE_Status
 3686 127c 8823      		tst r24
 3687 127e 01F0      		breq .+2
 3688 1280 00C0      		rjmp .L486
 3689 1282 9A9B      		sbis 51-0x20,2
 3690 1284 00C0      		rjmp .L486
 3691               	.LM563:
 3692 1286 8091 0000 		lds r24,RunParameter+10
 3693 128a 8823      		tst r24
 3694 128c 01F4      		brne .L440
 3695 128e 8091 0000 		lds r24,RunParameter+11
 3696 1292 8823      		tst r24
 3697 1294 01F4      		brne .L442
 3698 1296 00C0      		rjmp .L491
 3699               	.L440:
 3700               	.LM564:
 3701 1298 8BE0      		ldi r24,lo8(11)
 3702 129a 8093 0000 		sts PLUSE_Number,r24
 3703               	.LM565:
 3704 129e 81E0      		ldi r24,lo8(1)
 3705 12a0 00C0      		rjmp .L489
 3706               	.L442:
 3707               	.LM566:
 3708 12a2 81E0      		ldi r24,lo8(1)
 3709 12a4 8093 0000 		sts PLUSE_Number,r24
 3710               	.L489:
 3711               	.LM567:
 3712 12a8 8093 0000 		sts PLUSE_Status,r24
 3713               	.L491:
 3714               	.LM568:
 3715 12ac 8AE0      		ldi r24,lo8(10)
 3716 12ae 00C0      		rjmp .L487
 3717               	.L384:
 3718               	.LM569:
 3719 12b0 8091 0000 		lds r24,PLUSE_Status
 3720 12b4 8823      		tst r24
 3721 12b6 01F0      		breq .+2
 3722 12b8 00C0      		rjmp .L486
 3723 12ba 9A9B      		sbis 51-0x20,2
 3724 12bc 00C0      		rjmp .L486
 3725               	.LM570:
 3726 12be 8091 0000 		lds r24,RunParameter+11
 3727 12c2 8823      		tst r24
 3728 12c4 01F0      		breq .L488
 3729               	.LM571:
 3730 12c6 8F5F      		subi r24,lo8(-(1))
 3731 12c8 8093 0000 		sts PLUSE_Number,r24
 3732               	.LM572:
 3733 12cc 81E0      		ldi r24,lo8(1)
 3734 12ce 8093 0000 		sts PLUSE_Status,r24
 3735               	.L488:
 3736               	.LM573:
 3737 12d2 8BE0      		ldi r24,lo8(11)
 3738 12d4 00C0      		rjmp .L487
 3739               	.L385:
 3740               	.LM574:
 3741 12d6 8091 0000 		lds r24,PLUSE_Status
 3742 12da 8823      		tst r24
 3743 12dc 01F0      		breq .+2
 3744 12de 00C0      		rjmp .L486
 3745 12e0 9A9B      		sbis 51-0x20,2
 3746 12e2 00C0      		rjmp .L486
 3747               	.LM575:
 3748 12e4 8091 0000 		lds r24,RunParameter+10
 3749 12e8 8823      		tst r24
 3750 12ea 01F4      		brne .L452
 3751 12ec 8091 0000 		lds r24,RunParameter+11
 3752 12f0 8823      		tst r24
 3753 12f2 01F0      		breq .L490
 3754               	.L452:
 3755               	.LM576:
 3756 12f4 8EE0      		ldi r24,lo8(14)
 3757 12f6 8093 0000 		sts PLUSE_Number,r24
 3758               	.LM577:
 3759 12fa 81E0      		ldi r24,lo8(1)
 3760 12fc 8093 0000 		sts PLUSE_Status,r24
 3761               	.L490:
 3762               	.LM578:
 3763 1300 8CE0      		ldi r24,lo8(12)
 3764 1302 00C0      		rjmp .L487
 3765               	.L386:
 3766               	.LM579:
 3767 1304 8091 0000 		lds r24,PLUSE_Status
 3768 1308 8823      		tst r24
 3769 130a 01F0      		breq .+2
 3770 130c 00C0      		rjmp .L486
 3771 130e 9A9B      		sbis 51-0x20,2
 3772 1310 00C0      		rjmp .L486
 3773               	.LM580:
 3774 1312 88EE      		ldi r24,lo8(1000)
 3775 1314 93E0      		ldi r25,hi8(1000)
 3776 1316 9093 0000 		sts (SPEEK_TIME_Delay)+1,r25
 3777 131a 8093 0000 		sts SPEEK_TIME_Delay,r24
 3778               	.LM581:
 3779 131e 8DE0      		ldi r24,lo8(13)
 3780 1320 00C0      		rjmp .L487
 3781               	.L387:
 3782               	.LM582:
 3783 1322 8091 0000 		lds r24,SPEEK_TIME_Delay
 3784 1326 9091 0000 		lds r25,(SPEEK_TIME_Delay)+1
 3785 132a 0197      		sbiw r24,1
 3786 132c 9093 0000 		sts (SPEEK_TIME_Delay)+1,r25
 3787 1330 8093 0000 		sts SPEEK_TIME_Delay,r24
 3788               	.LM583:
 3789 1334 892B      		or r24,r25
 3790 1336 01F0      		breq .+2
 3791 1338 00C0      		rjmp .L486
 3792               	.LM584:
 3793 133a 87E1      		ldi r24,lo8(23)
 3794 133c 8093 0000 		sts PLUSE_Number,r24
 3795               	.LM585:
 3796 1340 81E0      		ldi r24,lo8(1)
 3797 1342 8093 0000 		sts PLUSE_Status,r24
 3798               	.LM586:
 3799 1346 8EE0      		ldi r24,lo8(14)
 3800 1348 00C0      		rjmp .L487
 3801               	.L388:
 3802               	.LM587:
 3803 134a 8091 0000 		lds r24,PLUSE_Status
 3804 134e 8823      		tst r24
 3805 1350 01F0      		breq .+2
 3806 1352 00C0      		rjmp .L486
 3807 1354 9A9B      		sbis 51-0x20,2
 3808 1356 00C0      		rjmp .L486
 3809               	.LM588:
 3810 1358 9091 0000 		lds r25,RunParameter+15
 3811 135c 892F      		mov r24,r25
 3812 135e 8250      		subi r24,lo8(-(-2))
 3813 1360 8830      		cpi r24,lo8(8)
 3814 1362 00F4      		brsh .L460
 3815               	.LM589:
 3816 1364 9F5F      		subi r25,lo8(-(1))
 3817 1366 9093 0000 		sts PLUSE_Number,r25
 3818 136a 00C0      		rjmp .L492
 3819               	.L460:
 3820               	.LM590:
 3821 136c 9B30      		cpi r25,lo8(11)
 3822 136e 00F0      		brlo .L493
 3823               	.LM591:
 3824 1370 8FE1      		ldi r24,lo8(31)
 3825 1372 8093 0000 		sts PLUSE_Number,r24
 3826               	.L492:
 3827               	.LM592:
 3828 1376 81E0      		ldi r24,lo8(1)
 3829 1378 8093 0000 		sts PLUSE_Status,r24
 3830               	.L493:
 3831               	.LM593:
 3832 137c 8FE0      		ldi r24,lo8(15)
 3833 137e 00C0      		rjmp .L487
 3834               	.L389:
 3835               	.LM594:
 3836 1380 8091 0000 		lds r24,PLUSE_Status
 3837 1384 8823      		tst r24
 3838 1386 01F0      		breq .+2
 3839 1388 00C0      		rjmp .L486
 3840 138a 9A9B      		sbis 51-0x20,2
 3841 138c 00C0      		rjmp .L486
 3842               	.LM595:
 3843 138e 8091 0000 		lds r24,RunParameter+15
 3844 1392 8823      		tst r24
 3845 1394 01F0      		breq .L466
 3846 1396 8E30      		cpi r24,lo8(14)
 3847 1398 01F0      		breq .L466
 3848               	.LM596:
 3849 139a 8BE0      		ldi r24,lo8(11)
 3850 139c 8093 0000 		sts PLUSE_Number,r24
 3851               	.LM597:
 3852 13a0 81E0      		ldi r24,lo8(1)
 3853 13a2 8093 0000 		sts PLUSE_Status,r24
 3854               	.L466:
 3855               	.LM598:
 3856 13a6 80E1      		ldi r24,lo8(16)
 3857 13a8 00C0      		rjmp .L487
 3858               	.L390:
 3859               	.LM599:
 3860 13aa 8091 0000 		lds r24,PLUSE_Status
 3861 13ae 8823      		tst r24
 3862 13b0 01F0      		breq .+2
 3863 13b2 00C0      		rjmp .L486
 3864 13b4 9A9B      		sbis 51-0x20,2
 3865 13b6 00C0      		rjmp .L486
 3866               	.LM600:
 3867 13b8 8091 0000 		lds r24,RunParameter+16
 3868 13bc 8823      		tst r24
 3869 13be 01F0      		breq .L471
 3870               	.LM601:
 3871 13c0 8F5F      		subi r24,lo8(-(1))
 3872 13c2 8093 0000 		sts PLUSE_Number,r24
 3873               	.LM602:
 3874 13c6 81E0      		ldi r24,lo8(1)
 3875 13c8 00C0      		rjmp .L497
 3876               	.L471:
 3877               	.LM603:
 3878 13ca 8091 0000 		lds r24,RunParameter+15
 3879 13ce 8823      		tst r24
 3880 13d0 01F0      		breq .L473
 3881 13d2 8E30      		cpi r24,lo8(14)
 3882 13d4 01F4      		brne .L475
 3883               	.L473:
 3884               	.LM604:
 3885 13d6 81E0      		ldi r24,lo8(1)
 3886 13d8 8093 0000 		sts PLUSE_Number,r24
 3887               	.L497:
 3888               	.LM605:
 3889 13dc 8093 0000 		sts PLUSE_Status,r24
 3890               	.L475:
 3891               	.LM606:
 3892 13e0 81E1      		ldi r24,lo8(17)
 3893 13e2 00C0      		rjmp .L487
 3894               	.L391:
 3895               	.LM607:
 3896 13e4 8091 0000 		lds r24,PLUSE_Status
 3897 13e8 8823      		tst r24
 3898 13ea 01F4      		brne .L486
 3899 13ec 9A9B      		sbis 51-0x20,2
 3900 13ee 00C0      		rjmp .L486
 3901               	.LM608:
 3902 13f0 8DE0      		ldi r24,lo8(13)
 3903 13f2 8093 0000 		sts PLUSE_Number,r24
 3904               	.LM609:
 3905 13f6 81E0      		ldi r24,lo8(1)
 3906 13f8 8093 0000 		sts PLUSE_Status,r24
 3907               	.LM610:
 3908 13fc 82E1      		ldi r24,lo8(18)
 3909 13fe 00C0      		rjmp .L487
 3910               	.L392:
 3911               	.LM611:
 3912 1400 8091 0000 		lds r24,PLUSE_Status
 3913 1404 8823      		tst r24
 3914 1406 01F4      		brne .L486
 3915 1408 9A9B      		sbis 51-0x20,2
 3916 140a 00C0      		rjmp .L486
 3917               	.LM612:
 3918 140c 8091 0000 		lds r24,RunParameter+17
 3919 1410 8F5F      		subi r24,lo8(-(1))
 3920 1412 8093 0000 		sts PLUSE_Number,r24
 3921               	.LM613:
 3922 1416 81E0      		ldi r24,lo8(1)
 3923 1418 8093 0000 		sts PLUSE_Status,r24
 3924               	.LM614:
 3925 141c 83E1      		ldi r24,lo8(19)
 3926 141e 00C0      		rjmp .L487
 3927               	.L393:
 3928               	.LM615:
 3929 1420 8091 0000 		lds r24,PLUSE_Status
 3930 1424 8823      		tst r24
 3931 1426 01F4      		brne .L486
 3932 1428 9A9B      		sbis 51-0x20,2
 3933 142a 00C0      		rjmp .L486
 3934               	.LM616:
 3935 142c 94E1      		ldi r25,lo8(20)
 3936 142e 9093 0000 		sts PLUSE_Number,r25
 3937               	.LM617:
 3938 1432 81E0      		ldi r24,lo8(1)
 3939 1434 8093 0000 		sts PLUSE_Status,r24
 3940               	.LM618:
 3941 1438 9093 0000 		sts SPEEK_TIME_Status,r25
 3942 143c 0895      		ret
 3943               	.L394:
 3944               	.LM619:
 3945 143e 8091 0000 		lds r24,PLUSE_Status
 3946 1442 8823      		tst r24
 3947 1444 01F4      		brne .L486
 3948 1446 9A9B      		sbis 51-0x20,2
 3949 1448 00C0      		rjmp .L486
 3950               	.L395:
 3951               	.LM620:
 3952 144a 1092 0000 		sts SPEEK_TIME_Status,__zero_reg__
 3953 144e 0895      		ret
 3954               	.L396:
 3955               	.LM621:
 3956 1450 8091 0000 		lds r24,PLUSE_Status
 3957 1454 8823      		tst r24
 3958 1456 01F4      		brne .L486
 3959 1458 9A9B      		sbis 51-0x20,2
 3960 145a 00C0      		rjmp .L486
 3961               	.LM622:
 3962 145c 1092 0000 		sts SPEEK_TIME_Status,__zero_reg__
 3963               	.L486:
 3964 1460 0895      		ret
 3965               	/* epilogue: frame size=0 */
 3966               	/* epilogue: noreturn */
 3967               	/* epilogue end (size=0) */
 3968               	/* function SPEEK_Time size 509 (509) */
 3969               	.LFE60:
 3971               	.global	PLUSE_Out
 3973               	PLUSE_Out:
 3974               	.LFB61:
 3975               	.LM623:
 3976               	/* prologue: frame size=0 */
 3977               	/* prologue end (size=0) */
 3978               	.LM624:
 3979 1462 8091 0000 		lds r24,PLUSE_Status
 3980 1466 8230      		cpi r24,lo8(2)
 3981 1468 01F0      		breq .L502
 3982               	.LM625:
 3983 146a 8330      		cpi r24,lo8(3)
 3984 146c 00F4      		brsh .L506
 3985 146e 8823      		tst r24
 3986 1470 01F0      		breq .L500
 3987 1472 8130      		cpi r24,lo8(1)
 3988 1474 01F0      		breq .+2
 3989 1476 00C0      		rjmp .L512
 3990 1478 00C0      		rjmp .L501
 3991               	.L506:
 3992 147a 8430      		cpi r24,lo8(4)
 3993 147c 01F0      		breq .L504
 3994 147e 8430      		cpi r24,lo8(4)
 3995 1480 00F0      		brlo .L503
 3996 1482 8530      		cpi r24,lo8(5)
 3997 1484 01F0      		breq .+2
 3998 1486 00C0      		rjmp .L512
 3999 1488 00C0      		rjmp .L505
 4000               	.L500:
 4001               	.LM626:
 4002 148a 82E0      		ldi r24,lo8(2)
 4003 148c 8093 0000 		sts PLUSE_Delay,r24
 4004               	.LM627:
 4005 1490 AC98      		cbi 53-0x20,4
 4006               	.LM628:
 4007 1492 AB98      		cbi 53-0x20,3
 4008 1494 0895      		ret
 4009               	.L501:
 4010               	.LM629:
 4011 1496 AC98      		cbi 53-0x20,4
 4012               	.LM630:
 4013 1498 AB9A      		sbi 53-0x20,3
 4014               	.LM631:
 4015 149a 8091 0000 		lds r24,PLUSE_Delay
 4016 149e 8150      		subi r24,lo8(-(-1))
 4017 14a0 8093 0000 		sts PLUSE_Delay,r24
 4018               	.LM632:
 4019 14a4 8823      		tst r24
 4020 14a6 01F4      		brne .L512
 4021               	.LM633:
 4022 14a8 AB98      		cbi 53-0x20,3
 4023               	.LM634:
 4024 14aa 82E0      		ldi r24,lo8(2)
 4025 14ac 00C0      		rjmp .L513
 4026               	.L502:
 4027               	.LM635:
 4028 14ae 8091 0000 		lds r24,PLUSE_Number
 4029 14b2 8823      		tst r24
 4030 14b4 01F0      		breq .L508
 4031               	.LM636:
 4032 14b6 81E0      		ldi r24,lo8(1)
 4033 14b8 8093 0000 		sts PLUSE_Delay,r24
 4034               	.LM637:
 4035 14bc 83E0      		ldi r24,lo8(3)
 4036 14be 00C0      		rjmp .L513
 4037               	.L508:
 4038               	.LM638:
 4039 14c0 1092 0000 		sts PLUSE_Status,__zero_reg__
 4040 14c4 0895      		ret
 4041               	.L503:
 4042               	.LM639:
 4043 14c6 AC98      		cbi 53-0x20,4
 4044               	.LM640:
 4045 14c8 8091 0000 		lds r24,PLUSE_Delay
 4046 14cc 8150      		subi r24,lo8(-(-1))
 4047 14ce 8093 0000 		sts PLUSE_Delay,r24
 4048               	.LM641:
 4049 14d2 8823      		tst r24
 4050 14d4 01F4      		brne .L512
 4051               	.LM642:
 4052 14d6 81E0      		ldi r24,lo8(1)
 4053 14d8 8093 0000 		sts PLUSE_Delay,r24
 4054               	.LM643:
 4055 14dc 84E0      		ldi r24,lo8(4)
 4056 14de 00C0      		rjmp .L513
 4057               	.L504:
 4058               	.LM644:
 4059 14e0 AC9A      		sbi 53-0x20,4
 4060               	.LM645:
 4061 14e2 8091 0000 		lds r24,PLUSE_Delay
 4062 14e6 8150      		subi r24,lo8(-(-1))
 4063 14e8 8093 0000 		sts PLUSE_Delay,r24
 4064               	.LM646:
 4065 14ec 8823      		tst r24
 4066 14ee 01F4      		brne .L512
 4067               	.LM647:
 4068 14f0 85E0      		ldi r24,lo8(5)
 4069               	.L513:
 4070 14f2 8093 0000 		sts PLUSE_Status,r24
 4071 14f6 0895      		ret
 4072               	.L505:
 4073               	.LM648:
 4074 14f8 AC98      		cbi 53-0x20,4
 4075               	.LM649:
 4076 14fa 8091 0000 		lds r24,PLUSE_Number
 4077 14fe 8150      		subi r24,lo8(-(-1))
 4078 1500 8093 0000 		sts PLUSE_Number,r24
 4079               	.LM650:
 4080 1504 82E0      		ldi r24,lo8(2)
 4081 1506 8093 0000 		sts PLUSE_Status,r24
 4082               	.L512:
 4083 150a 0895      		ret
 4084               	/* epilogue: frame size=0 */
 4085               	/* epilogue: noreturn */
 4086               	/* epilogue end (size=0) */
 4087               	/* function PLUSE_Out size 85 (85) */
 4088               	.LFE61:
 4090               	.global	Key_Init
 4092               	Key_Init:
 4093               	.LFB62:
 4094               	.LM651:
 4095               	/* prologue: frame size=0 */
 4096               	/* prologue end (size=0) */
 4097               	.LM652:
 4098 150c AE9A      		sbi 53-0x20,6
 4099               	.LM653:
 4100 150e A698      		cbi 52-0x20,6
 4101               	.LM654:
 4102 1510 AF9A      		sbi 53-0x20,7
 4103               	.LM655:
 4104 1512 A798      		cbi 52-0x20,7
 4105               	.LM656:
 4106 1514 909A      		sbi 50-0x20,0
 4107               	.LM657:
 4108 1516 8898      		cbi 49-0x20,0
 4109               	.LM658:
 4110 1518 919A      		sbi 50-0x20,1
 4111               	.LM659:
 4112 151a 8998      		cbi 49-0x20,1
 4113               	/* epilogue: frame size=0 */
 4114 151c 0895      		ret
 4115               	/* epilogue end (size=1) */
 4116               	/* function Key_Init size 9 (8) */
 4117               	.LFE62:
 4119               	.global	Key_Operation
 4121               	Key_Operation:
 4122               	.LFB63:
 4123               	.LM660:
 4124               	/* prologue: frame size=0 */
 4125 151e CF92      		push r12
 4126 1520 DF92      		push r13
 4127 1522 EF92      		push r14
 4128 1524 FF92      		push r15
 4129 1526 0F93      		push r16
 4130 1528 1F93      		push r17
 4131 152a CF93      		push r28
 4132 152c DF93      		push r29
 4133               	/* prologue end (size=8) */
 4134               	.LVL198:
 4135 152e D82E      		mov r13,r24
 4136 1530 C62E      		mov r12,r22
 4137 1532 EA01      		movw r28,r20
 4138 1534 7901      		movw r14,r18
 4139               	.LM661:
 4140 1536 9E99      		sbic 51-0x20,6
 4141 1538 00C0      		rjmp .L517
 4142               	.LVL199:
 4143               	.LBB196:
 4144               	.LBB197:
 4145               	.LBB198:
 4146               	.LBB199:
 4147               	.LM662:
 4148 153a 80E2      		ldi r24,lo8(20000)
 4149 153c 9EE4      		ldi r25,hi8(20000)
 4150               	.LVL200:
 4151               	/* #APP */
 4152 153e 0197      		1: sbiw r24,1
 4153 1540 01F4      		brne 1b
 4154               	/* #NOAPP */
 4155               	.LBE199:
 4156               	.LBE198:
 4157               	.LBE197:
 4158               	.LBE196:
 4159               	.LM663:
 4160 1542 9E99      		sbic 51-0x20,6
 4161 1544 00C0      		rjmp .L531
 4162               	.LBB200:
 4163               	.LM664:
 4164 1546 84E6      		ldi r24,lo8(100)
 4165               	.LVL201:
 4166 1548 8093 0000 		sts SPEEK_TIME_Status,r24
 4167               	.LM665:
 4168 154c 1092 0000 		sts (KEY_Time_count)+1,__zero_reg__
 4169 1550 1092 0000 		sts KEY_Time_count,__zero_reg__
 4170               	.LM666:
 4171 1554 8881      		ld r24,Y
 4172 1556 F901      		movw r30,r18
 4173 1558 3081      		ld r19,Z
 4174               	.LVL202:
 4175 155a 3F5F      		subi r19,lo8(-(1))
 4176               	.LM667:
 4177 155c 2AE0      		ldi r18,lo8(10)
 4178 155e 829F      		mul r24,r18
 4179 1560 C001      		movw r24,r0
 4180 1562 1124      		clr r1
 4181 1564 380F      		add r19,r24
 4182               	.LM668:
 4183 1566 D316      		cp r13,r19
 4184 1568 00F4      		brsh .L521
 4185 156a 362F      		mov r19,r22
 4186               	.L521:
 4187               	.LM669:
 4188 156c 832F      		mov r24,r19
 4189 156e 6AE0      		ldi r22,lo8(10)
 4190 1570 0E94 0000 		call __udivmodqi4
 4191 1574 8883      		st Y,r24
 4192               	.LM670:
 4193 1576 832F      		mov r24,r19
 4194 1578 0E94 0000 		call __udivmodqi4
 4195 157c F701      		movw r30,r14
 4196 157e 9083      		st Z,r25
 4197               	.LM671:
 4198 1580 F801      		movw r30,r16
 4199 1582 0995      		icall
 4200               	.LVL203:
 4201               	.L531:
 4202               	.LBE200:
 4203               	.LM672:
 4204 1584 9E9B      		sbis 51-0x20,6
 4205 1586 00C0      		rjmp .L531
 4206               	.LVL204:
 4207               	.L517:
 4208               	.LM673:
 4209 1588 9F99      		sbic 51-0x20,7
 4210 158a 00C0      		rjmp .L530
 4211               	.LBB201:
 4212               	.LBB202:
 4213               	.LBB203:
 4214               	.LBB204:
 4215               	.LM674:
 4216 158c 80E2      		ldi r24,lo8(20000)
 4217 158e 9EE4      		ldi r25,hi8(20000)
 4218               	.LVL205:
 4219               	/* #APP */
 4220 1590 0197      		1: sbiw r24,1
 4221 1592 01F4      		brne 1b
 4222               	/* #NOAPP */
 4223               	.LBE204:
 4224               	.LBE203:
 4225               	.LBE202:
 4226               	.LBE201:
 4227               	.LM675:
 4228 1594 9F99      		sbic 51-0x20,7
 4229 1596 00C0      		rjmp .L532
 4230               	.LBB205:
 4231               	.LM676:
 4232 1598 84E6      		ldi r24,lo8(100)
 4233               	.LVL206:
 4234 159a 8093 0000 		sts SPEEK_TIME_Status,r24
 4235               	.LM677:
 4236 159e 1092 0000 		sts (KEY_Time_count)+1,__zero_reg__
 4237 15a2 1092 0000 		sts KEY_Time_count,__zero_reg__
 4238               	.LM678:
 4239 15a6 8881      		ld r24,Y
 4240 15a8 F701      		movw r30,r14
 4241 15aa 3081      		ld r19,Z
 4242               	.LVL207:
 4243 15ac 3150      		subi r19,lo8(-(-1))
 4244               	.LM679:
 4245 15ae 2AE0      		ldi r18,lo8(10)
 4246 15b0 829F      		mul r24,r18
 4247 15b2 C001      		movw r24,r0
 4248 15b4 1124      		clr r1
 4249 15b6 380F      		add r19,r24
 4250               	.LM680:
 4251 15b8 D316      		cp r13,r19
 4252 15ba 00F0      		brlo .L529
 4253 15bc 3C15      		cp r19,r12
 4254 15be 00F4      		brsh .L527
 4255               	.L529:
 4256 15c0 3D2D      		mov r19,r13
 4257               	.L527:
 4258               	.LM681:
 4259 15c2 832F      		mov r24,r19
 4260 15c4 6AE0      		ldi r22,lo8(10)
 4261 15c6 0E94 0000 		call __udivmodqi4
 4262 15ca 8883      		st Y,r24
 4263               	.LM682:
 4264 15cc 832F      		mov r24,r19
 4265 15ce 0E94 0000 		call __udivmodqi4
 4266 15d2 F701      		movw r30,r14
 4267 15d4 9083      		st Z,r25
 4268               	.LM683:
 4269 15d6 F801      		movw r30,r16
 4270 15d8 0995      		icall
 4271               	.LVL208:
 4272               	.L532:
 4273               	.LBE205:
 4274               	.LM684:
 4275 15da 9F9B      		sbis 51-0x20,7
 4276 15dc 00C0      		rjmp .L532
 4277               	.LVL209:
 4278               	.L530:
 4279               	/* epilogue: frame size=0 */
 4280 15de DF91      		pop r29
 4281 15e0 CF91      		pop r28
 4282 15e2 1F91      		pop r17
 4283 15e4 0F91      		pop r16
 4284 15e6 FF90      		pop r15
 4285 15e8 EF90      		pop r14
 4286 15ea DF90      		pop r13
 4287 15ec CF90      		pop r12
 4288 15ee 0895      		ret
 4289               	/* epilogue end (size=9) */
 4290               	/* function Key_Operation size 109 (92) */
 4291               	.LFE63:
 4293               	.global	StartAD
 4295               	StartAD:
 4296               	.LFB65:
 4297               	.LM685:
 4298               	/* prologue: frame size=0 */
 4299               	/* prologue end (size=0) */
 4300               	.LM686:
 4301 15f0 16B8      		out 38-0x20,__zero_reg__
 4302               	.LM687:
 4303 15f2 80E4      		ldi r24,lo8(64)
 4304 15f4 87B9      		out 39-0x20,r24
 4305               	.LM688:
 4306 15f6 87ED      		ldi r24,lo8(-41)
 4307 15f8 86B9      		out 38-0x20,r24
 4308               	/* epilogue: frame size=0 */
 4309 15fa 0895      		ret
 4310               	/* epilogue end (size=1) */
 4311               	/* function StartAD size 6 (5) */
 4312               	.LFE65:
 4314               	.global	GetDispalyLight
 4316               	GetDispalyLight:
 4317               	.LFB66:
 4318               	.LM689:
 4319               	/* prologue: frame size=0 */
 4320               	/* prologue end (size=0) */
 4321               	.LM690:
 4322 15fc 24B1      		in r18,36-0x20
 4323               	.LM691:
 4324 15fe 85B1      		in r24,37-0x20
 4325               	.LM692:
 4326 1600 90E0      		ldi r25,lo8(0)
 4327 1602 982F      		mov r25,r24
 4328 1604 8827      		clr r24
 4329 1606 30E0      		ldi r19,lo8(0)
 4330 1608 822B      		or r24,r18
 4331 160a 932B      		or r25,r19
 4332               	.LM693:
 4333 160c 9695      		lsr r25
 4334 160e 8795      		ror r24
 4335               	.LM694:
 4336 1610 8397      		sbiw r24,35
 4337 1612 6CE3      		ldi r22,lo8(60)
 4338 1614 70E0      		ldi r23,hi8(60)
 4339 1616 0E94 0000 		call __udivmodhi4
 4340 161a 98E0      		ldi r25,lo8(8)
 4341 161c 892F      		mov r24,r25
 4342 161e 861B      		sub r24,r22
 4343 1620 8093 0000 		sts RunParameter+19,r24
 4344               	.LM695:
 4345 1624 8930      		cpi r24,lo8(9)
 4346 1626 00F0      		brlo .L538
 4347               	.LM696:
 4348 1628 9093 0000 		sts RunParameter+19,r25
 4349 162c 00C0      		rjmp .L540
 4350               	.L538:
 4351               	.LM697:
 4352 162e 8823      		tst r24
 4353 1630 01F4      		brne .L540
 4354               	.LM698:
 4355 1632 81E0      		ldi r24,lo8(1)
 4356 1634 8093 0000 		sts RunParameter+19,r24
 4357               	.L540:
 4358               	.LM699:
 4359 1638 8091 0000 		lds r24,RunParameter+19
 4360 163c 29E1      		ldi r18,lo8(25)
 4361 163e 829F      		mul r24,r18
 4362 1640 C001      		movw r24,r0
 4363 1642 1124      		clr r1
 4364 1644 8951      		subi r24,lo8(-(-25))
 4365 1646 8CBF      		out 92-0x20,r24
 4366               	/* epilogue: frame size=0 */
 4367 1648 0895      		ret
 4368               	/* epilogue end (size=1) */
 4369               	/* function GetDispalyLight size 39 (38) */
 4370               	.LFE66:
 4372               	.global	timer0_init
 4374               	timer0_init:
 4375               	.LFB67:
 4376               	.LM700:
 4377               	/* prologue: frame size=0 */
 4378               	/* prologue end (size=0) */
 4379               	.LM701:
 4380 164a 13BE      		out 83-0x20,__zero_reg__
 4381               	.LM702:
 4382 164c 12BE      		out 82-0x20,__zero_reg__
 4383               	.LM703:
 4384 164e 89E7      		ldi r24,lo8(121)
 4385 1650 83BF      		out 83-0x20,r24
 4386               	.LM704:
 4387 1652 8091 0000 		lds r24,RunParameter+18
 4388 1656 8930      		cpi r24,lo8(9)
 4389 1658 00F4      		brsh .L544
 4390               	.LM705:
 4391 165a 8091 0000 		lds r24,RunParameter+19
 4392 165e 29E1      		ldi r18,lo8(25)
 4393 1660 829F      		mul r24,r18
 4394 1662 C001      		movw r24,r0
 4395 1664 1124      		clr r1
 4396 1666 8951      		subi r24,lo8(-(-25))
 4397 1668 00C0      		rjmp .L548
 4398               	.L544:
 4399               	.LM706:
 4400 166a 84E6      		ldi r24,lo8(100)
 4401               	.L548:
 4402 166c 8CBF      		out 92-0x20,r24
 4403 166e 0895      		ret
 4404               	/* epilogue: frame size=0 */
 4405               	/* epilogue: noreturn */
 4406               	/* epilogue end (size=0) */
 4407               	/* function timer0_init size 19 (19) */
 4408               	.LFE67:
 4410               	.global	timer2_init
 4412               	timer2_init:
 4413               	.LFB68:
 4414               	.LM707:
 4415               	/* prologue: frame size=0 */
 4416               	/* prologue end (size=0) */
 4417               	.LM708:
 4418 1670 15BC      		out 69-0x20,__zero_reg__
 4419               	.LM709:
 4420 1672 12BC      		out 66-0x20,__zero_reg__
 4421               	.LM710:
 4422 1674 83E8      		ldi r24,lo8(-125)
 4423 1676 84BD      		out 68-0x20,r24
 4424               	.LM711:
 4425 1678 82E8      		ldi r24,lo8(-126)
 4426 167a 83BD      		out 67-0x20,r24
 4427               	.LM712:
 4428 167c 89B7      		in r24,89-0x20
 4429 167e 8064      		ori r24,lo8(64)
 4430 1680 89BF      		out 89-0x20,r24
 4431               	.LM713:
 4432 1682 84E0      		ldi r24,lo8(4)
 4433 1684 85BD      		out 69-0x20,r24
 4434               	/* epilogue: frame size=0 */
 4435 1686 0895      		ret
 4436               	/* epilogue end (size=1) */
 4437               	/* function timer2_init size 12 (11) */
 4438               	.LFE68:
 4440               	.global	INFRARED_INI
 4442               	INFRARED_INI:
 4443               	.LFB70:
 4444               	.LM714:
 4445               	/* prologue: frame size=0 */
 4446               	/* prologue end (size=0) */
 4447               	.LM715:
 4448 1688 D79A      		sbi 58-0x20,7
 4449               	/* epilogue: frame size=0 */
 4450 168a 0895      		ret
 4451               	/* epilogue end (size=1) */
 4452               	/* function INFRARED_INI size 2 (1) */
 4453               	.LFE70:
 4455               	.global	fullScreen
 4457               	fullScreen:
 4458               	.LFB23:
 4459               	.LM716:
 4460               	/* prologue: frame size=0 */
 4461               	/* prologue end (size=0) */
 4462               	.LM717:
 4463 168c 40E0      		ldi r20,lo8(256)
 4464 168e 51E0      		ldi r21,hi8(256)
 4465 1690 6FEF      		ldi r22,lo8(255)
 4466 1692 70E0      		ldi r23,hi8(255)
 4467 1694 80E0      		ldi r24,lo8(display_buffer)
 4468 1696 90E0      		ldi r25,hi8(display_buffer)
 4469 1698 0E94 0000 		call memset
 4470               	/* epilogue: frame size=0 */
 4471 169c 0895      		ret
 4472               	/* epilogue end (size=1) */
 4473               	/* function fullScreen size 9 (8) */
 4474               	.LFE23:
 4476               	.global	clearScreen
 4478               	clearScreen:
 4479               	.LFB22:
 4480               	.LM718:
 4481               	/* prologue: frame size=0 */
 4482               	/* prologue end (size=0) */
 4483               	.LM719:
 4484 169e 80E0      		ldi r24,lo8(256)
 4485 16a0 91E0      		ldi r25,hi8(256)
 4486 16a2 E0E0      		ldi r30,lo8(display_buffer)
 4487 16a4 F0E0      		ldi r31,hi8(display_buffer)
 4488 16a6 1192      		st Z+,__zero_reg__
 4489 16a8 0197      		sbiw r24,1
 4490 16aa 01F4      		brne .-6
 4491               	/* epilogue: frame size=0 */
 4492 16ac 0895      		ret
 4493               	/* epilogue end (size=1) */
 4494               	/* function clearScreen size 8 (7) */
 4495               	.LFE22:
 4497               	.global	init_devices
 4499               	init_devices:
 4500               	.LFB71:
 4501               	.LM720:
 4502               	/* prologue: frame size=0 */
 4503               	/* prologue end (size=0) */
 4504               	.LM721:
 4505               	/* #APP */
 4506 16ae F894      		cli
 4507               	.LM722:
 4508               	/* #NOAPP */
 4509 16b0 15BE      		out 85-0x20,__zero_reg__
 4510               	.LM723:
 4511 16b2 1BBE      		out 91-0x20,__zero_reg__
 4512               	.LM724:
 4513 16b4 0E94 0000 		call LED_SCREEN_INI
 4514               	.LM725:
 4515 16b8 0E94 0000 		call Key_Init
 4516               	.LM726:
 4517 16bc 0E94 0000 		call Voice_Init
 4518               	.LM727:
 4519 16c0 0E94 0000 		call timer0_init
 4520               	.LM728:
 4521 16c4 0E94 0000 		call timer2_init
 4522               	.LM729:
 4523 16c8 0E94 0000 		call PCF8563_init
 4524               	.LBB206:
 4525               	.LBB207:
 4526               	.LM730:
 4527 16cc D79A      		sbi 58-0x20,7
 4528               	.LBE207:
 4529               	.LBE206:
 4530               	.LM731:
 4531 16ce 1092 0000 		sts (ReadDS18B20Count)+1,__zero_reg__
 4532 16d2 1092 0000 		sts ReadDS18B20Count,__zero_reg__
 4533               	.LM732:
 4534 16d6 1092 0000 		sts (AD_time_count)+1,__zero_reg__
 4535 16da 1092 0000 		sts AD_time_count,__zero_reg__
 4536               	.LM733:
 4537 16de 1092 0000 		sts (KEY_Time_count)+1,__zero_reg__
 4538 16e2 1092 0000 		sts KEY_Time_count,__zero_reg__
 4539               	.LM734:
 4540 16e6 0E94 0000 		call ds1820_reset
 4541               	.LM735:
 4542 16ea 0E94 0000 		call clearScreen
 4543               	.LM736:
 4544               	/* #APP */
 4545 16ee 7894      		sei
 4546               	/* #NOAPP */
 4547               	/* epilogue: frame size=0 */
 4548 16f0 0895      		ret
 4549               	/* epilogue end (size=1) */
 4550               	/* function init_devices size 36 (35) */
 4551               	.LFE71:
 4553               	.global	Show_welcome
 4555               	Show_welcome:
 4556               	.LFB45:
 4557               	.LM737:
 4558               	/* prologue: frame size=0 */
 4559 16f2 CF93      		push r28
 4560 16f4 DF93      		push r29
 4561               	/* prologue end (size=2) */
 4562               	.LM738:
 4563 16f6 8CE1      		ldi r24,lo8(28)
 4564 16f8 8093 0000 		sts RunParameter+21,r24
 4565               	.LM739:
 4566 16fc 40E0      		ldi r20,lo8(0)
 4567 16fe 60E0      		ldi r22,lo8(0)
 4568 1700 80E0      		ldi r24,lo8(0)
 4569 1702 0E94 0000 		call writeOneChinese
 4570               	.LM740:
 4571 1706 41E0      		ldi r20,lo8(1)
 4572 1708 60E0      		ldi r22,lo8(0)
 4573 170a 82E0      		ldi r24,lo8(2)
 4574 170c 0E94 0000 		call writeOneChinese
 4575               	.LM741:
 4576 1710 42E0      		ldi r20,lo8(2)
 4577 1712 60E0      		ldi r22,lo8(0)
 4578 1714 84E0      		ldi r24,lo8(4)
 4579 1716 0E94 0000 		call writeOneChinese
 4580               	.LM742:
 4581 171a 43E0      		ldi r20,lo8(3)
 4582 171c 60E0      		ldi r22,lo8(0)
 4583 171e 86E0      		ldi r24,lo8(6)
 4584 1720 0E94 0000 		call writeOneChinese
 4585               	.LM743:
 4586 1724 44E0      		ldi r20,lo8(4)
 4587 1726 60E1      		ldi r22,lo8(16)
 4588 1728 80E0      		ldi r24,lo8(0)
 4589 172a 0E94 0000 		call writeOneChinese
 4590               	.LM744:
 4591 172e 45E0      		ldi r20,lo8(5)
 4592 1730 60E1      		ldi r22,lo8(16)
 4593 1732 82E0      		ldi r24,lo8(2)
 4594 1734 0E94 0000 		call writeOneChinese
 4595               	.LM745:
 4596 1738 46E0      		ldi r20,lo8(6)
 4597 173a 60E1      		ldi r22,lo8(16)
 4598 173c 84E0      		ldi r24,lo8(4)
 4599 173e 0E94 0000 		call writeOneChinese
 4600               	.LM746:
 4601 1742 47E0      		ldi r20,lo8(7)
 4602 1744 60E1      		ldi r22,lo8(16)
 4603 1746 86E0      		ldi r24,lo8(6)
 4604 1748 0E94 0000 		call writeOneChinese
 4605 174c C0E0      		ldi r28,lo8(0)
 4606 174e D0E0      		ldi r29,hi8(0)
 4607               	.LVL210:
 4608               	.L560:
 4609               	.LM747:
 4610 1750 0E94 0000 		call display
 4611               	.LM748:
 4612 1754 8AE0      		ldi r24,lo8(10)
 4613 1756 90E0      		ldi r25,hi8(10)
 4614 1758 0E94 0000 		call s_10us
 4615               	.LM749:
 4616 175c 2196      		adiw r28,1
 4617 175e 83E1      		ldi r24,hi8(5000)
 4618 1760 C838      		cpi r28,lo8(5000)
 4619 1762 D807      		cpc r29,r24
 4620 1764 01F4      		brne .L560
 4621               	.LM750:
 4622 1766 0E94 0000 		call clearScreen
 4623               	.LM751:
 4624 176a 1092 0000 		sts RunParameter+21,__zero_reg__
 4625               	/* epilogue: frame size=0 */
 4626 176e DF91      		pop r29
 4627 1770 CF91      		pop r28
 4628 1772 0895      		ret
 4629               	/* epilogue end (size=3) */
 4630               	/* function Show_welcome size 65 (60) */
 4631               	.LFE45:
 4633               	.global	FreshDisplayBufferNormal
 4635               	FreshDisplayBufferNormal:
 4636               	.LFB42:
 4637               	.LM752:
 4638               	/* prologue: frame size=0 */
 4639               	/* prologue end (size=0) */
 4640               	.LM753:
 4641 1774 0E94 0000 		call clearScreen
 4642               	.LM754:
 4643 1778 4091 0000 		lds r20,RunParameter+8
 4644 177c 60E0      		ldi r22,lo8(0)
 4645 177e 80E0      		ldi r24,lo8(0)
 4646 1780 0E94 0000 		call wirteOneBigNumber
 4647               	.LM755:
 4648 1784 4091 0000 		lds r20,RunParameter+9
 4649 1788 60E0      		ldi r22,lo8(0)
 4650 178a 82E0      		ldi r24,lo8(2)
 4651 178c 0E94 0000 		call wirteOneBigNumber
 4652               	.LM756:
 4653 1790 4091 0000 		lds r20,RunParameter+10
 4654 1794 63E0      		ldi r22,lo8(3)
 4655 1796 84E0      		ldi r24,lo8(4)
 4656 1798 0E94 0000 		call wirteOneBigNumber
 4657               	.LM757:
 4658 179c 4091 0000 		lds r20,RunParameter+11
 4659 17a0 63E0      		ldi r22,lo8(3)
 4660 17a2 86E0      		ldi r24,lo8(6)
 4661 17a4 0E94 0000 		call wirteOneBigNumber
 4662               	.LM758:
 4663 17a8 4091 0000 		lds r20,RunParameter
 4664 17ac 67E1      		ldi r22,lo8(23)
 4665 17ae 80E0      		ldi r24,lo8(0)
 4666 17b0 0E94 0000 		call writeOneSCROLL
 4667               	.LM759:
 4668 17b4 4091 0000 		lds r20,RunParameter+1
 4669 17b8 67E1      		ldi r22,lo8(23)
 4670 17ba 81E0      		ldi r24,lo8(1)
 4671 17bc 0E94 0000 		call writeOneSCROLL
 4672               	.LM760:
 4673 17c0 4091 0000 		lds r20,RunParameter+2
 4674 17c4 67E1      		ldi r22,lo8(23)
 4675 17c6 82E0      		ldi r24,lo8(2)
 4676 17c8 0E94 0000 		call writeOneSCROLL
 4677               	.LM761:
 4678 17cc 4091 0000 		lds r20,RunParameter+3
 4679 17d0 67E1      		ldi r22,lo8(23)
 4680 17d2 83E0      		ldi r24,lo8(3)
 4681 17d4 0E94 0000 		call writeOneSCROLL
 4682               	.LM762:
 4683 17d8 4AE0      		ldi r20,lo8(10)
 4684 17da 67E1      		ldi r22,lo8(23)
 4685 17dc 84E0      		ldi r24,lo8(4)
 4686 17de 0E94 0000 		call writeOneSCROLL
 4687               	.LM763:
 4688 17e2 4091 0000 		lds r20,RunParameter+4
 4689 17e6 67E1      		ldi r22,lo8(23)
 4690 17e8 85E0      		ldi r24,lo8(5)
 4691 17ea 0E94 0000 		call writeOneSCROLL
 4692               	.LM764:
 4693 17ee 4091 0000 		lds r20,RunParameter+5
 4694 17f2 67E1      		ldi r22,lo8(23)
 4695 17f4 86E0      		ldi r24,lo8(6)
 4696 17f6 0E94 0000 		call writeOneSCROLL
 4697               	.LM765:
 4698 17fa 4BE0      		ldi r20,lo8(11)
 4699 17fc 67E1      		ldi r22,lo8(23)
 4700 17fe 87E0      		ldi r24,lo8(7)
 4701 1800 0E94 0000 		call writeOneSCROLL
 4702               	.LM766:
 4703 1804 4091 0000 		lds r20,RunParameter+6
 4704 1808 68E1      		ldi r22,lo8(24)
 4705 180a 80E0      		ldi r24,lo8(0)
 4706 180c 0E94 0000 		call writeOneSCROLL
 4707               	.LM767:
 4708 1810 4091 0000 		lds r20,RunParameter+7
 4709 1814 68E1      		ldi r22,lo8(24)
 4710 1816 81E0      		ldi r24,lo8(1)
 4711 1818 0E94 0000 		call writeOneSCROLL
 4712               	.LM768:
 4713 181c 44E1      		ldi r20,lo8(20)
 4714 181e 68E1      		ldi r22,lo8(24)
 4715 1820 82E0      		ldi r24,lo8(2)
 4716 1822 0E94 0000 		call writeOneSCROLL
 4717               	.LM769:
 4718 1826 4CE0      		ldi r20,lo8(12)
 4719 1828 68E1      		ldi r22,lo8(24)
 4720 182a 84E0      		ldi r24,lo8(4)
 4721 182c 0E94 0000 		call writeOneSCROLL
 4722               	.LM770:
 4723 1830 4091 0000 		lds r20,RunParameter+14
 4724 1834 435F      		subi r20,lo8(-(13))
 4725 1836 68E1      		ldi r22,lo8(24)
 4726 1838 85E0      		ldi r24,lo8(5)
 4727 183a 0E94 0000 		call writeOneSCROLL
 4728               	.LM771:
 4729 183e 4091 0000 		lds r20,RunParameter+15
 4730 1842 68E1      		ldi r22,lo8(24)
 4731 1844 87E0      		ldi r24,lo8(7)
 4732 1846 0E94 0000 		call writeOneSCROLL
 4733               	.LM772:
 4734 184a 4091 0000 		lds r20,RunParameter+16
 4735 184e 69E1      		ldi r22,lo8(25)
 4736 1850 80E0      		ldi r24,lo8(0)
 4737 1852 0E94 0000 		call writeOneSCROLL
 4738               	.LM773:
 4739 1856 45E1      		ldi r20,lo8(21)
 4740 1858 69E1      		ldi r22,lo8(25)
 4741 185a 81E0      		ldi r24,lo8(1)
 4742 185c 0E94 0000 		call writeOneSCROLL
 4743               	.LM774:
 4744 1860 4091 0000 		lds r20,RunParameter+17
 4745 1864 69E1      		ldi r22,lo8(25)
 4746 1866 82E0      		ldi r24,lo8(2)
 4747 1868 0E94 0000 		call writeOneSCROLL
 4748               	.LM775:
 4749 186c 4DE0      		ldi r20,lo8(13)
 4750 186e 69E1      		ldi r22,lo8(25)
 4751 1870 83E0      		ldi r24,lo8(3)
 4752 1872 0E94 0000 		call writeOneSCROLL
 4753               	/* epilogue: frame size=0 */
 4754 1876 0895      		ret
 4755               	/* epilogue end (size=1) */
 4756               	/* function FreshDisplayBufferNormal size 130 (129) */
 4757               	.LFE42:
 4759               	.global	FreshDisplayBufferAjustProofTime
 4761               	FreshDisplayBufferAjustProofTime:
 4762               	.LFB41:
 4763               	.LM776:
 4764               	/* prologue: frame size=0 */
 4765               	/* prologue end (size=0) */
 4766               	.LM777:
 4767 1878 0E94 0000 		call clearScreen
 4768               	.LM778:
 4769 187c 4DE1      		ldi r20,lo8(29)
 4770 187e 60E0      		ldi r22,lo8(0)
 4771 1880 80E0      		ldi r24,lo8(0)
 4772 1882 0E94 0000 		call writeOneChinese
 4773               	.LM779:
 4774 1886 4DE0      		ldi r20,lo8(13)
 4775 1888 60E1      		ldi r22,lo8(16)
 4776 188a 80E0      		ldi r24,lo8(0)
 4777 188c 0E94 0000 		call writeOneChinese
 4778               	.LM780:
 4779 1890 4AE1      		ldi r20,lo8(26)
 4780 1892 66E1      		ldi r22,lo8(22)
 4781 1894 86E0      		ldi r24,lo8(6)
 4782 1896 0E94 0000 		call writeOneUnSCROLL
 4783               	.LM781:
 4784 189a 4BE0      		ldi r20,lo8(11)
 4785 189c 66E1      		ldi r22,lo8(22)
 4786 189e 87E0      		ldi r24,lo8(7)
 4787 18a0 0E94 0000 		call writeOneUnSCROLL
 4788               	.LM782:
 4789 18a4 8091 0000 		lds r24,RunParameter+22
 4790 18a8 8823      		tst r24
 4791 18aa 01F0      		breq .L568
 4792               	.LM783:
 4793 18ac 4BE1      		ldi r20,lo8(27)
 4794 18ae 00C0      		rjmp .L572
 4795               	.L568:
 4796               	.LM784:
 4797 18b0 41E2      		ldi r20,lo8(33)
 4798               	.L572:
 4799 18b2 66E1      		ldi r22,lo8(22)
 4800 18b4 82E0      		ldi r24,lo8(2)
 4801 18b6 0E94 0000 		call writeOneUnSCROLL
 4802               	.LM785:
 4803 18ba 4091 0000 		lds r20,RunParameter+23
 4804 18be 60E0      		ldi r22,lo8(0)
 4805 18c0 83E0      		ldi r24,lo8(3)
 4806 18c2 0E94 0000 		call wirteOneBigNumber
 4807               	.LM786:
 4808 18c6 4091 0000 		lds r20,RunParameter+24
 4809 18ca 60E0      		ldi r22,lo8(0)
 4810 18cc 85E0      		ldi r24,lo8(5)
 4811 18ce 0E94 0000 		call wirteOneBigNumber
 4812               	.LM787:
 4813 18d2 48E1      		ldi r20,lo8(24)
 4814 18d4 6BE0      		ldi r22,lo8(11)
 4815 18d6 87E0      		ldi r24,lo8(7)
 4816 18d8 0E94 0000 		call writeOneUnSCROLL
 4817               	/* epilogue: frame size=0 */
 4818 18dc 0895      		ret
 4819               	/* epilogue end (size=1) */
 4820               	/* function FreshDisplayBufferAjustProofTime size 51 (50) */
 4821               	.LFE41:
 4823               	.global	FreshDisplayBufferChangeFont
 4825               	FreshDisplayBufferChangeFont:
 4826               	.LFB40:
 4827               	.LM788:
 4828               	/* prologue: frame size=0 */
 4829               	/* prologue end (size=0) */
 4830               	.LM789:
 4831 18de 0E94 0000 		call clearScreen
 4832               	.LM790:
 4833 18e2 48E0      		ldi r20,lo8(8)
 4834 18e4 60E0      		ldi r22,lo8(0)
 4835 18e6 80E0      		ldi r24,lo8(0)
 4836 18e8 0E94 0000 		call writeOneChinese
 4837               	.LM791:
 4838 18ec 49E0      		ldi r20,lo8(9)
 4839 18ee 60E0      		ldi r22,lo8(0)
 4840 18f0 82E0      		ldi r24,lo8(2)
 4841 18f2 0E94 0000 		call writeOneChinese
 4842               	.LM792:
 4843 18f6 4BE1      		ldi r20,lo8(27)
 4844 18f8 60E1      		ldi r22,lo8(16)
 4845 18fa 80E0      		ldi r24,lo8(0)
 4846 18fc 0E94 0000 		call writeOneChinese
 4847               	.LM793:
 4848 1900 4CE1      		ldi r20,lo8(28)
 4849 1902 60E1      		ldi r22,lo8(16)
 4850 1904 82E0      		ldi r24,lo8(2)
 4851 1906 0E94 0000 		call writeOneChinese
 4852               	.LM794:
 4853 190a 4EE1      		ldi r20,lo8(30)
 4854 190c 66E1      		ldi r22,lo8(22)
 4855 190e 84E0      		ldi r24,lo8(4)
 4856 1910 0E94 0000 		call writeOneUnSCROLL
 4857               	.LM795:
 4858 1914 43E0      		ldi r20,lo8(3)
 4859 1916 60E0      		ldi r22,lo8(0)
 4860 1918 85E0      		ldi r24,lo8(5)
 4861 191a 0E94 0000 		call wirteOneBigNumber
 4862               	/* epilogue: frame size=0 */
 4863 191e 0895      		ret
 4864               	/* epilogue end (size=1) */
 4865               	/* function FreshDisplayBufferChangeFont size 33 (32) */
 4866               	.LFE40:
 4868               	.global	FreshDisplayBufferAjustLightMode
 4870               	FreshDisplayBufferAjustLightMode:
 4871               	.LFB38:
 4872               	.LM796:
 4873               	/* prologue: frame size=0 */
 4874               	/* prologue end (size=0) */
 4875               	.LM797:
 4876 1920 0E94 0000 		call clearScreen
 4877               	.LM798:
 4878 1924 48E0      		ldi r20,lo8(8)
 4879 1926 60E0      		ldi r22,lo8(0)
 4880 1928 80E0      		ldi r24,lo8(0)
 4881 192a 0E94 0000 		call writeOneChinese
 4882               	.LM799:
 4883 192e 49E0      		ldi r20,lo8(9)
 4884 1930 60E0      		ldi r22,lo8(0)
 4885 1932 82E0      		ldi r24,lo8(2)
 4886 1934 0E94 0000 		call writeOneChinese
 4887               	.LM800:
 4888 1938 4CE0      		ldi r20,lo8(12)
 4889 193a 60E1      		ldi r22,lo8(16)
 4890 193c 80E0      		ldi r24,lo8(0)
 4891 193e 0E94 0000 		call writeOneChinese
 4892               	.LM801:
 4893 1942 4BE0      		ldi r20,lo8(11)
 4894 1944 60E1      		ldi r22,lo8(16)
 4895 1946 82E0      		ldi r24,lo8(2)
 4896 1948 0E94 0000 		call writeOneChinese
 4897               	.LM802:
 4898 194c 4EE1      		ldi r20,lo8(30)
 4899 194e 66E1      		ldi r22,lo8(22)
 4900 1950 84E0      		ldi r24,lo8(4)
 4901 1952 0E94 0000 		call writeOneUnSCROLL
 4902               	.LM803:
 4903 1956 8091 0000 		lds r24,RunParameter+18
 4904 195a 8823      		tst r24
 4905 195c 01F0      		breq .L576
 4906               	.LM804:
 4907 195e 49E1      		ldi r20,lo8(25)
 4908 1960 00C0      		rjmp .L580
 4909               	.L576:
 4910               	.LM805:
 4911 1962 48E1      		ldi r20,lo8(24)
 4912               	.L580:
 4913 1964 60E0      		ldi r22,lo8(0)
 4914 1966 86E0      		ldi r24,lo8(6)
 4915 1968 0E94 0000 		call writeOneChinese
 4916               	.LM806:
 4917 196c 4AE1      		ldi r20,lo8(26)
 4918 196e 60E1      		ldi r22,lo8(16)
 4919 1970 86E0      		ldi r24,lo8(6)
 4920 1972 0E94 0000 		call writeOneChinese
 4921               	/* epilogue: frame size=0 */
 4922 1976 0895      		ret
 4923               	/* epilogue end (size=1) */
 4924               	/* function FreshDisplayBufferAjustLightMode size 44 (43) */
 4925               	.LFE38:
 4927               	.global	FreshDisplayBufferAjustLight
 4929               	FreshDisplayBufferAjustLight:
 4930               	.LFB39:
 4931               	.LM807:
 4932               	/* prologue: frame size=0 */
 4933               	/* prologue end (size=0) */
 4934               	.LM808:
 4935 1978 0E94 0000 		call clearScreen
 4936               	.LM809:
 4937 197c 8091 0000 		lds r24,RunParameter+18
 4938 1980 8823      		tst r24
 4939 1982 01F0      		breq .L582
 4940               	.LM810:
 4941 1984 48E0      		ldi r20,lo8(8)
 4942 1986 60E0      		ldi r22,lo8(0)
 4943 1988 80E0      		ldi r24,lo8(0)
 4944 198a 0E94 0000 		call writeOneChinese
 4945               	.LM811:
 4946 198e 49E0      		ldi r20,lo8(9)
 4947 1990 60E0      		ldi r22,lo8(0)
 4948 1992 82E0      		ldi r24,lo8(2)
 4949 1994 0E94 0000 		call writeOneChinese
 4950               	.LM812:
 4951 1998 4CE0      		ldi r20,lo8(12)
 4952 199a 60E1      		ldi r22,lo8(16)
 4953 199c 80E0      		ldi r24,lo8(0)
 4954 199e 0E94 0000 		call writeOneChinese
 4955               	.LM813:
 4956 19a2 4BE0      		ldi r20,lo8(11)
 4957 19a4 60E1      		ldi r22,lo8(16)
 4958 19a6 82E0      		ldi r24,lo8(2)
 4959 19a8 0E94 0000 		call writeOneChinese
 4960               	.LM814:
 4961 19ac 4EE1      		ldi r20,lo8(30)
 4962 19ae 66E1      		ldi r22,lo8(22)
 4963 19b0 84E0      		ldi r24,lo8(4)
 4964 19b2 0E94 0000 		call writeOneUnSCROLL
 4965               	.LM815:
 4966 19b6 4091 0000 		lds r20,RunParameter+19
 4967 19ba 60E0      		ldi r22,lo8(0)
 4968 19bc 85E0      		ldi r24,lo8(5)
 4969 19be 0E94 0000 		call wirteOneBigNumber
 4970 19c2 0895      		ret
 4971               	.L582:
 4972               	.LM816:
 4973 19c4 0E94 0000 		call FreshDisplayBufferAjustLightMode
 4974 19c8 0895      		ret
 4975               	/* epilogue: frame size=0 */
 4976               	/* epilogue: noreturn */
 4977               	/* epilogue end (size=0) */
 4978               	/* function FreshDisplayBufferAjustLight size 41 (41) */
 4979               	.LFE39:
 4981               	.global	FreshDisplayBufferVoiceMode
 4983               	FreshDisplayBufferVoiceMode:
 4984               	.LFB37:
 4985               	.LM817:
 4986               	/* prologue: frame size=0 */
 4987               	/* prologue end (size=0) */
 4988               	.LM818:
 4989 19ca 0E94 0000 		call clearScreen
 4990               	.LM819:
 4991 19ce 48E2      		ldi r20,lo8(40)
 4992 19d0 60E0      		ldi r22,lo8(0)
 4993 19d2 80E0      		ldi r24,lo8(0)
 4994 19d4 0E94 0000 		call writeOneChinese
 4995               	.LM820:
 4996 19d8 49E2      		ldi r20,lo8(41)
 4997 19da 60E0      		ldi r22,lo8(0)
 4998 19dc 82E0      		ldi r24,lo8(2)
 4999 19de 0E94 0000 		call writeOneChinese
 5000               	.LM821:
 5001 19e2 4AE2      		ldi r20,lo8(42)
 5002 19e4 60E1      		ldi r22,lo8(16)
 5003 19e6 80E0      		ldi r24,lo8(0)
 5004 19e8 0E94 0000 		call writeOneChinese
 5005               	.LM822:
 5006 19ec 4DE0      		ldi r20,lo8(13)
 5007 19ee 60E1      		ldi r22,lo8(16)
 5008 19f0 82E0      		ldi r24,lo8(2)
 5009 19f2 0E94 0000 		call writeOneChinese
 5010               	.LM823:
 5011 19f6 4EE1      		ldi r20,lo8(30)
 5012 19f8 66E1      		ldi r22,lo8(22)
 5013 19fa 84E0      		ldi r24,lo8(4)
 5014 19fc 0E94 0000 		call writeOneUnSCROLL
 5015               	.LM824:
 5016 1a00 8091 0000 		lds r24,RunParameter+28
 5017 1a04 8823      		tst r24
 5018 1a06 01F4      		brne .L587
 5019               	.LM825:
 5020 1a08 4BE2      		ldi r20,lo8(43)
 5021 1a0a 60E0      		ldi r22,lo8(0)
 5022 1a0c 86E0      		ldi r24,lo8(6)
 5023 1a0e 0E94 0000 		call writeOneChinese
 5024               	.LM826:
 5025 1a12 4CE2      		ldi r20,lo8(44)
 5026 1a14 00C0      		rjmp .L593
 5027               	.L587:
 5028               	.LM827:
 5029 1a16 8130      		cpi r24,lo8(1)
 5030 1a18 01F4      		brne .L590
 5031               	.LM828:
 5032 1a1a 4DE2      		ldi r20,lo8(45)
 5033 1a1c 60E0      		ldi r22,lo8(0)
 5034 1a1e 86E0      		ldi r24,lo8(6)
 5035 1a20 0E94 0000 		call writeOneChinese
 5036               	.LM829:
 5037 1a24 4EE2      		ldi r20,lo8(46)
 5038 1a26 00C0      		rjmp .L593
 5039               	.L590:
 5040               	.LM830:
 5041 1a28 4FE2      		ldi r20,lo8(47)
 5042 1a2a 60E0      		ldi r22,lo8(0)
 5043 1a2c 86E0      		ldi r24,lo8(6)
 5044 1a2e 0E94 0000 		call writeOneChinese
 5045               	.LM831:
 5046 1a32 40E3      		ldi r20,lo8(48)
 5047               	.L593:
 5048 1a34 60E1      		ldi r22,lo8(16)
 5049 1a36 86E0      		ldi r24,lo8(6)
 5050 1a38 0E94 0000 		call writeOneChinese
 5051 1a3c 0895      		ret
 5052               	/* epilogue: frame size=0 */
 5053               	/* epilogue: noreturn */
 5054               	/* epilogue end (size=0) */
 5055               	/* function FreshDisplayBufferVoiceMode size 58 (58) */
 5056               	.LFE37:
 5058               	.global	FreshDisplayBufferAjustSpeed
 5060               	FreshDisplayBufferAjustSpeed:
 5061               	.LFB36:
 5062               	.LM832:
 5063               	/* prologue: frame size=0 */
 5064               	/* prologue end (size=0) */
 5065               	.LM833:
 5066 1a3e 0E94 0000 		call clearScreen
 5067               	.LM834:
 5068 1a42 48E0      		ldi r20,lo8(8)
 5069 1a44 60E0      		ldi r22,lo8(0)
 5070 1a46 80E0      		ldi r24,lo8(0)
 5071 1a48 0E94 0000 		call writeOneChinese
 5072               	.LM835:
 5073 1a4c 49E0      		ldi r20,lo8(9)
 5074 1a4e 60E0      		ldi r22,lo8(0)
 5075 1a50 82E0      		ldi r24,lo8(2)
 5076 1a52 0E94 0000 		call writeOneChinese
 5077               	.LM836:
 5078 1a56 4AE0      		ldi r20,lo8(10)
 5079 1a58 60E1      		ldi r22,lo8(16)
 5080 1a5a 80E0      		ldi r24,lo8(0)
 5081 1a5c 0E94 0000 		call writeOneChinese
 5082               	.LM837:
 5083 1a60 4BE0      		ldi r20,lo8(11)
 5084 1a62 60E1      		ldi r22,lo8(16)
 5085 1a64 82E0      		ldi r24,lo8(2)
 5086 1a66 0E94 0000 		call writeOneChinese
 5087               	.LM838:
 5088 1a6a 4EE1      		ldi r20,lo8(30)
 5089 1a6c 66E1      		ldi r22,lo8(22)
 5090 1a6e 84E0      		ldi r24,lo8(4)
 5091 1a70 0E94 0000 		call writeOneUnSCROLL
 5092               	.LM839:
 5093 1a74 4091 0000 		lds r20,RunParameter+20
 5094 1a78 60E0      		ldi r22,lo8(0)
 5095 1a7a 85E0      		ldi r24,lo8(5)
 5096 1a7c 0E94 0000 		call wirteOneBigNumber
 5097               	/* epilogue: frame size=0 */
 5098 1a80 0895      		ret
 5099               	/* epilogue end (size=1) */
 5100               	/* function FreshDisplayBufferAjustSpeed size 34 (33) */
 5101               	.LFE36:
 5103               	.global	FreshDisplayBufferAjustWeek
 5105               	FreshDisplayBufferAjustWeek:
 5106               	.LFB35:
 5107               	.LM840:
 5108               	/* prologue: frame size=0 */
 5109               	/* prologue end (size=0) */
 5110               	.LM841:
 5111 1a82 0E94 0000 		call clearScreen
 5112               	.LM842:
 5113 1a86 48E0      		ldi r20,lo8(8)
 5114 1a88 60E0      		ldi r22,lo8(0)
 5115 1a8a 80E0      		ldi r24,lo8(0)
 5116 1a8c 0E94 0000 		call writeOneChinese
 5117               	.LM843:
 5118 1a90 49E0      		ldi r20,lo8(9)
 5119 1a92 60E0      		ldi r22,lo8(0)
 5120 1a94 82E0      		ldi r24,lo8(2)
 5121 1a96 0E94 0000 		call writeOneChinese
 5122               	.LM844:
 5123 1a9a 45E1      		ldi r20,lo8(21)
 5124 1a9c 60E1      		ldi r22,lo8(16)
 5125 1a9e 80E0      		ldi r24,lo8(0)
 5126 1aa0 0E94 0000 		call writeOneChinese
 5127               	.LM845:
 5128 1aa4 46E1      		ldi r20,lo8(22)
 5129 1aa6 60E1      		ldi r22,lo8(16)
 5130 1aa8 82E0      		ldi r24,lo8(2)
 5131 1aaa 0E94 0000 		call writeOneChinese
 5132               	.LM846:
 5133 1aae 4EE1      		ldi r20,lo8(30)
 5134 1ab0 66E1      		ldi r22,lo8(22)
 5135 1ab2 84E0      		ldi r24,lo8(4)
 5136 1ab4 0E94 0000 		call writeOneUnSCROLL
 5137               	.LM847:
 5138 1ab8 4091 0000 		lds r20,RunParameter+14
 5139 1abc 60E0      		ldi r22,lo8(0)
 5140 1abe 85E0      		ldi r24,lo8(5)
 5141 1ac0 0E94 0000 		call wirteOneBigNumber
 5142               	/* epilogue: frame size=0 */
 5143 1ac4 0895      		ret
 5144               	/* epilogue end (size=1) */
 5145               	/* function FreshDisplayBufferAjustWeek size 34 (33) */
 5146               	.LFE35:
 5148               	.global	FreshDisplayComment
 5150               	FreshDisplayComment:
 5151               	.LFB29:
 5152               	.LM848:
 5153               	/* prologue: frame size=0 */
 5154 1ac6 DF92      		push r13
 5155 1ac8 EF92      		push r14
 5156 1aca FF92      		push r15
 5157 1acc 0F93      		push r16
 5158 1ace 1F93      		push r17
 5159               	/* prologue end (size=5) */
 5160               	.LVL211:
 5161 1ad0 8C01      		movw r16,r24
 5162 1ad2 7B01      		movw r14,r22
 5163 1ad4 D42E      		mov r13,r20
 5164               	.LM849:
 5165 1ad6 0E94 0000 		call clearScreen
 5166               	.LVL212:
 5167               	.LM850:
 5168 1ada 48E0      		ldi r20,lo8(8)
 5169 1adc 60E0      		ldi r22,lo8(0)
 5170 1ade 80E0      		ldi r24,lo8(0)
 5171 1ae0 0E94 0000 		call writeOneChinese
 5172               	.LM851:
 5173 1ae4 49E0      		ldi r20,lo8(9)
 5174 1ae6 60E1      		ldi r22,lo8(16)
 5175 1ae8 80E0      		ldi r24,lo8(0)
 5176 1aea 0E94 0000 		call writeOneChinese
 5177               	.LM852:
 5178 1aee F801      		movw r30,r16
 5179 1af0 4081      		ld r20,Z
 5180 1af2 60E0      		ldi r22,lo8(0)
 5181 1af4 82E0      		ldi r24,lo8(2)
 5182 1af6 0E94 0000 		call wirteOneBigNumber
 5183               	.LM853:
 5184 1afa F701      		movw r30,r14
 5185 1afc 4081      		ld r20,Z
 5186 1afe 60E0      		ldi r22,lo8(0)
 5187 1b00 84E0      		ldi r24,lo8(4)
 5188 1b02 0E94 0000 		call wirteOneBigNumber
 5189               	.LM854:
 5190 1b06 4D2D      		mov r20,r13
 5191 1b08 60E1      		ldi r22,lo8(16)
 5192 1b0a 86E0      		ldi r24,lo8(6)
 5193 1b0c 0E94 0000 		call writeOneChinese
 5194               	/* epilogue: frame size=0 */
 5195 1b10 1F91      		pop r17
 5196 1b12 0F91      		pop r16
 5197 1b14 FF90      		pop r15
 5198 1b16 EF90      		pop r14
 5199 1b18 DF90      		pop r13
 5200 1b1a 0895      		ret
 5201               	/* epilogue end (size=6) */
 5202               	/* function FreshDisplayComment size 43 (32) */
 5203               	.LFE29:
 5205               	.global	FreshDisplayBufferAjustMinute
 5207               	FreshDisplayBufferAjustMinute:
 5208               	.LFB34:
 5209               	.LM855:
 5210               	/* prologue: frame size=0 */
 5211               	/* prologue end (size=0) */
 5212               	.LM856:
 5213 1b1c 80E0      		ldi r24,lo8(RunParameter+11)
 5214 1b1e 90E0      		ldi r25,hi8(RunParameter+11)
 5215 1b20 42E1      		ldi r20,lo8(18)
 5216 1b22 BC01      		movw r22,r24
 5217 1b24 0197      		sbiw r24,1
 5218 1b26 0E94 0000 		call FreshDisplayComment
 5219               	/* epilogue: frame size=0 */
 5220 1b2a 0895      		ret
 5221               	/* epilogue end (size=1) */
 5222               	/* function FreshDisplayBufferAjustMinute size 8 (7) */
 5223               	.LFE34:
 5225               	.global	FreshDisplayBufferAjustHour
 5227               	FreshDisplayBufferAjustHour:
 5228               	.LFB33:
 5229               	.LM857:
 5230               	/* prologue: frame size=0 */
 5231               	/* prologue end (size=0) */
 5232               	.LM858:
 5233 1b2c 80E0      		ldi r24,lo8(RunParameter+9)
 5234 1b2e 90E0      		ldi r25,hi8(RunParameter+9)
 5235 1b30 4DE0      		ldi r20,lo8(13)
 5236 1b32 BC01      		movw r22,r24
 5237 1b34 0197      		sbiw r24,1
 5238 1b36 0E94 0000 		call FreshDisplayComment
 5239               	/* epilogue: frame size=0 */
 5240 1b3a 0895      		ret
 5241               	/* epilogue end (size=1) */
 5242               	/* function FreshDisplayBufferAjustHour size 8 (7) */
 5243               	.LFE33:
 5245               	.global	FreshDisplayBufferAjustDay
 5247               	FreshDisplayBufferAjustDay:
 5248               	.LFB32:
 5249               	.LM859:
 5250               	/* prologue: frame size=0 */
 5251               	/* prologue end (size=0) */
 5252               	.LM860:
 5253 1b3c 80E0      		ldi r24,lo8(RunParameter+7)
 5254 1b3e 90E0      		ldi r25,hi8(RunParameter+7)
 5255 1b40 41E1      		ldi r20,lo8(17)
 5256 1b42 BC01      		movw r22,r24
 5257 1b44 0197      		sbiw r24,1
 5258 1b46 0E94 0000 		call FreshDisplayComment
 5259               	/* epilogue: frame size=0 */
 5260 1b4a 0895      		ret
 5261               	/* epilogue end (size=1) */
 5262               	/* function FreshDisplayBufferAjustDay size 8 (7) */
 5263               	.LFE32:
 5265               	.global	FreshDisplayBufferAjustMonth
 5267               	FreshDisplayBufferAjustMonth:
 5268               	.LFB31:
 5269               	.LM861:
 5270               	/* prologue: frame size=0 */
 5271               	/* prologue end (size=0) */
 5272               	.LM862:
 5273 1b4c 80E0      		ldi r24,lo8(RunParameter+5)
 5274 1b4e 90E0      		ldi r25,hi8(RunParameter+5)
 5275 1b50 40E1      		ldi r20,lo8(16)
 5276 1b52 BC01      		movw r22,r24
 5277 1b54 0197      		sbiw r24,1
 5278 1b56 0E94 0000 		call FreshDisplayComment
 5279               	/* epilogue: frame size=0 */
 5280 1b5a 0895      		ret
 5281               	/* epilogue end (size=1) */
 5282               	/* function FreshDisplayBufferAjustMonth size 8 (7) */
 5283               	.LFE31:
 5285               	.global	FreshDisplayBufferAjustYear
 5287               	FreshDisplayBufferAjustYear:
 5288               	.LFB30:
 5289               	.LM863:
 5290               	/* prologue: frame size=0 */
 5291               	/* prologue end (size=0) */
 5292               	.LM864:
 5293 1b5c 80E0      		ldi r24,lo8(RunParameter+3)
 5294 1b5e 90E0      		ldi r25,hi8(RunParameter+3)
 5295 1b60 4FE0      		ldi r20,lo8(15)
 5296 1b62 BC01      		movw r22,r24
 5297 1b64 0197      		sbiw r24,1
 5298 1b66 0E94 0000 		call FreshDisplayComment
 5299               	/* epilogue: frame size=0 */
 5300 1b6a 0895      		ret
 5301               	/* epilogue end (size=1) */
 5302               	/* function FreshDisplayBufferAjustYear size 8 (7) */
 5303               	.LFE30:
 5305               	.global	Scan_Key
 5307               	Scan_Key:
 5308               	.LFB64:
 5309               	.LM865:
 5310               	/* prologue: frame size=1 */
 5311 1b6c 0F93      		push r16
 5312 1b6e 1F93      		push r17
 5313 1b70 CF93      		push r28
 5314 1b72 DF93      		push r29
 5315 1b74 CDB7      		in r28,__SP_L__
 5316 1b76 DEB7      		in r29,__SP_H__
 5317 1b78 2197      		sbiw r28,1
 5318 1b7a 0FB6      		in __tmp_reg__,__SREG__
 5319 1b7c F894      		cli
 5320 1b7e DEBF      		out __SP_H__,r29
 5321 1b80 0FBE      		out __SREG__,__tmp_reg__
 5322 1b82 CDBF      		out __SP_L__,r28
 5323               	/* prologue end (size=12) */
 5324               	.LM866:
 5325 1b84 8091 0000 		lds r24,RunParameter+21
 5326 1b88 8823      		tst r24
 5327 1b8a 01F0      		breq .L611
 5328               	.LM867:
 5329 1b8c 8B31      		cpi r24,lo8(27)
 5330 1b8e 01F0      		breq .L611
 5331 1b90 8A31      		cpi r24,lo8(26)
 5332 1b92 01F0      		breq .L611
 5333 1b94 8091 0000 		lds r24,KEY_Time_count
 5334 1b98 9091 0000 		lds r25,(KEY_Time_count)+1
 5335 1b9c 8950      		subi r24,lo8(21001)
 5336 1b9e 9245      		sbci r25,hi8(21001)
 5337 1ba0 00F0      		brlo .L611
 5338               	.LM868:
 5339 1ba2 1092 0000 		sts RunParameter+21,__zero_reg__
 5340               	.LM869:
 5341 1ba6 0E94 0000 		call Write_time
 5342               	.LM870:
 5343 1baa 0E94 0000 		call SaveRunParameter
 5344               	.LM871:
 5345 1bae 0E94 0000 		call clearScreen
 5346               	.LM872:
 5347 1bb2 0E94 0000 		call FreshDisplayBufferNormal
 5348               	.L611:
 5349               	.LM873:
 5350 1bb6 8091 0000 		lds r24,RunParameter+21
 5351 1bba 8A51      		subi r24,lo8(-(-26))
 5352 1bbc 8230      		cpi r24,lo8(2)
 5353 1bbe 00F4      		brsh .L616
 5354               	.LM874:
 5355 1bc0 8091 0000 		lds r24,KEY_Time_count_speed_color
 5356 1bc4 9091 0000 		lds r25,(KEY_Time_count_speed_color)+1
 5357 1bc8 855F      		subi r24,lo8(501)
 5358 1bca 9140      		sbci r25,hi8(501)
 5359 1bcc 00F0      		brlo .L616
 5360               	.LM875:
 5361 1bce 1092 0000 		sts RunParameter+21,__zero_reg__
 5362               	.LM876:
 5363 1bd2 0E94 0000 		call SaveRunParameter
 5364               	.LM877:
 5365 1bd6 0E94 0000 		call FreshDisplayBufferNormal
 5366               	.L616:
 5367               	.LM878:
 5368 1bda 8199      		sbic 48-0x20,1
 5369 1bdc 00C0      		rjmp .L619
 5370               	.LBB208:
 5371               	.LBB209:
 5372               	.LBB210:
 5373               	.LBB211:
 5374               	.LM879:
 5375 1bde 80E2      		ldi r24,lo8(20000)
 5376 1be0 9EE4      		ldi r25,hi8(20000)
 5377               	.LVL213:
 5378               	/* #APP */
 5379 1be2 0197      		1: sbiw r24,1
 5380 1be4 01F4      		brne 1b
 5381               	/* #NOAPP */
 5382               	.LBE211:
 5383               	.LBE210:
 5384               	.LBE209:
 5385               	.LBE208:
 5386               	.LM880:
 5387 1be6 8199      		sbic 48-0x20,1
 5388 1be8 00C0      		rjmp .L695
 5389               	.LM881:
 5390 1bea 81E0      		ldi r24,lo8(1)
 5391               	.LVL214:
 5392 1bec 8093 0000 		sts SPEEK_TIME_Status,r24
 5393               	.LM882:
 5394 1bf0 8091 0000 		lds r24,RunParameter+26
 5395 1bf4 8F5F      		subi r24,lo8(-(1))
 5396 1bf6 8093 0000 		sts RunParameter+26,r24
 5397               	.LM883:
 5398 1bfa 8730      		cpi r24,lo8(7)
 5399 1bfc 00F0      		brlo .L623
 5400               	.LM884:
 5401 1bfe 1092 0000 		sts RunParameter+26,__zero_reg__
 5402               	.L623:
 5403               	.LM885:
 5404 1c02 0E94 0000 		call SaveRunParameter
 5405               	.LVL215:
 5406               	.L695:
 5407               	.LM886:
 5408 1c06 819B      		sbis 48-0x20,1
 5409 1c08 00C0      		rjmp .L695
 5410               	.L619:
 5411               	.LM887:
 5412 1c0a 8091 0000 		lds r24,RunParameter+21
 5413               	.LVL216:
 5414 1c0e 8823      		tst r24
 5415 1c10 01F0      		breq .L625
 5416 1c12 8B31      		cpi r24,lo8(27)
 5417 1c14 01F0      		breq .L625
 5418 1c16 8A31      		cpi r24,lo8(26)
 5419 1c18 01F0      		breq .+2
 5420 1c1a 00C0      		rjmp .L628
 5421               	.L625:
 5422               	.LM888:
 5423 1c1c 9E99      		sbic 51-0x20,6
 5424 1c1e 00C0      		rjmp .L629
 5425               	.LBB212:
 5426               	.LBB213:
 5427               	.LBB214:
 5428               	.LBB215:
 5429               	.LM889:
 5430 1c20 80E2      		ldi r24,lo8(20000)
 5431 1c22 9EE4      		ldi r25,hi8(20000)
 5432               	.LVL217:
 5433               	/* #APP */
 5434 1c24 0197      		1: sbiw r24,1
 5435 1c26 01F4      		brne 1b
 5436               	/* #NOAPP */
 5437               	.LBE215:
 5438               	.LBE214:
 5439               	.LBE213:
 5440               	.LBE212:
 5441               	.LM890:
 5442 1c28 9E99      		sbic 51-0x20,6
 5443 1c2a 00C0      		rjmp .L698
 5444               	.LM891:
 5445 1c2c 84E6      		ldi r24,lo8(100)
 5446               	.LVL218:
 5447 1c2e 8093 0000 		sts SPEEK_TIME_Status,r24
 5448               	.LM892:
 5449 1c32 8091 0000 		lds r24,RunParameter+18
 5450 1c36 8823      		tst r24
 5451 1c38 01F0      		breq .L633
 5452               	.LM893:
 5453 1c3a 8091 0000 		lds r24,RunParameter+19
 5454 1c3e 8F5F      		subi r24,lo8(-(1))
 5455 1c40 8093 0000 		sts RunParameter+19,r24
 5456               	.LM894:
 5457 1c44 8930      		cpi r24,lo8(9)
 5458 1c46 00F0      		brlo .L635
 5459               	.LM895:
 5460 1c48 81E0      		ldi r24,lo8(1)
 5461 1c4a 8093 0000 		sts RunParameter+19,r24
 5462               	.L635:
 5463               	.LM896:
 5464 1c4e 8091 0000 		lds r24,RunParameter+19
 5465 1c52 29E1      		ldi r18,lo8(25)
 5466 1c54 829F      		mul r24,r18
 5467 1c56 C001      		movw r24,r0
 5468 1c58 1124      		clr r1
 5469 1c5a 8951      		subi r24,lo8(-(-25))
 5470 1c5c 8CBF      		out 92-0x20,r24
 5471               	.L633:
 5472               	.LM897:
 5473 1c5e 8BE1      		ldi r24,lo8(27)
 5474 1c60 8093 0000 		sts RunParameter+21,r24
 5475               	.LM898:
 5476 1c64 1092 0000 		sts (KEY_Time_count_speed_color)+1,__zero_reg__
 5477 1c68 1092 0000 		sts KEY_Time_count_speed_color,__zero_reg__
 5478               	.LM899:
 5479 1c6c 0E94 0000 		call FreshDisplayBufferAjustLight
 5480               	.LVL219:
 5481               	.L698:
 5482               	.LM900:
 5483 1c70 9E9B      		sbis 51-0x20,6
 5484 1c72 00C0      		rjmp .L698
 5485               	.L629:
 5486               	.LM901:
 5487 1c74 9F99      		sbic 51-0x20,7
 5488 1c76 00C0      		rjmp .L637
 5489               	.LBB216:
 5490               	.LBB217:
 5491               	.LBB218:
 5492               	.LBB219:
 5493               	.LM902:
 5494 1c78 80E2      		ldi r24,lo8(20000)
 5495 1c7a 9EE4      		ldi r25,hi8(20000)
 5496               	.LVL220:
 5497               	/* #APP */
 5498 1c7c 0197      		1: sbiw r24,1
 5499 1c7e 01F4      		brne 1b
 5500               	/* #NOAPP */
 5501               	.LBE219:
 5502               	.LBE218:
 5503               	.LBE217:
 5504               	.LBE216:
 5505               	.LM903:
 5506 1c80 9F99      		sbic 51-0x20,7
 5507 1c82 00C0      		rjmp .L699
 5508               	.LM904:
 5509 1c84 84E6      		ldi r24,lo8(100)
 5510               	.LVL221:
 5511 1c86 8093 0000 		sts SPEEK_TIME_Status,r24
 5512               	.LM905:
 5513 1c8a 8091 0000 		lds r24,RunParameter+20
 5514 1c8e 8F5F      		subi r24,lo8(-(1))
 5515 1c90 8093 0000 		sts RunParameter+20,r24
 5516               	.LM906:
 5517 1c94 8930      		cpi r24,lo8(9)
 5518 1c96 00F0      		brlo .L641
 5519               	.LM907:
 5520 1c98 81E0      		ldi r24,lo8(1)
 5521 1c9a 8093 0000 		sts RunParameter+20,r24
 5522               	.L641:
 5523               	.LM908:
 5524 1c9e 8AE1      		ldi r24,lo8(26)
 5525 1ca0 8093 0000 		sts RunParameter+21,r24
 5526               	.LM909:
 5527 1ca4 1092 0000 		sts (KEY_Time_count_speed_color)+1,__zero_reg__
 5528 1ca8 1092 0000 		sts KEY_Time_count_speed_color,__zero_reg__
 5529               	.LM910:
 5530 1cac 0E94 0000 		call FreshDisplayBufferAjustSpeed
 5531               	.LVL222:
 5532               	.L699:
 5533               	.LM911:
 5534 1cb0 9F99      		sbic 51-0x20,7
 5535 1cb2 00C0      		rjmp .L637
 5536 1cb4 00C0      		rjmp .L699
 5537               	.LVL223:
 5538               	.L628:
 5539               	.LM912:
 5540 1cb6 8130      		cpi r24,lo8(1)
 5541 1cb8 01F4      		brne .L643
 5542               	.LM913:
 5543 1cba 00E0      		ldi r16,lo8(gs(FreshDisplayBufferAjustYear))
 5544 1cbc 10E0      		ldi r17,hi8(gs(FreshDisplayBufferAjustYear))
 5545 1cbe 20E0      		ldi r18,lo8(RunParameter+3)
 5546 1cc0 30E0      		ldi r19,hi8(RunParameter+3)
 5547 1cc2 40E0      		ldi r20,lo8(RunParameter+2)
 5548 1cc4 50E0      		ldi r21,hi8(RunParameter+2)
 5549 1cc6 60E0      		ldi r22,lo8(0)
 5550 1cc8 83E6      		ldi r24,lo8(99)
 5551 1cca 00C0      		rjmp .L707
 5552               	.L643:
 5553               	.LM914:
 5554 1ccc 8230      		cpi r24,lo8(2)
 5555 1cce 01F4      		brne .L645
 5556               	.LM915:
 5557 1cd0 00E0      		ldi r16,lo8(gs(FreshDisplayBufferAjustMonth))
 5558 1cd2 10E0      		ldi r17,hi8(gs(FreshDisplayBufferAjustMonth))
 5559 1cd4 20E0      		ldi r18,lo8(RunParameter+5)
 5560 1cd6 30E0      		ldi r19,hi8(RunParameter+5)
 5561 1cd8 40E0      		ldi r20,lo8(RunParameter+4)
 5562 1cda 50E0      		ldi r21,hi8(RunParameter+4)
 5563 1cdc 61E0      		ldi r22,lo8(1)
 5564 1cde 8CE0      		ldi r24,lo8(12)
 5565 1ce0 00C0      		rjmp .L707
 5566               	.L645:
 5567               	.LM916:
 5568 1ce2 8330      		cpi r24,lo8(3)
 5569 1ce4 01F4      		brne .L647
 5570               	.LM917:
 5571 1ce6 00E0      		ldi r16,lo8(gs(FreshDisplayBufferAjustDay))
 5572 1ce8 10E0      		ldi r17,hi8(gs(FreshDisplayBufferAjustDay))
 5573 1cea 20E0      		ldi r18,lo8(RunParameter+7)
 5574 1cec 30E0      		ldi r19,hi8(RunParameter+7)
 5575 1cee 40E0      		ldi r20,lo8(RunParameter+6)
 5576 1cf0 50E0      		ldi r21,hi8(RunParameter+6)
 5577 1cf2 61E0      		ldi r22,lo8(1)
 5578 1cf4 8FE1      		ldi r24,lo8(31)
 5579 1cf6 00C0      		rjmp .L707
 5580               	.L647:
 5581               	.LM918:
 5582 1cf8 8430      		cpi r24,lo8(4)
 5583 1cfa 01F4      		brne .L649
 5584               	.LM919:
 5585 1cfc 00E0      		ldi r16,lo8(gs(FreshDisplayBufferAjustHour))
 5586 1cfe 10E0      		ldi r17,hi8(gs(FreshDisplayBufferAjustHour))
 5587 1d00 20E0      		ldi r18,lo8(RunParameter+9)
 5588 1d02 30E0      		ldi r19,hi8(RunParameter+9)
 5589 1d04 40E0      		ldi r20,lo8(RunParameter+8)
 5590 1d06 50E0      		ldi r21,hi8(RunParameter+8)
 5591 1d08 60E0      		ldi r22,lo8(0)
 5592 1d0a 87E1      		ldi r24,lo8(23)
 5593 1d0c 00C0      		rjmp .L707
 5594               	.L649:
 5595               	.LM920:
 5596 1d0e 8530      		cpi r24,lo8(5)
 5597 1d10 01F4      		brne .L651
 5598               	.LM921:
 5599 1d12 00E0      		ldi r16,lo8(gs(FreshDisplayBufferAjustMinute))
 5600 1d14 10E0      		ldi r17,hi8(gs(FreshDisplayBufferAjustMinute))
 5601 1d16 20E0      		ldi r18,lo8(RunParameter+11)
 5602 1d18 30E0      		ldi r19,hi8(RunParameter+11)
 5603 1d1a 40E0      		ldi r20,lo8(RunParameter+10)
 5604 1d1c 50E0      		ldi r21,hi8(RunParameter+10)
 5605 1d1e 60E0      		ldi r22,lo8(0)
 5606 1d20 8BE3      		ldi r24,lo8(59)
 5607 1d22 00C0      		rjmp .L707
 5608               	.L651:
 5609               	.LM922:
 5610 1d24 8630      		cpi r24,lo8(6)
 5611 1d26 01F4      		brne .L653
 5612               	.LBB220:
 5613               	.LM923:
 5614 1d28 1982      		std Y+1,__zero_reg__
 5615               	.LVL224:
 5616               	.LM924:
 5617 1d2a 00E0      		ldi r16,lo8(gs(FreshDisplayBufferAjustWeek))
 5618 1d2c 10E0      		ldi r17,hi8(gs(FreshDisplayBufferAjustWeek))
 5619 1d2e 20E0      		ldi r18,lo8(RunParameter+14)
 5620 1d30 30E0      		ldi r19,hi8(RunParameter+14)
 5621 1d32 AE01      		movw r20,r28
 5622 1d34 4F5F      		subi r20,lo8(-(1))
 5623 1d36 5F4F      		sbci r21,hi8(-(1))
 5624 1d38 61E0      		ldi r22,lo8(1)
 5625 1d3a 87E0      		ldi r24,lo8(7)
 5626 1d3c 00C0      		rjmp .L707
 5627               	.LVL225:
 5628               	.L653:
 5629               	.LBE220:
 5630               	.LM925:
 5631 1d3e 8730      		cpi r24,lo8(7)
 5632 1d40 01F4      		brne .L655
 5633               	.LBB221:
 5634               	.LM926:
 5635 1d42 1982      		std Y+1,__zero_reg__
 5636               	.LVL226:
 5637               	.LM927:
 5638 1d44 00E0      		ldi r16,lo8(gs(FreshDisplayBufferAjustLightMode))
 5639 1d46 10E0      		ldi r17,hi8(gs(FreshDisplayBufferAjustLightMode))
 5640 1d48 20E0      		ldi r18,lo8(RunParameter+18)
 5641 1d4a 30E0      		ldi r19,hi8(RunParameter+18)
 5642 1d4c AE01      		movw r20,r28
 5643 1d4e 4F5F      		subi r20,lo8(-(1))
 5644 1d50 5F4F      		sbci r21,hi8(-(1))
 5645 1d52 60E0      		ldi r22,lo8(0)
 5646 1d54 81E0      		ldi r24,lo8(1)
 5647 1d56 00C0      		rjmp .L707
 5648               	.LVL227:
 5649               	.L655:
 5650               	.LBE221:
 5651               	.LM928:
 5652 1d58 8830      		cpi r24,lo8(8)
 5653 1d5a 01F4      		brne .L657
 5654               	.LBB222:
 5655               	.LM929:
 5656 1d5c 1982      		std Y+1,__zero_reg__
 5657               	.LVL228:
 5658               	.LM930:
 5659 1d5e 00E0      		ldi r16,lo8(gs(FreshDisplayBufferChangeFont))
 5660 1d60 10E0      		ldi r17,hi8(gs(FreshDisplayBufferChangeFont))
 5661 1d62 20E0      		ldi r18,lo8(RunParameter+27)
 5662 1d64 30E0      		ldi r19,hi8(RunParameter+27)
 5663 1d66 00C0      		rjmp .L708
 5664               	.LVL229:
 5665               	.L657:
 5666               	.LBE222:
 5667               	.LM931:
 5668 1d68 8930      		cpi r24,lo8(9)
 5669 1d6a 01F0      		breq .+2
 5670 1d6c 00C0      		rjmp .L659
 5671               	.LM932:
 5672 1d6e 9E99      		sbic 51-0x20,6
 5673 1d70 00C0      		rjmp .L661
 5674               	.LBB223:
 5675               	.LBB224:
 5676               	.LBB225:
 5677               	.LBB226:
 5678               	.LM933:
 5679 1d72 80E2      		ldi r24,lo8(20000)
 5680 1d74 9EE4      		ldi r25,hi8(20000)
 5681               	.LVL230:
 5682               	/* #APP */
 5683 1d76 0197      		1: sbiw r24,1
 5684 1d78 01F4      		brne 1b
 5685               	/* #NOAPP */
 5686               	.LBE226:
 5687               	.LBE225:
 5688               	.LBE224:
 5689               	.LBE223:
 5690               	.LM934:
 5691 1d7a 9E99      		sbic 51-0x20,6
 5692 1d7c 00C0      		rjmp .L696
 5693               	.LBB227:
 5694               	.LM935:
 5695 1d7e 1092 0000 		sts (KEY_Time_count)+1,__zero_reg__
 5696 1d82 1092 0000 		sts KEY_Time_count,__zero_reg__
 5697               	.LM936:
 5698 1d86 84E6      		ldi r24,lo8(100)
 5699               	.LVL231:
 5700 1d88 8093 0000 		sts SPEEK_TIME_Status,r24
 5701               	.LM937:
 5702 1d8c 3091 0000 		lds r19,RunParameter+24
 5703               	.LVL232:
 5704 1d90 3F5F      		subi r19,lo8(-(1))
 5705               	.LM938:
 5706 1d92 8091 0000 		lds r24,RunParameter+23
 5707 1d96 2AE0      		ldi r18,lo8(10)
 5708 1d98 829F      		mul r24,r18
 5709 1d9a C001      		movw r24,r0
 5710 1d9c 1124      		clr r1
 5711 1d9e 380F      		add r19,r24
 5712               	.LM939:
 5713 1da0 3531      		cpi r19,lo8(21)
 5714 1da2 00F0      		brlo .L665
 5715 1da4 30E0      		ldi r19,lo8(0)
 5716               	.L665:
 5717               	.LM940:
 5718 1da6 832F      		mov r24,r19
 5719 1da8 6AE0      		ldi r22,lo8(10)
 5720 1daa 0E94 0000 		call __udivmodqi4
 5721 1dae 8093 0000 		sts RunParameter+23,r24
 5722               	.LM941:
 5723 1db2 832F      		mov r24,r19
 5724 1db4 0E94 0000 		call __udivmodqi4
 5725 1db8 9093 0000 		sts RunParameter+24,r25
 5726               	.LM942:
 5727 1dbc 0E94 0000 		call FreshDisplayBufferAjustProofTime
 5728               	.LVL233:
 5729               	.L696:
 5730               	.LBE227:
 5731               	.LM943:
 5732 1dc0 9E9B      		sbis 51-0x20,6
 5733 1dc2 00C0      		rjmp .L696
 5734               	.L661:
 5735               	.LM944:
 5736 1dc4 9F99      		sbic 51-0x20,7
 5737 1dc6 00C0      		rjmp .L637
 5738               	.LBB228:
 5739               	.LBB229:
 5740               	.LBB230:
 5741               	.LBB231:
 5742               	.LM945:
 5743 1dc8 80E2      		ldi r24,lo8(20000)
 5744 1dca 9EE4      		ldi r25,hi8(20000)
 5745               	.LVL234:
 5746               	/* #APP */
 5747 1dcc 0197      		1: sbiw r24,1
 5748 1dce 01F4      		brne 1b
 5749               	/* #NOAPP */
 5750               	.LBE231:
 5751               	.LBE230:
 5752               	.LBE229:
 5753               	.LBE228:
 5754               	.LM946:
 5755 1dd0 9F99      		sbic 51-0x20,7
 5756 1dd2 00C0      		rjmp .L697
 5757               	.LM947:
 5758 1dd4 1092 0000 		sts (KEY_Time_count)+1,__zero_reg__
 5759 1dd8 1092 0000 		sts KEY_Time_count,__zero_reg__
 5760               	.LM948:
 5761 1ddc 84E6      		ldi r24,lo8(100)
 5762               	.LVL235:
 5763 1dde 8093 0000 		sts SPEEK_TIME_Status,r24
 5764               	.LM949:
 5765 1de2 8091 0000 		lds r24,RunParameter+22
 5766 1de6 8823      		tst r24
 5767 1de8 01F0      		breq .L670
 5768               	.LM950:
 5769 1dea 1092 0000 		sts RunParameter+22,__zero_reg__
 5770 1dee 00C0      		rjmp .L672
 5771               	.L670:
 5772               	.LM951:
 5773 1df0 81E0      		ldi r24,lo8(1)
 5774 1df2 8093 0000 		sts RunParameter+22,r24
 5775               	.L672:
 5776               	.LM952:
 5777 1df6 0E94 0000 		call FreshDisplayBufferAjustProofTime
 5778               	.LVL236:
 5779               	.L697:
 5780               	.LM953:
 5781 1dfa 9F99      		sbic 51-0x20,7
 5782 1dfc 00C0      		rjmp .L637
 5783 1dfe 00C0      		rjmp .L697
 5784               	.LVL237:
 5785               	.L659:
 5786               	.LM954:
 5787 1e00 8A30      		cpi r24,lo8(10)
 5788 1e02 01F4      		brne .L637
 5789               	.LBB232:
 5790               	.LM955:
 5791 1e04 1982      		std Y+1,__zero_reg__
 5792               	.LVL238:
 5793               	.LM956:
 5794 1e06 00E0      		ldi r16,lo8(gs(FreshDisplayBufferVoiceMode))
 5795 1e08 10E0      		ldi r17,hi8(gs(FreshDisplayBufferVoiceMode))
 5796 1e0a 20E0      		ldi r18,lo8(RunParameter+28)
 5797 1e0c 30E0      		ldi r19,hi8(RunParameter+28)
 5798               	.LVL239:
 5799               	.L708:
 5800 1e0e AE01      		movw r20,r28
 5801 1e10 4F5F      		subi r20,lo8(-(1))
 5802 1e12 5F4F      		sbci r21,hi8(-(1))
 5803 1e14 60E0      		ldi r22,lo8(0)
 5804 1e16 82E0      		ldi r24,lo8(2)
 5805               	.LVL240:
 5806               	.L707:
 5807 1e18 0E94 0000 		call Key_Operation
 5808               	.LVL241:
 5809               	.L637:
 5810               	.LBE232:
 5811               	.LM957:
 5812 1e1c 8099      		sbic 48-0x20,0
 5813 1e1e 00C0      		rjmp .L694
 5814               	.LBB233:
 5815               	.LBB234:
 5816               	.LBB235:
 5817               	.LBB236:
 5818               	.LM958:
 5819 1e20 80E2      		ldi r24,lo8(20000)
 5820 1e22 9EE4      		ldi r25,hi8(20000)
 5821               	.LVL242:
 5822               	/* #APP */
 5823 1e24 0197      		1: sbiw r24,1
 5824 1e26 01F4      		brne 1b
 5825               	/* #NOAPP */
 5826               	.LBE236:
 5827               	.LBE235:
 5828               	.LBE234:
 5829               	.LBE233:
 5830               	.LM959:
 5831 1e28 8099      		sbic 48-0x20,0
 5832 1e2a 00C0      		rjmp .L700
 5833               	.LM960:
 5834 1e2c 84E6      		ldi r24,lo8(100)
 5835               	.LVL243:
 5836 1e2e 8093 0000 		sts SPEEK_TIME_Status,r24
 5837               	.LM961:
 5838 1e32 1092 0000 		sts (KEY_Time_count)+1,__zero_reg__
 5839 1e36 1092 0000 		sts KEY_Time_count,__zero_reg__
 5840               	.LM962:
 5841 1e3a 8091 0000 		lds r24,RunParameter+21
 5842 1e3e 8F5F      		subi r24,lo8(-(1))
 5843 1e40 8093 0000 		sts RunParameter+21,r24
 5844               	.LM963:
 5845 1e44 8B30      		cpi r24,lo8(11)
 5846 1e46 00F0      		brlo .L678
 5847               	.LM964:
 5848 1e48 1092 0000 		sts RunParameter+21,__zero_reg__
 5849               	.L678:
 5850               	.LM965:
 5851 1e4c 8091 0000 		lds r24,RunParameter+21
 5852 1e50 8530      		cpi r24,lo8(5)
 5853 1e52 01F0      		breq .L685
 5854 1e54 8630      		cpi r24,lo8(6)
 5855 1e56 00F4      		brsh .L691
 5856 1e58 8230      		cpi r24,lo8(2)
 5857 1e5a 01F0      		breq .L682
 5858 1e5c 8330      		cpi r24,lo8(3)
 5859 1e5e 00F4      		brsh .L692
 5860 1e60 8823      		tst r24
 5861 1e62 01F0      		breq .L680
 5862 1e64 8130      		cpi r24,lo8(1)
 5863 1e66 01F4      		brne .L700
 5864 1e68 00C0      		rjmp .L681
 5865               	.L692:
 5866 1e6a 8330      		cpi r24,lo8(3)
 5867 1e6c 01F0      		breq .L683
 5868 1e6e 8430      		cpi r24,lo8(4)
 5869 1e70 01F4      		brne .L700
 5870 1e72 00C0      		rjmp .L684
 5871               	.L691:
 5872 1e74 8830      		cpi r24,lo8(8)
 5873 1e76 01F0      		breq .L688
 5874 1e78 8930      		cpi r24,lo8(9)
 5875 1e7a 00F4      		brsh .L693
 5876 1e7c 8630      		cpi r24,lo8(6)
 5877 1e7e 01F0      		breq .L686
 5878 1e80 8730      		cpi r24,lo8(7)
 5879 1e82 01F4      		brne .L700
 5880 1e84 00C0      		rjmp .L687
 5881               	.L693:
 5882 1e86 8930      		cpi r24,lo8(9)
 5883 1e88 01F0      		breq .L689
 5884 1e8a 8A30      		cpi r24,lo8(10)
 5885 1e8c 01F4      		brne .L700
 5886 1e8e 00C0      		rjmp .L690
 5887               	.L680:
 5888               	.LM966:
 5889 1e90 0E94 0000 		call Write_time
 5890               	.LM967:
 5891 1e94 0E94 0000 		call SaveRunParameter
 5892               	.LM968:
 5893 1e98 0E94 0000 		call clearScreen
 5894               	.LM969:
 5895 1e9c 0E94 0000 		call FreshDisplayBufferNormal
 5896 1ea0 00C0      		rjmp .L700
 5897               	.L681:
 5898               	.LM970:
 5899 1ea2 0E94 0000 		call FreshDisplayBufferAjustYear
 5900 1ea6 00C0      		rjmp .L700
 5901               	.L682:
 5902               	.LM971:
 5903 1ea8 0E94 0000 		call FreshDisplayBufferAjustMonth
 5904 1eac 00C0      		rjmp .L700
 5905               	.L683:
 5906               	.LM972:
 5907 1eae 0E94 0000 		call FreshDisplayBufferAjustDay
 5908 1eb2 00C0      		rjmp .L700
 5909               	.L684:
 5910               	.LM973:
 5911 1eb4 0E94 0000 		call FreshDisplayBufferAjustHour
 5912 1eb8 00C0      		rjmp .L700
 5913               	.L685:
 5914               	.LM974:
 5915 1eba 0E94 0000 		call FreshDisplayBufferAjustMinute
 5916 1ebe 00C0      		rjmp .L700
 5917               	.L686:
 5918               	.LM975:
 5919 1ec0 0E94 0000 		call FreshDisplayBufferAjustWeek
 5920 1ec4 00C0      		rjmp .L700
 5921               	.L687:
 5922               	.LM976:
 5923 1ec6 0E94 0000 		call FreshDisplayBufferAjustLightMode
 5924 1eca 00C0      		rjmp .L700
 5925               	.L688:
 5926               	.LM977:
 5927 1ecc 0E94 0000 		call FreshDisplayBufferChangeFont
 5928 1ed0 00C0      		rjmp .L700
 5929               	.L689:
 5930               	.LM978:
 5931 1ed2 0E94 0000 		call FreshDisplayBufferAjustProofTime
 5932 1ed6 00C0      		rjmp .L700
 5933               	.L690:
 5934               	.LM979:
 5935 1ed8 0E94 0000 		call FreshDisplayBufferVoiceMode
 5936               	.LVL244:
 5937               	.L700:
 5938               	.LM980:
 5939 1edc 809B      		sbis 48-0x20,0
 5940 1ede 00C0      		rjmp .L700
 5941               	.LVL245:
 5942               	.L694:
 5943               	/* epilogue: frame size=1 */
 5944 1ee0 2196      		adiw r28,1
 5945 1ee2 0FB6      		in __tmp_reg__,__SREG__
 5946 1ee4 F894      		cli
 5947 1ee6 DEBF      		out __SP_H__,r29
 5948 1ee8 0FBE      		out __SREG__,__tmp_reg__
 5949 1eea CDBF      		out __SP_L__,r28
 5950 1eec DF91      		pop r29
 5951 1eee CF91      		pop r28
 5952 1ef0 1F91      		pop r17
 5953 1ef2 0F91      		pop r16
 5954 1ef4 0895      		ret
 5955               	/* epilogue end (size=11) */
 5956               	/* function Scan_Key size 467 (444) */
 5957               	.LFE64:
 5959               	.global	main
 5961               	main:
 5962               	.LFB72:
 5963               	.LM981:
 5964               	/* prologue: frame size=0 */
 5965 1ef6 FF92      		push r15
 5966 1ef8 0F93      		push r16
 5967 1efa 1F93      		push r17
 5968               	/* prologue end (size=3) */
 5969               	.LM982:
 5970 1efc 0E94 0000 		call init_devices
 5971               	.LM983:
 5972 1f00 0E94 0000 		call ds1820_start
 5973               	.LM984:
 5974 1f04 86E0      		ldi r24,lo8(6)
 5975 1f06 90E0      		ldi r25,hi8(6)
 5976 1f08 0E94 0000 		call _delay_100ms
 5977               	.LM985:
 5978 1f0c 0E94 0000 		call ReadTemputer
 5979               	.LM986:
 5980 1f10 8099      		sbic 48-0x20,0
 5981 1f12 00C0      		rjmp .L710
 5982               	.LBB243:
 5983               	.LBB244:
 5984               	.LBB245:
 5985               	.LBB246:
 5986               	.LM987:
 5987 1f14 80E2      		ldi r24,lo8(20000)
 5988 1f16 9EE4      		ldi r25,hi8(20000)
 5989               	.LVL246:
 5990               	/* #APP */
 5991 1f18 0197      		1: sbiw r24,1
 5992 1f1a 01F4      		brne 1b
 5993               	/* #NOAPP */
 5994               	.LBE246:
 5995               	.LBE245:
 5996               	.LBE244:
 5997               	.LBE243:
 5998               	.LM988:
 5999 1f1c 8099      		sbic 48-0x20,0
 6000 1f1e 00C0      		rjmp .L710
 6001               	.LM989:
 6002 1f20 81E0      		ldi r24,lo8(1)
 6003               	.LVL247:
 6004 1f22 8093 0000 		sts RunParameter+18,r24
 6005               	.LM990:
 6006 1f26 8093 0000 		sts RunParameter+19,r24
 6007               	.LM991:
 6008 1f2a 8093 0000 		sts RunParameter+20,r24
 6009               	.LM992:
 6010 1f2e 1092 0000 		sts RunParameter+21,__zero_reg__
 6011               	.LM993:
 6012 1f32 1092 0000 		sts RunParameter+22,__zero_reg__
 6013               	.LM994:
 6014 1f36 1092 0000 		sts RunParameter+23,__zero_reg__
 6015               	.LM995:
 6016 1f3a 1092 0000 		sts RunParameter+24,__zero_reg__
 6017               	.LM996:
 6018 1f3e 1092 0000 		sts RunParameter+26,__zero_reg__
 6019               	.LM997:
 6020 1f42 1092 0000 		sts RunParameter+27,__zero_reg__
 6021               	.LM998:
 6022 1f46 1CBE      		out 92-0x20,__zero_reg__
 6023               	.LM999:
 6024 1f48 0E94 0000 		call SaveRunParameter
 6025               	.LVL248:
 6026               	.L710:
 6027               	.LM1000:
 6028 1f4c 0E94 0000 		call ReadRunParameter
 6029               	.LVL249:
 6030               	.LM1001:
 6031 1f50 0E94 0000 		call Show_welcome
 6032               	.LM1002:
 6033 1f54 0E94 0000 		call Updata_time
 6034               	.LM1003:
 6035 1f58 0E94 0000 		call FreshDisplayBufferNormal
 6036               	.LM1004:
 6037 1f5c 81E0      		ldi r24,lo8(1)
 6038 1f5e 8093 0000 		sts SPEEK_TIME_Status,r24
 6039 1f62 11E0      		ldi r17,lo8(1)
 6040               	.LVL250:
 6041 1f64 FF24      		clr r15
 6042               	.LVL251:
 6043 1f66 00E0      		ldi r16,lo8(0)
 6044               	.LVL252:
 6045               	.L713:
 6046               	.LM1005:
 6047 1f68 8091 0000 		lds r24,RunParameter+21
 6048 1f6c 8823      		tst r24
 6049 1f6e 01F0      		breq .+2
 6050 1f70 00C0      		rjmp .L714
 6051               	.LM1006:
 6052 1f72 0023      		tst r16
 6053 1f74 01F0      		breq .L716
 6054               	.LM1007:
 6055 1f76 DF9A      		sbi 59-0x20,7
 6056 1f78 00E0      		ldi r16,lo8(0)
 6057 1f7a 00C0      		rjmp .L718
 6058               	.L716:
 6059               	.LM1008:
 6060 1f7c DF98      		cbi 59-0x20,7
 6061 1f7e 01E0      		ldi r16,lo8(1)
 6062               	.L718:
 6063               	.LM1009:
 6064 1f80 0E94 0000 		call Updata_time
 6065               	.LM1010:
 6066 1f84 0E94 0000 		call FreshDisplayBufferSecond
 6067               	.LM1011:
 6068 1f88 8091 0000 		lds r24,RunParameter+12
 6069 1f8c 8823      		tst r24
 6070 1f8e 01F4      		brne .L719
 6071 1f90 8091 0000 		lds r24,RunParameter+13
 6072 1f94 8823      		tst r24
 6073 1f96 01F4      		brne .L719
 6074 1f98 1123      		tst r17
 6075 1f9a 01F0      		breq .L719
 6076               	.LM1012:
 6077 1f9c 0E94 0000 		call AjustTimerMonthly
 6078               	.LM1013:
 6079 1fa0 0E94 0000 		call FreshDisplayBufferNormal
 6080 1fa4 10E0      		ldi r17,lo8(0)
 6081               	.L719:
 6082               	.LM1014:
 6083 1fa6 8091 0000 		lds r24,RunParameter+12
 6084 1faa 8530      		cpi r24,lo8(5)
 6085 1fac 01F4      		brne .L723
 6086 1fae 8091 0000 		lds r24,RunParameter+13
 6087 1fb2 8930      		cpi r24,lo8(9)
 6088 1fb4 01F4      		brne .L723
 6089 1fb6 11E0      		ldi r17,lo8(1)
 6090               	.L723:
 6091               	.LM1015:
 6092 1fb8 8091 0000 		lds r24,RunParameter+13
 6093               	.LVL253:
 6094 1fbc F816      		cp r15,r24
 6095 1fbe 01F0      		breq .L726
 6096               	.LM1016:
 6097 1fc0 8170      		andi r24,lo8(1)
 6098               	.LVL254:
 6099 1fc2 0E94 0000 		call writeCloclColon
 6100               	.LM1017:
 6101 1fc6 F090 0000 		lds r15,RunParameter+13
 6102               	.LVL255:
 6103               	.L726:
 6104               	.LM1018:
 6105 1fca 4091 0000 		lds r20,RunParameter+28
 6106 1fce 4423      		tst r20
 6107 1fd0 01F4      		brne .L728
 6108               	.LM1019:
 6109 1fd2 8091 0000 		lds r24,RunParameter+10
 6110 1fd6 8823      		tst r24
 6111 1fd8 01F4      		brne .L714
 6112 1fda 8091 0000 		lds r24,RunParameter+11
 6113 1fde 8823      		tst r24
 6114 1fe0 01F4      		brne .L714
 6115 1fe2 8091 0000 		lds r24,RunParameter+12
 6116 1fe6 8823      		tst r24
 6117 1fe8 01F4      		brne .L714
 6118 1fea 8091 0000 		lds r24,RunParameter+13
 6119 1fee 8A30      		cpi r24,lo8(10)
 6120 1ff0 00F4      		brsh .L714
 6121 1ff2 8091 0000 		lds r24,inVoice
 6122 1ff6 8823      		tst r24
 6123 1ff8 01F4      		brne .L714
 6124               	.LM1020:
 6125 1ffa 81E0      		ldi r24,lo8(1)
 6126 1ffc 8093 0000 		sts inVoice,r24
 6127               	.LM1021:
 6128 2000 8093 0000 		sts SPEEK_TIME_Status,r24
 6129 2004 00C0      		rjmp .L714
 6130               	.LVL256:
 6131               	.L728:
 6132               	.LM1022:
 6133 2006 4130      		cpi r20,lo8(1)
 6134 2008 01F4      		brne .L714
 6135               	.LM1023:
 6136 200a 8091 0000 		lds r24,RunParameter+9
 6137 200e 8750      		subi r24,lo8(-(-7))
 6138 2010 2091 0000 		lds r18,RunParameter+8
 6139 2014 9AE0      		ldi r25,lo8(10)
 6140 2016 299F      		mul r18,r25
 6141 2018 9001      		movw r18,r0
 6142 201a 1124      		clr r1
 6143 201c 820F      		add r24,r18
 6144 201e 8131      		cpi r24,lo8(17)
 6145 2020 00F4      		brsh .L714
 6146               	.LM1024:
 6147 2022 8091 0000 		lds r24,RunParameter+10
 6148 2026 8823      		tst r24
 6149 2028 01F4      		brne .L714
 6150 202a 8091 0000 		lds r24,RunParameter+11
 6151 202e 8823      		tst r24
 6152 2030 01F4      		brne .L714
 6153 2032 8091 0000 		lds r24,RunParameter+12
 6154 2036 8823      		tst r24
 6155 2038 01F4      		brne .L714
 6156 203a 8091 0000 		lds r24,RunParameter+13
 6157 203e 8A30      		cpi r24,lo8(10)
 6158 2040 00F4      		brsh .L714
 6159 2042 8091 0000 		lds r24,inVoice
 6160 2046 8823      		tst r24
 6161 2048 01F4      		brne .L714
 6162               	.LM1025:
 6163 204a 4093 0000 		sts inVoice,r20
 6164               	.LM1026:
 6165 204e 4093 0000 		sts SPEEK_TIME_Status,r20
 6166               	.LVL257:
 6167               	.L714:
 6168               	.LM1027:
 6169 2052 0E94 0000 		call display
 6170               	.LM1028:
 6171 2056 0E94 0000 		call Scan_Key
 6172 205a 00C0      		rjmp .L713
 6173               	/* epilogue: frame size=0 */
 6174               	/* epilogue: noreturn */
 6175               	/* epilogue end (size=0) */
 6176               	/* function main size 181 (178) */
 6177               	.LFE72:
 6179               	.global	__vector_4
 6181               	__vector_4:
 6182               	.LFB69:
 6183               	.LM1029:
 6184               	/* prologue: frame size=0 */
 6185 205c 1F92      		push __zero_reg__
 6186 205e 0F92      		push __tmp_reg__
 6187 2060 0FB6      		in __tmp_reg__,__SREG__
 6188 2062 0F92      		push __tmp_reg__
 6189 2064 1124      		clr __zero_reg__
 6190 2066 2F93      		push r18
 6191 2068 3F93      		push r19
 6192 206a 4F93      		push r20
 6193 206c 5F93      		push r21
 6194 206e 6F93      		push r22
 6195 2070 7F93      		push r23
 6196 2072 8F93      		push r24
 6197 2074 9F93      		push r25
 6198 2076 AF93      		push r26
 6199 2078 BF93      		push r27
 6200 207a EF93      		push r30
 6201 207c FF93      		push r31
 6202               	/* prologue end (size=17) */
 6203               	.LM1030:
 6204 207e 0E94 0000 		call PLUSE_Out
 6205               	.LM1031:
 6206 2082 0E94 0000 		call SPEEK_Time
 6207               	.LM1032:
 6208 2086 8091 0000 		lds r24,RunParameter+21
 6209 208a 8823      		tst r24
 6210 208c 01F0      		breq .+2
 6211 208e 00C0      		rjmp .L744
 6212               	.LM1033:
 6213 2090 8091 0000 		lds r24,SPEEK_TIME_Status
 6214 2094 8823      		tst r24
 6215 2096 01F4      		brne .L744
 6216               	.LM1034:
 6217 2098 8091 0000 		lds r24,ReadDS18B20Count
 6218 209c 9091 0000 		lds r25,(ReadDS18B20Count)+1
 6219 20a0 0196      		adiw r24,1
 6220 20a2 9093 0000 		sts (ReadDS18B20Count)+1,r25
 6221 20a6 8093 0000 		sts ReadDS18B20Count,r24
 6222               	.LM1035:
 6223 20aa 8253      		subi r24,lo8(-14286)
 6224 20ac 984C      		sbci r25,hi8(-14286)
 6225 20ae 01F4      		brne .L747
 6226               	.LM1036:
 6227 20b0 0E94 0000 		call ds1820_start
 6228               	.L747:
 6229               	.LM1037:
 6230 20b4 8091 0000 		lds r24,ReadDS18B20Count
 6231 20b8 9091 0000 		lds r25,(ReadDS18B20Count)+1
 6232 20bc 8156      		subi r24,lo8(-5535)
 6233 20be 9A4E      		sbci r25,hi8(-5535)
 6234 20c0 00F0      		brlo .L749
 6235               	.LM1038:
 6236 20c2 0E94 0000 		call ReadTemputer
 6237               	.LM1039:
 6238 20c6 1092 0000 		sts (ReadDS18B20Count)+1,__zero_reg__
 6239 20ca 1092 0000 		sts ReadDS18B20Count,__zero_reg__
 6240               	.L749:
 6241               	.LM1040:
 6242 20ce 8091 0000 		lds r24,RunParameter+18
 6243 20d2 8823      		tst r24
 6244 20d4 01F4      		brne .L744
 6245               	.LM1041:
 6246 20d6 8091 0000 		lds r24,AD_time_count
 6247 20da 9091 0000 		lds r25,(AD_time_count)+1
 6248 20de 0196      		adiw r24,1
 6249 20e0 9093 0000 		sts (AD_time_count)+1,r25
 6250 20e4 8093 0000 		sts AD_time_count,r24
 6251               	.LM1042:
 6252 20e8 2EE2      		ldi r18,hi8(12000)
 6253 20ea 803E      		cpi r24,lo8(12000)
 6254 20ec 9207      		cpc r25,r18
 6255 20ee 01F4      		brne .L752
 6256               	.LBB249:
 6257               	.LBB250:
 6258               	.LM1043:
 6259 20f0 16B8      		out 38-0x20,__zero_reg__
 6260               	.LM1044:
 6261 20f2 80E4      		ldi r24,lo8(64)
 6262 20f4 87B9      		out 39-0x20,r24
 6263               	.LM1045:
 6264 20f6 87ED      		ldi r24,lo8(-41)
 6265 20f8 86B9      		out 38-0x20,r24
 6266 20fa 00C0      		rjmp .L744
 6267               	.L752:
 6268               	.LBE250:
 6269               	.LBE249:
 6270               	.LM1046:
 6271 20fc 8D50      		subi r24,lo8(12301)
 6272 20fe 9043      		sbci r25,hi8(12301)
 6273 2100 00F0      		brlo .L744
 6274               	.LM1047:
 6275 2102 0E94 0000 		call GetDispalyLight
 6276               	.LM1048:
 6277 2106 1092 0000 		sts (AD_time_count)+1,__zero_reg__
 6278 210a 1092 0000 		sts AD_time_count,__zero_reg__
 6279               	.L744:
 6280               	.LM1049:
 6281 210e 8091 0000 		lds r24,KEY_Time_count
 6282 2112 9091 0000 		lds r25,(KEY_Time_count)+1
 6283 2116 0196      		adiw r24,1
 6284 2118 9093 0000 		sts (KEY_Time_count)+1,r25
 6285 211c 8093 0000 		sts KEY_Time_count,r24
 6286               	.LM1050:
 6287 2120 8091 0000 		lds r24,KEY_Time_count_speed_color
 6288 2124 9091 0000 		lds r25,(KEY_Time_count_speed_color)+1
 6289 2128 0196      		adiw r24,1
 6290 212a 9093 0000 		sts (KEY_Time_count_speed_color)+1,r25
 6291 212e 8093 0000 		sts KEY_Time_count_speed_color,r24
 6292               	.LM1051:
 6293 2132 83E8      		ldi r24,lo8(-125)
 6294 2134 84BD      		out 68-0x20,r24
 6295               	/* epilogue: frame size=0 */
 6296 2136 FF91      		pop r31
 6297 2138 EF91      		pop r30
 6298 213a BF91      		pop r27
 6299 213c AF91      		pop r26
 6300 213e 9F91      		pop r25
 6301 2140 8F91      		pop r24
 6302 2142 7F91      		pop r23
 6303 2144 6F91      		pop r22
 6304 2146 5F91      		pop r21
 6305 2148 4F91      		pop r20
 6306 214a 3F91      		pop r19
 6307 214c 2F91      		pop r18
 6308 214e 0F90      		pop __tmp_reg__
 6309 2150 0FBE      		out __SREG__,__tmp_reg__
 6310 2152 0F90      		pop __tmp_reg__
 6311 2154 1F90      		pop __zero_reg__
 6312 2156 1895      		reti
 6313               	/* epilogue end (size=17) */
 6314               	/* function __vector_4 size 129 (95) */
 6315               	.LFE69:
 6317               	.global	RunParameter
 6318               		.data
 6321               	RunParameter:
 6322 0000 02        		.byte	2
 6323 0001 00        		.byte	0
 6324 0002 01        		.byte	1
 6325 0003 02        		.byte	2
 6326 0004 00        		.byte	0
 6327 0005 01        		.byte	1
 6328 0006 01        		.byte	1
 6329 0007 07        		.byte	7
 6330 0008 02        		.byte	2
 6331 0009 02        		.byte	2
 6332 000a 01        		.byte	1
 6333 000b 09        		.byte	9
 6334 000c 00        		.byte	0
 6335 000d 00        		.byte	0
 6336 000e 02        		.byte	2
 6337 000f 02        		.byte	2
 6338 0010 03        		.byte	3
 6339 0011 04        		.byte	4
 6340 0012 00        		.byte	0
 6341 0013 07        		.byte	7
 6342 0014 01        		.byte	1
 6343 0015 00        		.byte	0
 6344 0016 00        		.byte	0
 6345 0017 00        		.byte	0
 6346 0018 00        		.byte	0
 6347 0019 00        		.byte	0
 6348 001a 00        		.byte	0
 6349 001b 00        		.byte	0
 6350 001c 00        		.byte	0
 6351               	.global	BIG_NUMBER_STYLE1
 6352               		.section	.progmem.data,"a",@progbits
 6355               	BIG_NUMBER_STYLE1:
 6356 0000 07        		.byte	7
 6357 0001 80        		.byte	-128
 6358 0002 0F        		.byte	15
 6359 0003 C0        		.byte	-64
 6360 0004 3F        		.byte	63
 6361 0005 E0        		.byte	-32
 6362 0006 38        		.byte	56
 6363 0007 70        		.byte	112
 6364 0008 70        		.byte	112
 6365 0009 70        		.byte	112
 6366 000a 70        		.byte	112
 6367 000b 38        		.byte	56
 6368 000c 70        		.byte	112
 6369 000d 38        		.byte	56
 6370 000e 60        		.byte	96
 6371 000f 38        		.byte	56
 6372 0010 E0        		.byte	-32
 6373 0011 38        		.byte	56
 6374 0012 E0        		.byte	-32
 6375 0013 38        		.byte	56
 6376 0014 E0        		.byte	-32
 6377 0015 38        		.byte	56
 6378 0016 E0        		.byte	-32
 6379 0017 38        		.byte	56
 6380 0018 E0        		.byte	-32
 6381 0019 38        		.byte	56
 6382 001a 60        		.byte	96
 6383 001b 38        		.byte	56
 6384 001c 70        		.byte	112
 6385 001d 38        		.byte	56
 6386 001e 70        		.byte	112
 6387 001f 30        		.byte	48
 6388 0020 70        		.byte	112
 6389 0021 70        		.byte	112
 6390 0022 3C        		.byte	60
 6391 0023 E0        		.byte	-32
 6392 0024 1F        		.byte	31
 6393 0025 E0        		.byte	-32
 6394 0026 0F        		.byte	15
 6395 0027 80        		.byte	-128
 6396 0028 06        		.byte	6
 6397 0029 00        		.byte	0
 6398 002a 03        		.byte	3
 6399 002b 00        		.byte	0
 6400 002c 1F        		.byte	31
 6401 002d 00        		.byte	0
 6402 002e FF        		.byte	-1
 6403 002f 00        		.byte	0
 6404 0030 FF        		.byte	-1
 6405 0031 00        		.byte	0
 6406 0032 C7        		.byte	-57
 6407 0033 00        		.byte	0
 6408 0034 07        		.byte	7
 6409 0035 00        		.byte	0
 6410 0036 07        		.byte	7
 6411 0037 00        		.byte	0
 6412 0038 07        		.byte	7
 6413 0039 00        		.byte	0
 6414 003a 07        		.byte	7
 6415 003b 00        		.byte	0
 6416 003c 07        		.byte	7
 6417 003d 00        		.byte	0
 6418 003e 07        		.byte	7
 6419 003f 00        		.byte	0
 6420 0040 07        		.byte	7
 6421 0041 00        		.byte	0
 6422 0042 07        		.byte	7
 6423 0043 00        		.byte	0
 6424 0044 07        		.byte	7
 6425 0045 00        		.byte	0
 6426 0046 07        		.byte	7
 6427 0047 00        		.byte	0
 6428 0048 07        		.byte	7
 6429 0049 00        		.byte	0
 6430 004a 07        		.byte	7
 6431 004b 00        		.byte	0
 6432 004c 07        		.byte	7
 6433 004d 00        		.byte	0
 6434 004e 07        		.byte	7
 6435 004f 00        		.byte	0
 6436 0050 7F        		.byte	127
 6437 0051 F8        		.byte	-8
 6438 0052 7F        		.byte	127
 6439 0053 F8        		.byte	-8
 6440 0054 0F        		.byte	15
 6441 0055 C0        		.byte	-64
 6442 0056 3F        		.byte	63
 6443 0057 F0        		.byte	-16
 6444 0058 3F        		.byte	63
 6445 0059 F8        		.byte	-8
 6446 005a 30        		.byte	48
 6447 005b 38        		.byte	56
 6448 005c 00        		.byte	0
 6449 005d 38        		.byte	56
 6450 005e 00        		.byte	0
 6451 005f 18        		.byte	24
 6452 0060 00        		.byte	0
 6453 0061 18        		.byte	24
 6454 0062 00        		.byte	0
 6455 0063 38        		.byte	56
 6456 0064 00        		.byte	0
 6457 0065 38        		.byte	56
 6458 0066 00        		.byte	0
 6459 0067 38        		.byte	56
 6460 0068 00        		.byte	0
 6461 0069 70        		.byte	112
 6462 006a 00        		.byte	0
 6463 006b E0        		.byte	-32
 6464 006c 01        		.byte	1
 6465 006d C0        		.byte	-64
 6466 006e 03        		.byte	3
 6467 006f 80        		.byte	-128
 6468 0070 07        		.byte	7
 6469 0071 00        		.byte	0
 6470 0072 0E        		.byte	14
 6471 0073 00        		.byte	0
 6472 0074 1C        		.byte	28
 6473 0075 00        		.byte	0
 6474 0076 38        		.byte	56
 6475 0077 00        		.byte	0
 6476 0078 70        		.byte	112
 6477 0079 00        		.byte	0
 6478 007a 7F        		.byte	127
 6479 007b F8        		.byte	-8
 6480 007c 7F        		.byte	127
 6481 007d F8        		.byte	-8
 6482 007e 1F        		.byte	31
 6483 007f 80        		.byte	-128
 6484 0080 3F        		.byte	63
 6485 0081 E0        		.byte	-32
 6486 0082 3F        		.byte	63
 6487 0083 F0        		.byte	-16
 6488 0084 20        		.byte	32
 6489 0085 78        		.byte	120
 6490 0086 00        		.byte	0
 6491 0087 38        		.byte	56
 6492 0088 00        		.byte	0
 6493 0089 38        		.byte	56
 6494 008a 00        		.byte	0
 6495 008b 70        		.byte	112
 6496 008c 00        		.byte	0
 6497 008d E0        		.byte	-32
 6498 008e 1F        		.byte	31
 6499 008f C0        		.byte	-64
 6500 0090 1F        		.byte	31
 6501 0091 C0        		.byte	-64
 6502 0092 1F        		.byte	31
 6503 0093 F0        		.byte	-16
 6504 0094 00        		.byte	0
 6505 0095 38        		.byte	56
 6506 0096 00        		.byte	0
 6507 0097 38        		.byte	56
 6508 0098 00        		.byte	0
 6509 0099 38        		.byte	56
 6510 009a 00        		.byte	0
 6511 009b 38        		.byte	56
 6512 009c 00        		.byte	0
 6513 009d 38        		.byte	56
 6514 009e 00        		.byte	0
 6515 009f 38        		.byte	56
 6516 00a0 60        		.byte	96
 6517 00a1 F0        		.byte	-16
 6518 00a2 7F        		.byte	127
 6519 00a3 F0        		.byte	-16
 6520 00a4 7F        		.byte	127
 6521 00a5 C0        		.byte	-64
 6522 00a6 0E        		.byte	14
 6523 00a7 00        		.byte	0
 6524 00a8 01        		.byte	1
 6525 00a9 E0        		.byte	-32
 6526 00aa 01        		.byte	1
 6527 00ab E0        		.byte	-32
 6528 00ac 03        		.byte	3
 6529 00ad E0        		.byte	-32
 6530 00ae 03        		.byte	3
 6531 00af E0        		.byte	-32
 6532 00b0 06        		.byte	6
 6533 00b1 E0        		.byte	-32
 6534 00b2 0E        		.byte	14
 6535 00b3 E0        		.byte	-32
 6536 00b4 1C        		.byte	28
 6537 00b5 E0        		.byte	-32
 6538 00b6 18        		.byte	24
 6539 00b7 E0        		.byte	-32
 6540 00b8 30        		.byte	48
 6541 00b9 E0        		.byte	-32
 6542 00ba 70        		.byte	112
 6543 00bb E0        		.byte	-32
 6544 00bc 60        		.byte	96
 6545 00bd E0        		.byte	-32
 6546 00be E0        		.byte	-32
 6547 00bf E0        		.byte	-32
 6548 00c0 C0        		.byte	-64
 6549 00c1 E0        		.byte	-32
 6550 00c2 FF        		.byte	-1
 6551 00c3 F8        		.byte	-8
 6552 00c4 FF        		.byte	-1
 6553 00c5 F8        		.byte	-8
 6554 00c6 FF        		.byte	-1
 6555 00c7 F8        		.byte	-8
 6556 00c8 00        		.byte	0
 6557 00c9 E0        		.byte	-32
 6558 00ca 00        		.byte	0
 6559 00cb E0        		.byte	-32
 6560 00cc 00        		.byte	0
 6561 00cd E0        		.byte	-32
 6562 00ce 00        		.byte	0
 6563 00cf E0        		.byte	-32
 6564 00d0 00        		.byte	0
 6565 00d1 E0        		.byte	-32
 6566 00d2 3F        		.byte	63
 6567 00d3 F8        		.byte	-8
 6568 00d4 3F        		.byte	63
 6569 00d5 F8        		.byte	-8
 6570 00d6 3F        		.byte	63
 6571 00d7 F8        		.byte	-8
 6572 00d8 38        		.byte	56
 6573 00d9 00        		.byte	0
 6574 00da 38        		.byte	56
 6575 00db 00        		.byte	0
 6576 00dc 38        		.byte	56
 6577 00dd 00        		.byte	0
 6578 00de 38        		.byte	56
 6579 00df 00        		.byte	0
 6580 00e0 3F        		.byte	63
 6581 00e1 80        		.byte	-128
 6582 00e2 3F        		.byte	63
 6583 00e3 E0        		.byte	-32
 6584 00e4 3F        		.byte	63
 6585 00e5 F0        		.byte	-16
 6586 00e6 00        		.byte	0
 6587 00e7 78        		.byte	120
 6588 00e8 00        		.byte	0
 6589 00e9 38        		.byte	56
 6590 00ea 00        		.byte	0
 6591 00eb 38        		.byte	56
 6592 00ec 00        		.byte	0
 6593 00ed 18        		.byte	24
 6594 00ee 00        		.byte	0
 6595 00ef 18        		.byte	24
 6596 00f0 00        		.byte	0
 6597 00f1 18        		.byte	24
 6598 00f2 00        		.byte	0
 6599 00f3 38        		.byte	56
 6600 00f4 70        		.byte	112
 6601 00f5 F0        		.byte	-16
 6602 00f6 7F        		.byte	127
 6603 00f7 F0        		.byte	-16
 6604 00f8 3F        		.byte	63
 6605 00f9 C0        		.byte	-64
 6606 00fa 0E        		.byte	14
 6607 00fb 00        		.byte	0
 6608 00fc 03        		.byte	3
 6609 00fd C0        		.byte	-64
 6610 00fe 0F        		.byte	15
 6611 00ff E0        		.byte	-32
 6612 0100 1F        		.byte	31
 6613 0101 F0        		.byte	-16
 6614 0102 3C        		.byte	60
 6615 0103 00        		.byte	0
 6616 0104 70        		.byte	112
 6617 0105 00        		.byte	0
 6618 0106 70        		.byte	112
 6619 0107 00        		.byte	0
 6620 0108 E0        		.byte	-32
 6621 0109 00        		.byte	0
 6622 010a E7        		.byte	-25
 6623 010b C0        		.byte	-64
 6624 010c FF        		.byte	-1
 6625 010d E0        		.byte	-32
 6626 010e FF        		.byte	-1
 6627 010f F0        		.byte	-16
 6628 0110 F0        		.byte	-16
 6629 0111 78        		.byte	120
 6630 0112 E0        		.byte	-32
 6631 0113 38        		.byte	56
 6632 0114 E0        		.byte	-32
 6633 0115 38        		.byte	56
 6634 0116 E0        		.byte	-32
 6635 0117 38        		.byte	56
 6636 0118 E0        		.byte	-32
 6637 0119 38        		.byte	56
 6638 011a E0        		.byte	-32
 6639 011b 38        		.byte	56
 6640 011c 70        		.byte	112
 6641 011d 78        		.byte	120
 6642 011e 78        		.byte	120
 6643 011f 70        		.byte	112
 6644 0120 3F        		.byte	63
 6645 0121 E0        		.byte	-32
 6646 0122 1F        		.byte	31
 6647 0123 C0        		.byte	-64
 6648 0124 07        		.byte	7
 6649 0125 00        		.byte	0
 6650 0126 FF        		.byte	-1
 6651 0127 F8        		.byte	-8
 6652 0128 FF        		.byte	-1
 6653 0129 F8        		.byte	-8
 6654 012a FF        		.byte	-1
 6655 012b F0        		.byte	-16
 6656 012c 00        		.byte	0
 6657 012d 70        		.byte	112
 6658 012e 00        		.byte	0
 6659 012f 70        		.byte	112
 6660 0130 00        		.byte	0
 6661 0131 60        		.byte	96
 6662 0132 00        		.byte	0
 6663 0133 E0        		.byte	-32
 6664 0134 00        		.byte	0
 6665 0135 C0        		.byte	-64
 6666 0136 01        		.byte	1
 6667 0137 C0        		.byte	-64
 6668 0138 01        		.byte	1
 6669 0139 C0        		.byte	-64
 6670 013a 03        		.byte	3
 6671 013b 80        		.byte	-128
 6672 013c 03        		.byte	3
 6673 013d 80        		.byte	-128
 6674 013e 03        		.byte	3
 6675 013f 00        		.byte	0
 6676 0140 07        		.byte	7
 6677 0141 00        		.byte	0
 6678 0142 07        		.byte	7
 6679 0143 00        		.byte	0
 6680 0144 0E        		.byte	14
 6681 0145 00        		.byte	0
 6682 0146 0E        		.byte	14
 6683 0147 00        		.byte	0
 6684 0148 1C        		.byte	28
 6685 0149 00        		.byte	0
 6686 014a 1C        		.byte	28
 6687 014b 00        		.byte	0
 6688 014c 1C        		.byte	28
 6689 014d 00        		.byte	0
 6690 014e 38        		.byte	56
 6691 014f 00        		.byte	0
 6692 0150 0F        		.byte	15
 6693 0151 80        		.byte	-128
 6694 0152 3F        		.byte	63
 6695 0153 E0        		.byte	-32
 6696 0154 7F        		.byte	127
 6697 0155 F0        		.byte	-16
 6698 0156 70        		.byte	112
 6699 0157 70        		.byte	112
 6700 0158 E0        		.byte	-32
 6701 0159 70        		.byte	112
 6702 015a E0        		.byte	-32
 6703 015b 70        		.byte	112
 6704 015c 70        		.byte	112
 6705 015d 70        		.byte	112
 6706 015e 79        		.byte	121
 6707 015f E0        		.byte	-32
 6708 0160 1F        		.byte	31
 6709 0161 C0        		.byte	-64
 6710 0162 1F        		.byte	31
 6711 0163 80        		.byte	-128
 6712 0164 3F        		.byte	63
 6713 0165 E0        		.byte	-32
 6714 0166 70        		.byte	112
 6715 0167 F0        		.byte	-16
 6716 0168 E0        		.byte	-32
 6717 0169 70        		.byte	112
 6718 016a E0        		.byte	-32
 6719 016b 38        		.byte	56
 6720 016c C0        		.byte	-64
 6721 016d 38        		.byte	56
 6722 016e E0        		.byte	-32
 6723 016f 38        		.byte	56
 6724 0170 E0        		.byte	-32
 6725 0171 38        		.byte	56
 6726 0172 F0        		.byte	-16
 6727 0173 F0        		.byte	-16
 6728 0174 7F        		.byte	127
 6729 0175 F0        		.byte	-16
 6730 0176 3F        		.byte	63
 6731 0177 C0        		.byte	-64
 6732 0178 06        		.byte	6
 6733 0179 00        		.byte	0
 6734 017a 1F        		.byte	31
 6735 017b 80        		.byte	-128
 6736 017c 3F        		.byte	63
 6737 017d C0        		.byte	-64
 6738 017e 7F        		.byte	127
 6739 017f E0        		.byte	-32
 6740 0180 E0        		.byte	-32
 6741 0181 70        		.byte	112
 6742 0182 E0        		.byte	-32
 6743 0183 70        		.byte	112
 6744 0184 C0        		.byte	-64
 6745 0185 30        		.byte	48
 6746 0186 C0        		.byte	-64
 6747 0187 38        		.byte	56
 6748 0188 E0        		.byte	-32
 6749 0189 38        		.byte	56
 6750 018a E0        		.byte	-32
 6751 018b 78        		.byte	120
 6752 018c F0        		.byte	-16
 6753 018d F8        		.byte	-8
 6754 018e 7F        		.byte	127
 6755 018f F8        		.byte	-8
 6756 0190 3F        		.byte	63
 6757 0191 B8        		.byte	-72
 6758 0192 00        		.byte	0
 6759 0193 30        		.byte	48
 6760 0194 00        		.byte	0
 6761 0195 30        		.byte	48
 6762 0196 00        		.byte	0
 6763 0197 70        		.byte	112
 6764 0198 00        		.byte	0
 6765 0199 70        		.byte	112
 6766 019a 00        		.byte	0
 6767 019b E0        		.byte	-32
 6768 019c 43        		.byte	67
 6769 019d E0        		.byte	-32
 6770 019e 7F        		.byte	127
 6771 019f C0        		.byte	-64
 6772 01a0 7F        		.byte	127
 6773 01a1 00        		.byte	0
 6774 01a2 1C        		.byte	28
 6775 01a3 00        		.byte	0
 6776               	.global	BIG_NUMBER_STYLE2
 6779               	BIG_NUMBER_STYLE2:
 6780 01a4 FF        		.byte	-1
 6781 01a5 F8        		.byte	-8
 6782 01a6 FF        		.byte	-1
 6783 01a7 F8        		.byte	-8
 6784 01a8 FF        		.byte	-1
 6785 01a9 F8        		.byte	-8
 6786 01aa E0        		.byte	-32
 6787 01ab 38        		.byte	56
 6788 01ac E0        		.byte	-32
 6789 01ad 38        		.byte	56
 6790 01ae E0        		.byte	-32
 6791 01af 38        		.byte	56
 6792 01b0 E0        		.byte	-32
 6793 01b1 38        		.byte	56
 6794 01b2 E0        		.byte	-32
 6795 01b3 38        		.byte	56
 6796 01b4 E0        		.byte	-32
 6797 01b5 38        		.byte	56
 6798 01b6 E0        		.byte	-32
 6799 01b7 38        		.byte	56
 6800 01b8 E0        		.byte	-32
 6801 01b9 38        		.byte	56
 6802 01ba E0        		.byte	-32
 6803 01bb 38        		.byte	56
 6804 01bc E0        		.byte	-32
 6805 01bd 38        		.byte	56
 6806 01be E0        		.byte	-32
 6807 01bf 38        		.byte	56
 6808 01c0 E0        		.byte	-32
 6809 01c1 38        		.byte	56
 6810 01c2 E0        		.byte	-32
 6811 01c3 38        		.byte	56
 6812 01c4 E0        		.byte	-32
 6813 01c5 38        		.byte	56
 6814 01c6 E0        		.byte	-32
 6815 01c7 38        		.byte	56
 6816 01c8 FF        		.byte	-1
 6817 01c9 F8        		.byte	-8
 6818 01ca FF        		.byte	-1
 6819 01cb F8        		.byte	-8
 6820 01cc FF        		.byte	-1
 6821 01cd F8        		.byte	-8
 6822 01ce 07        		.byte	7
 6823 01cf 00        		.byte	0
 6824 01d0 07        		.byte	7
 6825 01d1 00        		.byte	0
 6826 01d2 07        		.byte	7
 6827 01d3 00        		.byte	0
 6828 01d4 07        		.byte	7
 6829 01d5 00        		.byte	0
 6830 01d6 07        		.byte	7
 6831 01d7 00        		.byte	0
 6832 01d8 07        		.byte	7
 6833 01d9 00        		.byte	0
 6834 01da 07        		.byte	7
 6835 01db 00        		.byte	0
 6836 01dc 07        		.byte	7
 6837 01dd 00        		.byte	0
 6838 01de 07        		.byte	7
 6839 01df 00        		.byte	0
 6840 01e0 07        		.byte	7
 6841 01e1 00        		.byte	0
 6842 01e2 07        		.byte	7
 6843 01e3 00        		.byte	0
 6844 01e4 07        		.byte	7
 6845 01e5 00        		.byte	0
 6846 01e6 07        		.byte	7
 6847 01e7 00        		.byte	0
 6848 01e8 07        		.byte	7
 6849 01e9 00        		.byte	0
 6850 01ea 07        		.byte	7
 6851 01eb 00        		.byte	0
 6852 01ec 07        		.byte	7
 6853 01ed 00        		.byte	0
 6854 01ee 07        		.byte	7
 6855 01ef 00        		.byte	0
 6856 01f0 07        		.byte	7
 6857 01f1 00        		.byte	0
 6858 01f2 07        		.byte	7
 6859 01f3 00        		.byte	0
 6860 01f4 07        		.byte	7
 6861 01f5 00        		.byte	0
 6862 01f6 07        		.byte	7
 6863 01f7 00        		.byte	0
 6864 01f8 FF        		.byte	-1
 6865 01f9 F8        		.byte	-8
 6866 01fa FF        		.byte	-1
 6867 01fb F8        		.byte	-8
 6868 01fc FF        		.byte	-1
 6869 01fd F8        		.byte	-8
 6870 01fe 00        		.byte	0
 6871 01ff 38        		.byte	56
 6872 0200 00        		.byte	0
 6873 0201 38        		.byte	56
 6874 0202 00        		.byte	0
 6875 0203 38        		.byte	56
 6876 0204 00        		.byte	0
 6877 0205 38        		.byte	56
 6878 0206 00        		.byte	0
 6879 0207 38        		.byte	56
 6880 0208 00        		.byte	0
 6881 0209 38        		.byte	56
 6882 020a FF        		.byte	-1
 6883 020b F8        		.byte	-8
 6884 020c FF        		.byte	-1
 6885 020d F8        		.byte	-8
 6886 020e FF        		.byte	-1
 6887 020f F8        		.byte	-8
 6888 0210 E0        		.byte	-32
 6889 0211 00        		.byte	0
 6890 0212 E0        		.byte	-32
 6891 0213 00        		.byte	0
 6892 0214 E0        		.byte	-32
 6893 0215 00        		.byte	0
 6894 0216 E0        		.byte	-32
 6895 0217 00        		.byte	0
 6896 0218 E0        		.byte	-32
 6897 0219 00        		.byte	0
 6898 021a E0        		.byte	-32
 6899 021b 00        		.byte	0
 6900 021c FF        		.byte	-1
 6901 021d F8        		.byte	-8
 6902 021e FF        		.byte	-1
 6903 021f F8        		.byte	-8
 6904 0220 FF        		.byte	-1
 6905 0221 F8        		.byte	-8
 6906 0222 FF        		.byte	-1
 6907 0223 F8        		.byte	-8
 6908 0224 FF        		.byte	-1
 6909 0225 F8        		.byte	-8
 6910 0226 FF        		.byte	-1
 6911 0227 F8        		.byte	-8
 6912 0228 00        		.byte	0
 6913 0229 38        		.byte	56
 6914 022a 00        		.byte	0
 6915 022b 38        		.byte	56
 6916 022c 00        		.byte	0
 6917 022d 38        		.byte	56
 6918 022e 00        		.byte	0
 6919 022f 38        		.byte	56
 6920 0230 00        		.byte	0
 6921 0231 38        		.byte	56
 6922 0232 00        		.byte	0
 6923 0233 38        		.byte	56
 6924 0234 FF        		.byte	-1
 6925 0235 F8        		.byte	-8
 6926 0236 FF        		.byte	-1
 6927 0237 F8        		.byte	-8
 6928 0238 FF        		.byte	-1
 6929 0239 F8        		.byte	-8
 6930 023a 00        		.byte	0
 6931 023b 38        		.byte	56
 6932 023c 00        		.byte	0
 6933 023d 38        		.byte	56
 6934 023e 00        		.byte	0
 6935 023f 38        		.byte	56
 6936 0240 00        		.byte	0
 6937 0241 38        		.byte	56
 6938 0242 00        		.byte	0
 6939 0243 38        		.byte	56
 6940 0244 00        		.byte	0
 6941 0245 38        		.byte	56
 6942 0246 FF        		.byte	-1
 6943 0247 F8        		.byte	-8
 6944 0248 FF        		.byte	-1
 6945 0249 F8        		.byte	-8
 6946 024a FF        		.byte	-1
 6947 024b F8        		.byte	-8
 6948 024c E0        		.byte	-32
 6949 024d 38        		.byte	56
 6950 024e E0        		.byte	-32
 6951 024f 38        		.byte	56
 6952 0250 E0        		.byte	-32
 6953 0251 38        		.byte	56
 6954 0252 E0        		.byte	-32
 6955 0253 38        		.byte	56
 6956 0254 E0        		.byte	-32
 6957 0255 38        		.byte	56
 6958 0256 E0        		.byte	-32
 6959 0257 38        		.byte	56
 6960 0258 E0        		.byte	-32
 6961 0259 38        		.byte	56
 6962 025a E0        		.byte	-32
 6963 025b 38        		.byte	56
 6964 025c E0        		.byte	-32
 6965 025d 38        		.byte	56
 6966 025e FF        		.byte	-1
 6967 025f F8        		.byte	-8
 6968 0260 FF        		.byte	-1
 6969 0261 F8        		.byte	-8
 6970 0262 FF        		.byte	-1
 6971 0263 F8        		.byte	-8
 6972 0264 00        		.byte	0
 6973 0265 38        		.byte	56
 6974 0266 00        		.byte	0
 6975 0267 38        		.byte	56
 6976 0268 00        		.byte	0
 6977 0269 38        		.byte	56
 6978 026a 00        		.byte	0
 6979 026b 38        		.byte	56
 6980 026c 00        		.byte	0
 6981 026d 38        		.byte	56
 6982 026e 00        		.byte	0
 6983 026f 38        		.byte	56
 6984 0270 00        		.byte	0
 6985 0271 38        		.byte	56
 6986 0272 00        		.byte	0
 6987 0273 38        		.byte	56
 6988 0274 00        		.byte	0
 6989 0275 38        		.byte	56
 6990 0276 FF        		.byte	-1
 6991 0277 F8        		.byte	-8
 6992 0278 FF        		.byte	-1
 6993 0279 F8        		.byte	-8
 6994 027a FF        		.byte	-1
 6995 027b F8        		.byte	-8
 6996 027c E0        		.byte	-32
 6997 027d 00        		.byte	0
 6998 027e E0        		.byte	-32
 6999 027f 00        		.byte	0
 7000 0280 E0        		.byte	-32
 7001 0281 00        		.byte	0
 7002 0282 E0        		.byte	-32
 7003 0283 00        		.byte	0
 7004 0284 E0        		.byte	-32
 7005 0285 00        		.byte	0
 7006 0286 E0        		.byte	-32
 7007 0287 00        		.byte	0
 7008 0288 FF        		.byte	-1
 7009 0289 F8        		.byte	-8
 7010 028a FF        		.byte	-1
 7011 028b F8        		.byte	-8
 7012 028c FF        		.byte	-1
 7013 028d F8        		.byte	-8
 7014 028e 00        		.byte	0
 7015 028f 38        		.byte	56
 7016 0290 00        		.byte	0
 7017 0291 38        		.byte	56
 7018 0292 00        		.byte	0
 7019 0293 38        		.byte	56
 7020 0294 00        		.byte	0
 7021 0295 38        		.byte	56
 7022 0296 00        		.byte	0
 7023 0297 38        		.byte	56
 7024 0298 00        		.byte	0
 7025 0299 38        		.byte	56
 7026 029a FF        		.byte	-1
 7027 029b F8        		.byte	-8
 7028 029c FF        		.byte	-1
 7029 029d F8        		.byte	-8
 7030 029e FF        		.byte	-1
 7031 029f F8        		.byte	-8
 7032 02a0 FF        		.byte	-1
 7033 02a1 F8        		.byte	-8
 7034 02a2 FF        		.byte	-1
 7035 02a3 F8        		.byte	-8
 7036 02a4 FF        		.byte	-1
 7037 02a5 F8        		.byte	-8
 7038 02a6 E0        		.byte	-32
 7039 02a7 00        		.byte	0
 7040 02a8 E0        		.byte	-32
 7041 02a9 00        		.byte	0
 7042 02aa E0        		.byte	-32
 7043 02ab 00        		.byte	0
 7044 02ac E0        		.byte	-32
 7045 02ad 00        		.byte	0
 7046 02ae E0        		.byte	-32
 7047 02af 00        		.byte	0
 7048 02b0 E0        		.byte	-32
 7049 02b1 00        		.byte	0
 7050 02b2 FF        		.byte	-1
 7051 02b3 F8        		.byte	-8
 7052 02b4 FF        		.byte	-1
 7053 02b5 F8        		.byte	-8
 7054 02b6 FF        		.byte	-1
 7055 02b7 F8        		.byte	-8
 7056 02b8 E0        		.byte	-32
 7057 02b9 38        		.byte	56
 7058 02ba E0        		.byte	-32
 7059 02bb 38        		.byte	56
 7060 02bc E0        		.byte	-32
 7061 02bd 38        		.byte	56
 7062 02be E0        		.byte	-32
 7063 02bf 38        		.byte	56
 7064 02c0 E0        		.byte	-32
 7065 02c1 38        		.byte	56
 7066 02c2 E0        		.byte	-32
 7067 02c3 38        		.byte	56
 7068 02c4 FF        		.byte	-1
 7069 02c5 F8        		.byte	-8
 7070 02c6 FF        		.byte	-1
 7071 02c7 F8        		.byte	-8
 7072 02c8 FF        		.byte	-1
 7073 02c9 F8        		.byte	-8
 7074 02ca FF        		.byte	-1
 7075 02cb F8        		.byte	-8
 7076 02cc FF        		.byte	-1
 7077 02cd F8        		.byte	-8
 7078 02ce FF        		.byte	-1
 7079 02cf F8        		.byte	-8
 7080 02d0 00        		.byte	0
 7081 02d1 38        		.byte	56
 7082 02d2 00        		.byte	0
 7083 02d3 38        		.byte	56
 7084 02d4 00        		.byte	0
 7085 02d5 38        		.byte	56
 7086 02d6 00        		.byte	0
 7087 02d7 38        		.byte	56
 7088 02d8 00        		.byte	0
 7089 02d9 38        		.byte	56
 7090 02da 00        		.byte	0
 7091 02db 38        		.byte	56
 7092 02dc 00        		.byte	0
 7093 02dd 38        		.byte	56
 7094 02de 00        		.byte	0
 7095 02df 38        		.byte	56
 7096 02e0 00        		.byte	0
 7097 02e1 38        		.byte	56
 7098 02e2 00        		.byte	0
 7099 02e3 38        		.byte	56
 7100 02e4 00        		.byte	0
 7101 02e5 38        		.byte	56
 7102 02e6 00        		.byte	0
 7103 02e7 38        		.byte	56
 7104 02e8 00        		.byte	0
 7105 02e9 38        		.byte	56
 7106 02ea 00        		.byte	0
 7107 02eb 38        		.byte	56
 7108 02ec 00        		.byte	0
 7109 02ed 38        		.byte	56
 7110 02ee 00        		.byte	0
 7111 02ef 38        		.byte	56
 7112 02f0 00        		.byte	0
 7113 02f1 38        		.byte	56
 7114 02f2 00        		.byte	0
 7115 02f3 38        		.byte	56
 7116 02f4 FF        		.byte	-1
 7117 02f5 F8        		.byte	-8
 7118 02f6 FF        		.byte	-1
 7119 02f7 F8        		.byte	-8
 7120 02f8 FF        		.byte	-1
 7121 02f9 F8        		.byte	-8
 7122 02fa E0        		.byte	-32
 7123 02fb 38        		.byte	56
 7124 02fc E0        		.byte	-32
 7125 02fd 38        		.byte	56
 7126 02fe E0        		.byte	-32
 7127 02ff 38        		.byte	56
 7128 0300 E0        		.byte	-32
 7129 0301 38        		.byte	56
 7130 0302 E0        		.byte	-32
 7131 0303 38        		.byte	56
 7132 0304 E0        		.byte	-32
 7133 0305 38        		.byte	56
 7134 0306 FF        		.byte	-1
 7135 0307 F8        		.byte	-8
 7136 0308 FF        		.byte	-1
 7137 0309 F8        		.byte	-8
 7138 030a FF        		.byte	-1
 7139 030b F8        		.byte	-8
 7140 030c E0        		.byte	-32
 7141 030d 38        		.byte	56
 7142 030e E0        		.byte	-32
 7143 030f 38        		.byte	56
 7144 0310 E0        		.byte	-32
 7145 0311 38        		.byte	56
 7146 0312 E0        		.byte	-32
 7147 0313 38        		.byte	56
 7148 0314 E0        		.byte	-32
 7149 0315 38        		.byte	56
 7150 0316 E0        		.byte	-32
 7151 0317 38        		.byte	56
 7152 0318 FF        		.byte	-1
 7153 0319 F8        		.byte	-8
 7154 031a FF        		.byte	-1
 7155 031b F8        		.byte	-8
 7156 031c FF        		.byte	-1
 7157 031d F8        		.byte	-8
 7158 031e FF        		.byte	-1
 7159 031f F8        		.byte	-8
 7160 0320 FF        		.byte	-1
 7161 0321 F8        		.byte	-8
 7162 0322 FF        		.byte	-1
 7163 0323 F8        		.byte	-8
 7164 0324 E0        		.byte	-32
 7165 0325 38        		.byte	56
 7166 0326 E0        		.byte	-32
 7167 0327 38        		.byte	56
 7168 0328 E0        		.byte	-32
 7169 0329 38        		.byte	56
 7170 032a E0        		.byte	-32
 7171 032b 38        		.byte	56
 7172 032c E0        		.byte	-32
 7173 032d 38        		.byte	56
 7174 032e E0        		.byte	-32
 7175 032f 38        		.byte	56
 7176 0330 FF        		.byte	-1
 7177 0331 F8        		.byte	-8
 7178 0332 FF        		.byte	-1
 7179 0333 F8        		.byte	-8
 7180 0334 FF        		.byte	-1
 7181 0335 F8        		.byte	-8
 7182 0336 00        		.byte	0
 7183 0337 38        		.byte	56
 7184 0338 00        		.byte	0
 7185 0339 38        		.byte	56
 7186 033a 00        		.byte	0
 7187 033b 38        		.byte	56
 7188 033c 00        		.byte	0
 7189 033d 38        		.byte	56
 7190 033e 00        		.byte	0
 7191 033f 38        		.byte	56
 7192 0340 00        		.byte	0
 7193 0341 38        		.byte	56
 7194 0342 FF        		.byte	-1
 7195 0343 F8        		.byte	-8
 7196 0344 FF        		.byte	-1
 7197 0345 F8        		.byte	-8
 7198 0346 FF        		.byte	-1
 7199 0347 F8        		.byte	-8
 7200               	.global	BIG_NUMBER_STYLE3
 7203               	BIG_NUMBER_STYLE3:
 7204 0348 3F        		.byte	63
 7205 0349 E0        		.byte	-32
 7206 034a 7F        		.byte	127
 7207 034b F0        		.byte	-16
 7208 034c FF        		.byte	-1
 7209 034d F8        		.byte	-8
 7210 034e E0        		.byte	-32
 7211 034f 38        		.byte	56
 7212 0350 E0        		.byte	-32
 7213 0351 38        		.byte	56
 7214 0352 E0        		.byte	-32
 7215 0353 38        		.byte	56
 7216 0354 E0        		.byte	-32
 7217 0355 38        		.byte	56
 7218 0356 E0        		.byte	-32
 7219 0357 38        		.byte	56
 7220 0358 E0        		.byte	-32
 7221 0359 38        		.byte	56
 7222 035a E0        		.byte	-32
 7223 035b 38        		.byte	56
 7224 035c E0        		.byte	-32
 7225 035d 38        		.byte	56
 7226 035e E0        		.byte	-32
 7227 035f 38        		.byte	56
 7228 0360 E0        		.byte	-32
 7229 0361 38        		.byte	56
 7230 0362 E0        		.byte	-32
 7231 0363 38        		.byte	56
 7232 0364 E0        		.byte	-32
 7233 0365 38        		.byte	56
 7234 0366 E0        		.byte	-32
 7235 0367 38        		.byte	56
 7236 0368 E0        		.byte	-32
 7237 0369 38        		.byte	56
 7238 036a E0        		.byte	-32
 7239 036b 38        		.byte	56
 7240 036c FF        		.byte	-1
 7241 036d F8        		.byte	-8
 7242 036e 7F        		.byte	127
 7243 036f F0        		.byte	-16
 7244 0370 3F        		.byte	63
 7245 0371 E0        		.byte	-32
 7246 0372 07        		.byte	7
 7247 0373 00        		.byte	0
 7248 0374 0F        		.byte	15
 7249 0375 00        		.byte	0
 7250 0376 1F        		.byte	31
 7251 0377 00        		.byte	0
 7252 0378 1F        		.byte	31
 7253 0379 00        		.byte	0
 7254 037a 1F        		.byte	31
 7255 037b 00        		.byte	0
 7256 037c 07        		.byte	7
 7257 037d 00        		.byte	0
 7258 037e 07        		.byte	7
 7259 037f 00        		.byte	0
 7260 0380 07        		.byte	7
 7261 0381 00        		.byte	0
 7262 0382 07        		.byte	7
 7263 0383 00        		.byte	0
 7264 0384 07        		.byte	7
 7265 0385 00        		.byte	0
 7266 0386 07        		.byte	7
 7267 0387 00        		.byte	0
 7268 0388 07        		.byte	7
 7269 0389 00        		.byte	0
 7270 038a 07        		.byte	7
 7271 038b 00        		.byte	0
 7272 038c 07        		.byte	7
 7273 038d 00        		.byte	0
 7274 038e 07        		.byte	7
 7275 038f 00        		.byte	0
 7276 0390 07        		.byte	7
 7277 0391 00        		.byte	0
 7278 0392 07        		.byte	7
 7279 0393 00        		.byte	0
 7280 0394 07        		.byte	7
 7281 0395 00        		.byte	0
 7282 0396 FF        		.byte	-1
 7283 0397 F8        		.byte	-8
 7284 0398 FF        		.byte	-1
 7285 0399 F8        		.byte	-8
 7286 039a FF        		.byte	-1
 7287 039b F8        		.byte	-8
 7288 039c 3F        		.byte	63
 7289 039d E0        		.byte	-32
 7290 039e 7F        		.byte	127
 7291 039f F0        		.byte	-16
 7292 03a0 FF        		.byte	-1
 7293 03a1 F8        		.byte	-8
 7294 03a2 E0        		.byte	-32
 7295 03a3 38        		.byte	56
 7296 03a4 00        		.byte	0
 7297 03a5 38        		.byte	56
 7298 03a6 00        		.byte	0
 7299 03a7 38        		.byte	56
 7300 03a8 00        		.byte	0
 7301 03a9 38        		.byte	56
 7302 03aa 00        		.byte	0
 7303 03ab 38        		.byte	56
 7304 03ac 00        		.byte	0
 7305 03ad 38        		.byte	56
 7306 03ae 3F        		.byte	63
 7307 03af F8        		.byte	-8
 7308 03b0 7F        		.byte	127
 7309 03b1 F0        		.byte	-16
 7310 03b2 FF        		.byte	-1
 7311 03b3 E0        		.byte	-32
 7312 03b4 E0        		.byte	-32
 7313 03b5 00        		.byte	0
 7314 03b6 E0        		.byte	-32
 7315 03b7 00        		.byte	0
 7316 03b8 E0        		.byte	-32
 7317 03b9 00        		.byte	0
 7318 03ba E0        		.byte	-32
 7319 03bb 00        		.byte	0
 7320 03bc E0        		.byte	-32
 7321 03bd 00        		.byte	0
 7322 03be E0        		.byte	-32
 7323 03bf 00        		.byte	0
 7324 03c0 FF        		.byte	-1
 7325 03c1 F8        		.byte	-8
 7326 03c2 FF        		.byte	-1
 7327 03c3 F8        		.byte	-8
 7328 03c4 FF        		.byte	-1
 7329 03c5 F8        		.byte	-8
 7330 03c6 3F        		.byte	63
 7331 03c7 E0        		.byte	-32
 7332 03c8 7F        		.byte	127
 7333 03c9 F0        		.byte	-16
 7334 03ca FF        		.byte	-1
 7335 03cb F8        		.byte	-8
 7336 03cc E0        		.byte	-32
 7337 03cd 38        		.byte	56
 7338 03ce 00        		.byte	0
 7339 03cf 38        		.byte	56
 7340 03d0 00        		.byte	0
 7341 03d1 38        		.byte	56
 7342 03d2 00        		.byte	0
 7343 03d3 38        		.byte	56
 7344 03d4 00        		.byte	0
 7345 03d5 38        		.byte	56
 7346 03d6 00        		.byte	0
 7347 03d7 38        		.byte	56
 7348 03d8 1F        		.byte	31
 7349 03d9 F0        		.byte	-16
 7350 03da 1F        		.byte	31
 7351 03db E0        		.byte	-32
 7352 03dc 1F        		.byte	31
 7353 03dd F0        		.byte	-16
 7354 03de 00        		.byte	0
 7355 03df 38        		.byte	56
 7356 03e0 00        		.byte	0
 7357 03e1 38        		.byte	56
 7358 03e2 00        		.byte	0
 7359 03e3 38        		.byte	56
 7360 03e4 00        		.byte	0
 7361 03e5 38        		.byte	56
 7362 03e6 00        		.byte	0
 7363 03e7 38        		.byte	56
 7364 03e8 E0        		.byte	-32
 7365 03e9 38        		.byte	56
 7366 03ea FF        		.byte	-1
 7367 03eb F8        		.byte	-8
 7368 03ec 7F        		.byte	127
 7369 03ed F0        		.byte	-16
 7370 03ee 3F        		.byte	63
 7371 03ef E0        		.byte	-32
 7372 03f0 E1        		.byte	-31
 7373 03f1 C0        		.byte	-64
 7374 03f2 E1        		.byte	-31
 7375 03f3 C0        		.byte	-64
 7376 03f4 E1        		.byte	-31
 7377 03f5 C0        		.byte	-64
 7378 03f6 E1        		.byte	-31
 7379 03f7 C0        		.byte	-64
 7380 03f8 E1        		.byte	-31
 7381 03f9 C0        		.byte	-64
 7382 03fa E1        		.byte	-31
 7383 03fb C0        		.byte	-64
 7384 03fc E1        		.byte	-31
 7385 03fd C0        		.byte	-64
 7386 03fe E1        		.byte	-31
 7387 03ff C0        		.byte	-64
 7388 0400 E1        		.byte	-31
 7389 0401 C0        		.byte	-64
 7390 0402 FF        		.byte	-1
 7391 0403 F8        		.byte	-8
 7392 0404 FF        		.byte	-1
 7393 0405 F8        		.byte	-8
 7394 0406 FF        		.byte	-1
 7395 0407 F8        		.byte	-8
 7396 0408 01        		.byte	1
 7397 0409 C0        		.byte	-64
 7398 040a 01        		.byte	1
 7399 040b C0        		.byte	-64
 7400 040c 01        		.byte	1
 7401 040d C0        		.byte	-64
 7402 040e 01        		.byte	1
 7403 040f C0        		.byte	-64
 7404 0410 01        		.byte	1
 7405 0411 C0        		.byte	-64
 7406 0412 01        		.byte	1
 7407 0413 C0        		.byte	-64
 7408 0414 01        		.byte	1
 7409 0415 C0        		.byte	-64
 7410 0416 01        		.byte	1
 7411 0417 C0        		.byte	-64
 7412 0418 01        		.byte	1
 7413 0419 C0        		.byte	-64
 7414 041a FF        		.byte	-1
 7415 041b F8        		.byte	-8
 7416 041c FF        		.byte	-1
 7417 041d F8        		.byte	-8
 7418 041e FF        		.byte	-1
 7419 041f F8        		.byte	-8
 7420 0420 E0        		.byte	-32
 7421 0421 00        		.byte	0
 7422 0422 E0        		.byte	-32
 7423 0423 00        		.byte	0
 7424 0424 E0        		.byte	-32
 7425 0425 00        		.byte	0
 7426 0426 E0        		.byte	-32
 7427 0427 00        		.byte	0
 7428 0428 E0        		.byte	-32
 7429 0429 00        		.byte	0
 7430 042a E0        		.byte	-32
 7431 042b 00        		.byte	0
 7432 042c FF        		.byte	-1
 7433 042d E0        		.byte	-32
 7434 042e FF        		.byte	-1
 7435 042f F0        		.byte	-16
 7436 0430 FF        		.byte	-1
 7437 0431 F8        		.byte	-8
 7438 0432 00        		.byte	0
 7439 0433 38        		.byte	56
 7440 0434 00        		.byte	0
 7441 0435 38        		.byte	56
 7442 0436 00        		.byte	0
 7443 0437 38        		.byte	56
 7444 0438 00        		.byte	0
 7445 0439 38        		.byte	56
 7446 043a 00        		.byte	0
 7447 043b 38        		.byte	56
 7448 043c E0        		.byte	-32
 7449 043d 38        		.byte	56
 7450 043e FF        		.byte	-1
 7451 043f F8        		.byte	-8
 7452 0440 7F        		.byte	127
 7453 0441 F0        		.byte	-16
 7454 0442 3F        		.byte	63
 7455 0443 E0        		.byte	-32
 7456 0444 E0        		.byte	-32
 7457 0445 00        		.byte	0
 7458 0446 E0        		.byte	-32
 7459 0447 00        		.byte	0
 7460 0448 E0        		.byte	-32
 7461 0449 00        		.byte	0
 7462 044a E0        		.byte	-32
 7463 044b 00        		.byte	0
 7464 044c E0        		.byte	-32
 7465 044d 00        		.byte	0
 7466 044e E0        		.byte	-32
 7467 044f 00        		.byte	0
 7468 0450 E0        		.byte	-32
 7469 0451 00        		.byte	0
 7470 0452 E0        		.byte	-32
 7471 0453 00        		.byte	0
 7472 0454 E0        		.byte	-32
 7473 0455 00        		.byte	0
 7474 0456 FF        		.byte	-1
 7475 0457 E0        		.byte	-32
 7476 0458 FF        		.byte	-1
 7477 0459 F0        		.byte	-16
 7478 045a FF        		.byte	-1
 7479 045b F8        		.byte	-8
 7480 045c E0        		.byte	-32
 7481 045d 38        		.byte	56
 7482 045e E0        		.byte	-32
 7483 045f 38        		.byte	56
 7484 0460 E0        		.byte	-32
 7485 0461 38        		.byte	56
 7486 0462 E0        		.byte	-32
 7487 0463 38        		.byte	56
 7488 0464 E0        		.byte	-32
 7489 0465 38        		.byte	56
 7490 0466 E0        		.byte	-32
 7491 0467 38        		.byte	56
 7492 0468 FF        		.byte	-1
 7493 0469 F8        		.byte	-8
 7494 046a 7F        		.byte	127
 7495 046b F0        		.byte	-16
 7496 046c 3F        		.byte	63
 7497 046d E0        		.byte	-32
 7498 046e FF        		.byte	-1
 7499 046f F8        		.byte	-8
 7500 0470 FF        		.byte	-1
 7501 0471 F8        		.byte	-8
 7502 0472 FF        		.byte	-1
 7503 0473 F8        		.byte	-8
 7504 0474 00        		.byte	0
 7505 0475 38        		.byte	56
 7506 0476 00        		.byte	0
 7507 0477 38        		.byte	56
 7508 0478 00        		.byte	0
 7509 0479 38        		.byte	56
 7510 047a 00        		.byte	0
 7511 047b 38        		.byte	56
 7512 047c 00        		.byte	0
 7513 047d 38        		.byte	56
 7514 047e 00        		.byte	0
 7515 047f 38        		.byte	56
 7516 0480 00        		.byte	0
 7517 0481 38        		.byte	56
 7518 0482 00        		.byte	0
 7519 0483 38        		.byte	56
 7520 0484 00        		.byte	0
 7521 0485 38        		.byte	56
 7522 0486 00        		.byte	0
 7523 0487 38        		.byte	56
 7524 0488 00        		.byte	0
 7525 0489 38        		.byte	56
 7526 048a 00        		.byte	0
 7527 048b 38        		.byte	56
 7528 048c 00        		.byte	0
 7529 048d 38        		.byte	56
 7530 048e 00        		.byte	0
 7531 048f 38        		.byte	56
 7532 0490 00        		.byte	0
 7533 0491 38        		.byte	56
 7534 0492 00        		.byte	0
 7535 0493 38        		.byte	56
 7536 0494 00        		.byte	0
 7537 0495 38        		.byte	56
 7538 0496 00        		.byte	0
 7539 0497 38        		.byte	56
 7540 0498 3F        		.byte	63
 7541 0499 E0        		.byte	-32
 7542 049a 7F        		.byte	127
 7543 049b F0        		.byte	-16
 7544 049c FF        		.byte	-1
 7545 049d F8        		.byte	-8
 7546 049e E0        		.byte	-32
 7547 049f 38        		.byte	56
 7548 04a0 E0        		.byte	-32
 7549 04a1 38        		.byte	56
 7550 04a2 E0        		.byte	-32
 7551 04a3 38        		.byte	56
 7552 04a4 E0        		.byte	-32
 7553 04a5 38        		.byte	56
 7554 04a6 E0        		.byte	-32
 7555 04a7 38        		.byte	56
 7556 04a8 70        		.byte	112
 7557 04a9 70        		.byte	112
 7558 04aa 3F        		.byte	63
 7559 04ab E0        		.byte	-32
 7560 04ac 1F        		.byte	31
 7561 04ad C0        		.byte	-64
 7562 04ae 3F        		.byte	63
 7563 04af E0        		.byte	-32
 7564 04b0 70        		.byte	112
 7565 04b1 70        		.byte	112
 7566 04b2 E0        		.byte	-32
 7567 04b3 38        		.byte	56
 7568 04b4 E0        		.byte	-32
 7569 04b5 38        		.byte	56
 7570 04b6 E0        		.byte	-32
 7571 04b7 38        		.byte	56
 7572 04b8 E0        		.byte	-32
 7573 04b9 38        		.byte	56
 7574 04ba E0        		.byte	-32
 7575 04bb 38        		.byte	56
 7576 04bc FF        		.byte	-1
 7577 04bd F8        		.byte	-8
 7578 04be 7F        		.byte	127
 7579 04bf F0        		.byte	-16
 7580 04c0 3F        		.byte	63
 7581 04c1 E0        		.byte	-32
 7582 04c2 3F        		.byte	63
 7583 04c3 E0        		.byte	-32
 7584 04c4 7F        		.byte	127
 7585 04c5 F0        		.byte	-16
 7586 04c6 FF        		.byte	-1
 7587 04c7 F8        		.byte	-8
 7588 04c8 E0        		.byte	-32
 7589 04c9 38        		.byte	56
 7590 04ca E0        		.byte	-32
 7591 04cb 38        		.byte	56
 7592 04cc E0        		.byte	-32
 7593 04cd 38        		.byte	56
 7594 04ce E0        		.byte	-32
 7595 04cf 38        		.byte	56
 7596 04d0 E0        		.byte	-32
 7597 04d1 38        		.byte	56
 7598 04d2 E0        		.byte	-32
 7599 04d3 38        		.byte	56
 7600 04d4 FF        		.byte	-1
 7601 04d5 F8        		.byte	-8
 7602 04d6 7F        		.byte	127
 7603 04d7 F8        		.byte	-8
 7604 04d8 3F        		.byte	63
 7605 04d9 F8        		.byte	-8
 7606 04da 00        		.byte	0
 7607 04db 38        		.byte	56
 7608 04dc 00        		.byte	0
 7609 04dd 38        		.byte	56
 7610 04de 00        		.byte	0
 7611 04df 38        		.byte	56
 7612 04e0 00        		.byte	0
 7613 04e1 38        		.byte	56
 7614 04e2 00        		.byte	0
 7615 04e3 38        		.byte	56
 7616 04e4 00        		.byte	0
 7617 04e5 38        		.byte	56
 7618 04e6 00        		.byte	0
 7619 04e7 38        		.byte	56
 7620 04e8 00        		.byte	0
 7621 04e9 38        		.byte	56
 7622 04ea 00        		.byte	0
 7623 04eb 38        		.byte	56
 7624               	.global	SCROLL
 7627               	SCROLL:
 7628 04ec 7C        		.byte	124
 7629 04ed 82        		.byte	-126
 7630 04ee 82        		.byte	-126
 7631 04ef 82        		.byte	-126
 7632 04f0 82        		.byte	-126
 7633 04f1 82        		.byte	-126
 7634 04f2 82        		.byte	-126
 7635 04f3 82        		.byte	-126
 7636 04f4 82        		.byte	-126
 7637 04f5 7C        		.byte	124
 7638 04f6 10        		.byte	16
 7639 04f7 30        		.byte	48
 7640 04f8 50        		.byte	80
 7641 04f9 10        		.byte	16
 7642 04fa 10        		.byte	16
 7643 04fb 10        		.byte	16
 7644 04fc 10        		.byte	16
 7645 04fd 10        		.byte	16
 7646 04fe 10        		.byte	16
 7647 04ff FE        		.byte	-2
 7648 0500 38        		.byte	56
 7649 0501 44        		.byte	68
 7650 0502 82        		.byte	-126
 7651 0503 82        		.byte	-126
 7652 0504 04        		.byte	4
 7653 0505 08        		.byte	8
 7654 0506 10        		.byte	16
 7655 0507 20        		.byte	32
 7656 0508 40        		.byte	64
 7657 0509 FE        		.byte	-2
 7658 050a 7C        		.byte	124
 7659 050b 82        		.byte	-126
 7660 050c 02        		.byte	2
 7661 050d 02        		.byte	2
 7662 050e 3C        		.byte	60
 7663 050f 02        		.byte	2
 7664 0510 02        		.byte	2
 7665 0511 82        		.byte	-126
 7666 0512 82        		.byte	-126
 7667 0513 7C        		.byte	124
 7668 0514 06        		.byte	6
 7669 0515 0C        		.byte	12
 7670 0516 14        		.byte	20
 7671 0517 24        		.byte	36
 7672 0518 44        		.byte	68
 7673 0519 84        		.byte	-124
 7674 051a FE        		.byte	-2
 7675 051b 04        		.byte	4
 7676 051c 04        		.byte	4
 7677 051d 04        		.byte	4
 7678 051e FE        		.byte	-2
 7679 051f 80        		.byte	-128
 7680 0520 80        		.byte	-128
 7681 0521 FC        		.byte	-4
 7682 0522 02        		.byte	2
 7683 0523 02        		.byte	2
 7684 0524 02        		.byte	2
 7685 0525 82        		.byte	-126
 7686 0526 82        		.byte	-126
 7687 0527 7C        		.byte	124
 7688 0528 7C        		.byte	124
 7689 0529 82        		.byte	-126
 7690 052a 80        		.byte	-128
 7691 052b 80        		.byte	-128
 7692 052c FC        		.byte	-4
 7693 052d 82        		.byte	-126
 7694 052e 82        		.byte	-126
 7695 052f 82        		.byte	-126
 7696 0530 82        		.byte	-126
 7697 0531 7C        		.byte	124
 7698 0532 7E        		.byte	126
 7699 0533 82        		.byte	-126
 7700 0534 02        		.byte	2
 7701 0535 04        		.byte	4
 7702 0536 08        		.byte	8
 7703 0537 10        		.byte	16
 7704 0538 20        		.byte	32
 7705 0539 20        		.byte	32
 7706 053a 20        		.byte	32
 7707 053b 20        		.byte	32
 7708 053c 7C        		.byte	124
 7709 053d 82        		.byte	-126
 7710 053e 82        		.byte	-126
 7711 053f 82        		.byte	-126
 7712 0540 7C        		.byte	124
 7713 0541 82        		.byte	-126
 7714 0542 82        		.byte	-126
 7715 0543 82        		.byte	-126
 7716 0544 82        		.byte	-126
 7717 0545 7C        		.byte	124
 7718 0546 7C        		.byte	124
 7719 0547 82        		.byte	-126
 7720 0548 82        		.byte	-126
 7721 0549 82        		.byte	-126
 7722 054a 82        		.byte	-126
 7723 054b 7E        		.byte	126
 7724 054c 02        		.byte	2
 7725 054d 02        		.byte	2
 7726 054e 82        		.byte	-126
 7727 054f 7C        		.byte	124
 7728 0550 40        		.byte	64
 7729 0551 7E        		.byte	126
 7730 0552 88        		.byte	-120
 7731 0553 7E        		.byte	126
 7732 0554 48        		.byte	72
 7733 0555 48        		.byte	72
 7734 0556 FE        		.byte	-2
 7735 0557 08        		.byte	8
 7736 0558 08        		.byte	8
 7737 0559 08        		.byte	8
 7738 055a 7E        		.byte	126
 7739 055b 42        		.byte	66
 7740 055c 42        		.byte	66
 7741 055d 7E        		.byte	126
 7742 055e 42        		.byte	66
 7743 055f 42        		.byte	66
 7744 0560 7E        		.byte	126
 7745 0561 42        		.byte	66
 7746 0562 46        		.byte	70
 7747 0563 82        		.byte	-126
 7748 0564 7E        		.byte	126
 7749 0565 92        		.byte	-110
 7750 0566 BA        		.byte	-70
 7751 0567 92        		.byte	-110
 7752 0568 BA        		.byte	-70
 7753 0569 82        		.byte	-126
 7754 056a BA        		.byte	-70
 7755 056b AA        		.byte	-86
 7756 056c BA        		.byte	-70
 7757 056d 86        		.byte	-122
 7758 056e 08        		.byte	8
 7759 056f 7E        		.byte	126
 7760 0570 54        		.byte	84
 7761 0571 7E        		.byte	126
 7762 0572 5C        		.byte	92
 7763 0573 40        		.byte	64
 7764 0574 5C        		.byte	92
 7765 0575 54        		.byte	84
 7766 0576 48        		.byte	72
 7767 0577 96        		.byte	-106
 7768 0578 00        		.byte	0
 7769 0579 00        		.byte	0
 7770 057a 00        		.byte	0
 7771 057b 00        		.byte	0
 7772 057c FE        		.byte	-2
 7773 057d 00        		.byte	0
 7774 057e 00        		.byte	0
 7775 057f 00        		.byte	0
 7776 0580 00        		.byte	0
 7777 0581 00        		.byte	0
 7778 0582 00        		.byte	0
 7779 0583 00        		.byte	0
 7780 0584 00        		.byte	0
 7781 0585 7E        		.byte	126
 7782 0586 00        		.byte	0
 7783 0587 00        		.byte	0
 7784 0588 00        		.byte	0
 7785 0589 FF        		.byte	-1
 7786 058a 00        		.byte	0
 7787 058b 00        		.byte	0
 7788 058c 00        		.byte	0
 7789 058d 7E        		.byte	126
 7790 058e 00        		.byte	0
 7791 058f 00        		.byte	0
 7792 0590 00        		.byte	0
 7793 0591 3C        		.byte	60
 7794 0592 00        		.byte	0
 7795 0593 00        		.byte	0
 7796 0594 00        		.byte	0
 7797 0595 FF        		.byte	-1
 7798 0596 FF        		.byte	-1
 7799 0597 A9        		.byte	-87
 7800 0598 A9        		.byte	-87
 7801 0599 A9        		.byte	-87
 7802 059a A9        		.byte	-87
 7803 059b A9        		.byte	-87
 7804 059c C7        		.byte	-57
 7805 059d 81        		.byte	-127
 7806 059e FF        		.byte	-1
 7807 059f 81        		.byte	-127
 7808 05a0 7E        		.byte	126
 7809 05a1 10        		.byte	16
 7810 05a2 10        		.byte	16
 7811 05a3 10        		.byte	16
 7812 05a4 7C        		.byte	124
 7813 05a5 14        		.byte	20
 7814 05a6 14        		.byte	20
 7815 05a7 14        		.byte	20
 7816 05a8 14        		.byte	20
 7817 05a9 FF        		.byte	-1
 7818 05aa 30        		.byte	48
 7819 05ab 18        		.byte	24
 7820 05ac 08        		.byte	8
 7821 05ad FF        		.byte	-1
 7822 05ae 00        		.byte	0
 7823 05af 24        		.byte	36
 7824 05b0 24        		.byte	36
 7825 05b1 66        		.byte	102
 7826 05b2 66        		.byte	102
 7827 05b3 C2        		.byte	-62
 7828 05b4 7F        		.byte	127
 7829 05b5 41        		.byte	65
 7830 05b6 41        		.byte	65
 7831 05b7 41        		.byte	65
 7832 05b8 7F        		.byte	127
 7833 05b9 41        		.byte	65
 7834 05ba 41        		.byte	65
 7835 05bb 41        		.byte	65
 7836 05bc 41        		.byte	65
 7837 05bd 7F        		.byte	127
 7838 05be 00        		.byte	0
 7839 05bf 00        		.byte	0
 7840 05c0 00        		.byte	0
 7841 05c1 00        		.byte	0
 7842 05c2 00        		.byte	0
 7843 05c3 00        		.byte	0
 7844 05c4 00        		.byte	0
 7845 05c5 00        		.byte	0
 7846 05c6 18        		.byte	24
 7847 05c7 18        		.byte	24
 7848 05c8 00        		.byte	0
 7849 05c9 00        		.byte	0
 7850 05ca 00        		.byte	0
 7851 05cb 00        		.byte	0
 7852 05cc 00        		.byte	0
 7853 05cd 00        		.byte	0
 7854 05ce 00        		.byte	0
 7855 05cf 00        		.byte	0
 7856 05d0 00        		.byte	0
 7857 05d1 00        		.byte	0
 7858 05d2 02        		.byte	2
 7859 05d3 E2        		.byte	-30
 7860 05d4 BF        		.byte	-65
 7861 05d5 A2        		.byte	-94
 7862 05d6 EA        		.byte	-22
 7863 05d7 AA        		.byte	-86
 7864 05d8 A2        		.byte	-94
 7865 05d9 AA        		.byte	-86
 7866 05da E6        		.byte	-26
 7867 05db 02        		.byte	2
 7868 05dc 38        		.byte	56
 7869 05dd 24        		.byte	36
 7870 05de 24        		.byte	36
 7871 05df 42        		.byte	66
 7872 05e0 BD        		.byte	-67
 7873 05e1 24        		.byte	36
 7874 05e2 24        		.byte	36
 7875 05e3 24        		.byte	36
 7876 05e4 44        		.byte	68
 7877 05e5 8C        		.byte	-116
 7878 05e6 10        		.byte	16
 7879 05e7 FF        		.byte	-1
 7880 05e8 3C        		.byte	60
 7881 05e9 24        		.byte	36
 7882 05ea 3C        		.byte	60
 7883 05eb FF        		.byte	-1
 7884 05ec 81        		.byte	-127
 7885 05ed 3C        		.byte	60
 7886 05ee 24        		.byte	36
 7887 05ef 47        		.byte	71
 7888 05f0 20        		.byte	32
 7889 05f1 3E        		.byte	62
 7890 05f2 40        		.byte	64
 7891 05f3 BE        		.byte	-66
 7892 05f4 2A        		.byte	42
 7893 05f5 FF        		.byte	-1
 7894 05f6 32        		.byte	50
 7895 05f7 7E        		.byte	126
 7896 05f8 02        		.byte	2
 7897 05f9 04        		.byte	4
 7898 05fa 40        		.byte	64
 7899 05fb 40        		.byte	64
 7900 05fc 40        		.byte	64
 7901 05fd F7        		.byte	-9
 7902 05fe 55        		.byte	85
 7903 05ff 55        		.byte	85
 7904 0600 55        		.byte	85
 7905 0601 57        		.byte	87
 7906 0602 50        		.byte	80
 7907 0603 B0        		.byte	-80
 7908 0604 5C        		.byte	92
 7909 0605 14        		.byte	20
 7910 0606 D4        		.byte	-44
 7911 0607 76        		.byte	118
 7912 0608 40        		.byte	64
 7913 0609 5C        		.byte	92
 7914 060a 54        		.byte	84
 7915 060b 54        		.byte	84
 7916 060c 68        		.byte	104
 7917 060d 56        		.byte	86
 7918 060e 7E        		.byte	126
 7919 060f 5A        		.byte	90
 7920 0610 7E        		.byte	126
 7921 0611 FF        		.byte	-1
 7922 0612 7E        		.byte	126
 7923 0613 42        		.byte	66
 7924 0614 7E        		.byte	126
 7925 0615 7E        		.byte	126
 7926 0616 42        		.byte	66
 7927 0617 FF        		.byte	-1
 7928 0618 00        		.byte	0
 7929 0619 00        		.byte	0
 7930 061a 00        		.byte	0
 7931 061b 00        		.byte	0
 7932 061c 00        		.byte	0
 7933 061d 60        		.byte	96
 7934 061e 60        		.byte	96
 7935 061f 00        		.byte	0
 7936 0620 60        		.byte	96
 7937 0621 60        		.byte	96
 7938 0622 10        		.byte	16
 7939 0623 10        		.byte	16
 7940 0624 7E        		.byte	126
 7941 0625 42        		.byte	66
 7942 0626 7E        		.byte	126
 7943 0627 42        		.byte	66
 7944 0628 7E        		.byte	126
 7945 0629 42        		.byte	66
 7946 062a 7E        		.byte	126
 7947 062b 42        		.byte	66
 7948 062c 04        		.byte	4
 7949 062d 7E        		.byte	126
 7950 062e 08        		.byte	8
 7951 062f 7E        		.byte	126
 7952 0630 08        		.byte	8
 7953 0631 FF        		.byte	-1
 7954 0632 08        		.byte	8
 7955 0633 08        		.byte	8
 7956 0634 28        		.byte	40
 7957 0635 18        		.byte	24
 7958 0636 02        		.byte	2
 7959 0637 02        		.byte	2
 7960 0638 BF        		.byte	-65
 7961 0639 62        		.byte	98
 7962 063a 3A        		.byte	58
 7963 063b 22        		.byte	34
 7964 063c 7A        		.byte	122
 7965 063d BB        		.byte	-69
 7966 063e 22        		.byte	34
 7967 063f 45        		.byte	69
 7968 0640 48        		.byte	72
 7969 0641 48        		.byte	72
 7970 0642 7E        		.byte	126
 7971 0643 D4        		.byte	-44
 7972 0644 62        		.byte	98
 7973 0645 54        		.byte	84
 7974 0646 D4        		.byte	-44
 7975 0647 48        		.byte	72
 7976 0648 54        		.byte	84
 7977 0649 62        		.byte	98
 7978 064a 10        		.byte	16
 7979 064b FE        		.byte	-2
 7980 064c 92        		.byte	-110
 7981 064d FE        		.byte	-2
 7982 064e 92        		.byte	-110
 7983 064f 92        		.byte	-110
 7984 0650 FE        		.byte	-2
 7985 0651 10        		.byte	16
 7986 0652 12        		.byte	18
 7987 0653 1E        		.byte	30
 7988 0654 FE        		.byte	-2
 7989 0655 04        		.byte	4
 7990 0656 08        		.byte	8
 7991 0657 10        		.byte	16
 7992 0658 FE        		.byte	-2
 7993 0659 10        		.byte	16
 7994 065a 10        		.byte	16
 7995 065b 10        		.byte	16
 7996 065c 50        		.byte	80
 7997 065d 30        		.byte	48
 7998 065e FE        		.byte	-2
 7999 065f 40        		.byte	64
 8000 0660 50        		.byte	80
 8001 0661 7E        		.byte	126
 8002 0662 52        		.byte	82
 8003 0663 52        		.byte	82
 8004 0664 52        		.byte	82
 8005 0665 52        		.byte	82
 8006 0666 52        		.byte	82
 8007 0667 A4        		.byte	-92
 8008 0668 00        		.byte	0
 8009 0669 00        		.byte	0
 8010 066a 00        		.byte	0
 8011 066b 00        		.byte	0
 8012 066c 7E        		.byte	126
 8013 066d 7E        		.byte	126
 8014 066e 00        		.byte	0
 8015 066f 00        		.byte	0
 8016 0670 00        		.byte	0
 8017 0671 00        		.byte	0
 8018 0672 7E        		.byte	126
 8019 0673 41        		.byte	65
 8020 0674 41        		.byte	65
 8021 0675 41        		.byte	65
 8022 0676 7E        		.byte	126
 8023 0677 41        		.byte	65
 8024 0678 41        		.byte	65
 8025 0679 41        		.byte	65
 8026 067a 41        		.byte	65
 8027 067b 7E        		.byte	126
 8028 067c 41        		.byte	65
 8029 067d 41        		.byte	65
 8030 067e 22        		.byte	34
 8031 067f 14        		.byte	20
 8032 0680 08        		.byte	8
 8033 0681 14        		.byte	20
 8034 0682 22        		.byte	34
 8035 0683 22        		.byte	34
 8036 0684 41        		.byte	65
 8037 0685 41        		.byte	65
 8038 0686 41        		.byte	65
 8039 0687 41        		.byte	65
 8040 0688 41        		.byte	65
 8041 0689 22        		.byte	34
 8042 068a 14        		.byte	20
 8043 068b 08        		.byte	8
 8044 068c 08        		.byte	8
 8045 068d 08        		.byte	8
 8046 068e 08        		.byte	8
 8047 068f 08        		.byte	8
 8048 0690 FE        		.byte	-2
 8049 0691 82        		.byte	-126
 8050 0692 82        		.byte	-126
 8051 0693 82        		.byte	-126
 8052 0694 FE        		.byte	-2
 8053 0695 82        		.byte	-126
 8054 0696 82        		.byte	-126
 8055 0697 82        		.byte	-126
 8056 0698 82        		.byte	-126
 8057 0699 FE        		.byte	-2
 8058 069a 84        		.byte	-124
 8059 069b 5F        		.byte	95
 8060 069c C4        		.byte	-60
 8061 069d 5F        		.byte	95
 8062 069e 55        		.byte	85
 8063 069f 5F        		.byte	95
 8064 06a0 44        		.byte	68
 8065 06a1 4E        		.byte	78
 8066 06a2 55        		.byte	85
 8067 06a3 BF        		.byte	-65
 8068 06a4 08        		.byte	8
 8069 06a5 FF        		.byte	-1
 8070 06a6 81        		.byte	-127
 8071 06a7 7E        		.byte	126
 8072 06a8 04        		.byte	4
 8073 06a9 FF        		.byte	-1
 8074 06aa 08        		.byte	8
 8075 06ab 08        		.byte	8
 8076 06ac 38        		.byte	56
 8077 06ad 08        		.byte	8
 8078 06ae 24        		.byte	36
 8079 06af 44        		.byte	68
 8080 06b0 FF        		.byte	-1
 8081 06b1 4E        		.byte	78
 8082 06b2 55        		.byte	85
 8083 06b3 55        		.byte	85
 8084 06b4 5F        		.byte	95
 8085 06b5 65        		.byte	101
 8086 06b6 44        		.byte	68
 8087 06b7 44        		.byte	68
 8088               	.global	SCROLL_STYLE1
 8091               	SCROLL_STYLE1:
 8092 06b8 7C        		.byte	124
 8093 06b9 82        		.byte	-126
 8094 06ba 82        		.byte	-126
 8095 06bb 82        		.byte	-126
 8096 06bc 82        		.byte	-126
 8097 06bd 82        		.byte	-126
 8098 06be 82        		.byte	-126
 8099 06bf 82        		.byte	-126
 8100 06c0 82        		.byte	-126
 8101 06c1 7C        		.byte	124
 8102 06c2 10        		.byte	16
 8103 06c3 30        		.byte	48
 8104 06c4 50        		.byte	80
 8105 06c5 10        		.byte	16
 8106 06c6 10        		.byte	16
 8107 06c7 10        		.byte	16
 8108 06c8 10        		.byte	16
 8109 06c9 10        		.byte	16
 8110 06ca 10        		.byte	16
 8111 06cb FE        		.byte	-2
 8112 06cc 38        		.byte	56
 8113 06cd 44        		.byte	68
 8114 06ce 82        		.byte	-126
 8115 06cf 82        		.byte	-126
 8116 06d0 04        		.byte	4
 8117 06d1 08        		.byte	8
 8118 06d2 10        		.byte	16
 8119 06d3 20        		.byte	32
 8120 06d4 40        		.byte	64
 8121 06d5 FE        		.byte	-2
 8122 06d6 7C        		.byte	124
 8123 06d7 82        		.byte	-126
 8124 06d8 02        		.byte	2
 8125 06d9 02        		.byte	2
 8126 06da 3C        		.byte	60
 8127 06db 02        		.byte	2
 8128 06dc 02        		.byte	2
 8129 06dd 82        		.byte	-126
 8130 06de 82        		.byte	-126
 8131 06df 7C        		.byte	124
 8132 06e0 06        		.byte	6
 8133 06e1 0C        		.byte	12
 8134 06e2 14        		.byte	20
 8135 06e3 24        		.byte	36
 8136 06e4 44        		.byte	68
 8137 06e5 84        		.byte	-124
 8138 06e6 FE        		.byte	-2
 8139 06e7 04        		.byte	4
 8140 06e8 04        		.byte	4
 8141 06e9 04        		.byte	4
 8142 06ea FE        		.byte	-2
 8143 06eb 80        		.byte	-128
 8144 06ec 80        		.byte	-128
 8145 06ed FC        		.byte	-4
 8146 06ee 02        		.byte	2
 8147 06ef 02        		.byte	2
 8148 06f0 02        		.byte	2
 8149 06f1 82        		.byte	-126
 8150 06f2 82        		.byte	-126
 8151 06f3 7C        		.byte	124
 8152 06f4 7C        		.byte	124
 8153 06f5 82        		.byte	-126
 8154 06f6 80        		.byte	-128
 8155 06f7 80        		.byte	-128
 8156 06f8 FC        		.byte	-4
 8157 06f9 82        		.byte	-126
 8158 06fa 82        		.byte	-126
 8159 06fb 82        		.byte	-126
 8160 06fc 82        		.byte	-126
 8161 06fd 7C        		.byte	124
 8162 06fe 7E        		.byte	126
 8163 06ff 82        		.byte	-126
 8164 0700 02        		.byte	2
 8165 0701 04        		.byte	4
 8166 0702 08        		.byte	8
 8167 0703 10        		.byte	16
 8168 0704 20        		.byte	32
 8169 0705 20        		.byte	32
 8170 0706 20        		.byte	32
 8171 0707 20        		.byte	32
 8172 0708 7C        		.byte	124
 8173 0709 82        		.byte	-126
 8174 070a 82        		.byte	-126
 8175 070b 82        		.byte	-126
 8176 070c 7C        		.byte	124
 8177 070d 82        		.byte	-126
 8178 070e 82        		.byte	-126
 8179 070f 82        		.byte	-126
 8180 0710 82        		.byte	-126
 8181 0711 7C        		.byte	124
 8182 0712 7C        		.byte	124
 8183 0713 82        		.byte	-126
 8184 0714 82        		.byte	-126
 8185 0715 82        		.byte	-126
 8186 0716 82        		.byte	-126
 8187 0717 7E        		.byte	126
 8188 0718 02        		.byte	2
 8189 0719 02        		.byte	2
 8190 071a 82        		.byte	-126
 8191 071b 7C        		.byte	124
 8192 071c 40        		.byte	64
 8193 071d 7E        		.byte	126
 8194 071e 88        		.byte	-120
 8195 071f 7E        		.byte	126
 8196 0720 48        		.byte	72
 8197 0721 48        		.byte	72
 8198 0722 FE        		.byte	-2
 8199 0723 08        		.byte	8
 8200 0724 08        		.byte	8
 8201 0725 08        		.byte	8
 8202 0726 7E        		.byte	126
 8203 0727 42        		.byte	66
 8204 0728 42        		.byte	66
 8205 0729 7E        		.byte	126
 8206 072a 42        		.byte	66
 8207 072b 42        		.byte	66
 8208 072c 7E        		.byte	126
 8209 072d 42        		.byte	66
 8210 072e 46        		.byte	70
 8211 072f 82        		.byte	-126
 8212 0730 7E        		.byte	126
 8213 0731 92        		.byte	-110
 8214 0732 BA        		.byte	-70
 8215 0733 92        		.byte	-110
 8216 0734 BA        		.byte	-70
 8217 0735 82        		.byte	-126
 8218 0736 BA        		.byte	-70
 8219 0737 AA        		.byte	-86
 8220 0738 BA        		.byte	-70
 8221 0739 86        		.byte	-122
 8222 073a 08        		.byte	8
 8223 073b 7E        		.byte	126
 8224 073c 54        		.byte	84
 8225 073d 7E        		.byte	126
 8226 073e 5C        		.byte	92
 8227 073f 40        		.byte	64
 8228 0740 5C        		.byte	92
 8229 0741 54        		.byte	84
 8230 0742 48        		.byte	72
 8231 0743 96        		.byte	-106
 8232 0744 00        		.byte	0
 8233 0745 00        		.byte	0
 8234 0746 00        		.byte	0
 8235 0747 00        		.byte	0
 8236 0748 FE        		.byte	-2
 8237 0749 00        		.byte	0
 8238 074a 00        		.byte	0
 8239 074b 00        		.byte	0
 8240 074c 00        		.byte	0
 8241 074d 00        		.byte	0
 8242 074e 00        		.byte	0
 8243 074f 00        		.byte	0
 8244 0750 00        		.byte	0
 8245 0751 7E        		.byte	126
 8246 0752 00        		.byte	0
 8247 0753 00        		.byte	0
 8248 0754 00        		.byte	0
 8249 0755 FF        		.byte	-1
 8250 0756 00        		.byte	0
 8251 0757 00        		.byte	0
 8252 0758 00        		.byte	0
 8253 0759 7E        		.byte	126
 8254 075a 00        		.byte	0
 8255 075b 00        		.byte	0
 8256 075c 00        		.byte	0
 8257 075d 3C        		.byte	60
 8258 075e 00        		.byte	0
 8259 075f 00        		.byte	0
 8260 0760 00        		.byte	0
 8261 0761 FF        		.byte	-1
 8262 0762 FF        		.byte	-1
 8263 0763 A9        		.byte	-87
 8264 0764 A9        		.byte	-87
 8265 0765 A9        		.byte	-87
 8266 0766 A9        		.byte	-87
 8267 0767 A9        		.byte	-87
 8268 0768 C7        		.byte	-57
 8269 0769 81        		.byte	-127
 8270 076a FF        		.byte	-1
 8271 076b 81        		.byte	-127
 8272 076c 7E        		.byte	126
 8273 076d 10        		.byte	16
 8274 076e 10        		.byte	16
 8275 076f 10        		.byte	16
 8276 0770 7C        		.byte	124
 8277 0771 14        		.byte	20
 8278 0772 14        		.byte	20
 8279 0773 14        		.byte	20
 8280 0774 14        		.byte	20
 8281 0775 FF        		.byte	-1
 8282 0776 30        		.byte	48
 8283 0777 18        		.byte	24
 8284 0778 08        		.byte	8
 8285 0779 FF        		.byte	-1
 8286 077a 00        		.byte	0
 8287 077b 24        		.byte	36
 8288 077c 24        		.byte	36
 8289 077d 66        		.byte	102
 8290 077e 66        		.byte	102
 8291 077f C2        		.byte	-62
 8292 0780 7F        		.byte	127
 8293 0781 41        		.byte	65
 8294 0782 41        		.byte	65
 8295 0783 41        		.byte	65
 8296 0784 7F        		.byte	127
 8297 0785 41        		.byte	65
 8298 0786 41        		.byte	65
 8299 0787 41        		.byte	65
 8300 0788 41        		.byte	65
 8301 0789 7F        		.byte	127
 8302 078a 00        		.byte	0
 8303 078b 00        		.byte	0
 8304 078c 00        		.byte	0
 8305 078d 00        		.byte	0
 8306 078e 00        		.byte	0
 8307 078f 00        		.byte	0
 8308 0790 00        		.byte	0
 8309 0791 00        		.byte	0
 8310 0792 18        		.byte	24
 8311 0793 18        		.byte	24
 8312 0794 00        		.byte	0
 8313 0795 00        		.byte	0
 8314 0796 00        		.byte	0
 8315 0797 00        		.byte	0
 8316 0798 00        		.byte	0
 8317 0799 00        		.byte	0
 8318 079a 00        		.byte	0
 8319 079b 00        		.byte	0
 8320 079c 00        		.byte	0
 8321 079d 00        		.byte	0
 8322               	.global	SCROLL_STYLE2
 8325               	SCROLL_STYLE2:
 8326 079e FE        		.byte	-2
 8327 079f 82        		.byte	-126
 8328 07a0 82        		.byte	-126
 8329 07a1 82        		.byte	-126
 8330 07a2 82        		.byte	-126
 8331 07a3 82        		.byte	-126
 8332 07a4 82        		.byte	-126
 8333 07a5 82        		.byte	-126
 8334 07a6 82        		.byte	-126
 8335 07a7 FE        		.byte	-2
 8336 07a8 10        		.byte	16
 8337 07a9 10        		.byte	16
 8338 07aa 10        		.byte	16
 8339 07ab 10        		.byte	16
 8340 07ac 10        		.byte	16
 8341 07ad 10        		.byte	16
 8342 07ae 10        		.byte	16
 8343 07af 10        		.byte	16
 8344 07b0 10        		.byte	16
 8345 07b1 10        		.byte	16
 8346 07b2 FE        		.byte	-2
 8347 07b3 02        		.byte	2
 8348 07b4 02        		.byte	2
 8349 07b5 02        		.byte	2
 8350 07b6 02        		.byte	2
 8351 07b7 FE        		.byte	-2
 8352 07b8 80        		.byte	-128
 8353 07b9 80        		.byte	-128
 8354 07ba 80        		.byte	-128
 8355 07bb FE        		.byte	-2
 8356 07bc FE        		.byte	-2
 8357 07bd 02        		.byte	2
 8358 07be 02        		.byte	2
 8359 07bf 02        		.byte	2
 8360 07c0 02        		.byte	2
 8361 07c1 FE        		.byte	-2
 8362 07c2 02        		.byte	2
 8363 07c3 02        		.byte	2
 8364 07c4 02        		.byte	2
 8365 07c5 FE        		.byte	-2
 8366 07c6 82        		.byte	-126
 8367 07c7 82        		.byte	-126
 8368 07c8 82        		.byte	-126
 8369 07c9 82        		.byte	-126
 8370 07ca 82        		.byte	-126
 8371 07cb FE        		.byte	-2
 8372 07cc 02        		.byte	2
 8373 07cd 02        		.byte	2
 8374 07ce 02        		.byte	2
 8375 07cf 02        		.byte	2
 8376 07d0 FE        		.byte	-2
 8377 07d1 80        		.byte	-128
 8378 07d2 80        		.byte	-128
 8379 07d3 80        		.byte	-128
 8380 07d4 80        		.byte	-128
 8381 07d5 FE        		.byte	-2
 8382 07d6 02        		.byte	2
 8383 07d7 02        		.byte	2
 8384 07d8 02        		.byte	2
 8385 07d9 FE        		.byte	-2
 8386 07da FE        		.byte	-2
 8387 07db 80        		.byte	-128
 8388 07dc 80        		.byte	-128
 8389 07dd 80        		.byte	-128
 8390 07de 80        		.byte	-128
 8391 07df FE        		.byte	-2
 8392 07e0 82        		.byte	-126
 8393 07e1 82        		.byte	-126
 8394 07e2 82        		.byte	-126
 8395 07e3 FE        		.byte	-2
 8396 07e4 FE        		.byte	-2
 8397 07e5 02        		.byte	2
 8398 07e6 02        		.byte	2
 8399 07e7 02        		.byte	2
 8400 07e8 02        		.byte	2
 8401 07e9 02        		.byte	2
 8402 07ea 02        		.byte	2
 8403 07eb 02        		.byte	2
 8404 07ec 02        		.byte	2
 8405 07ed 02        		.byte	2
 8406 07ee FE        		.byte	-2
 8407 07ef 82        		.byte	-126
 8408 07f0 82        		.byte	-126
 8409 07f1 82        		.byte	-126
 8410 07f2 82        		.byte	-126
 8411 07f3 FE        		.byte	-2
 8412 07f4 82        		.byte	-126
 8413 07f5 82        		.byte	-126
 8414 07f6 82        		.byte	-126
 8415 07f7 FE        		.byte	-2
 8416 07f8 FE        		.byte	-2
 8417 07f9 82        		.byte	-126
 8418 07fa 82        		.byte	-126
 8419 07fb 82        		.byte	-126
 8420 07fc 82        		.byte	-126
 8421 07fd FE        		.byte	-2
 8422 07fe 02        		.byte	2
 8423 07ff 02        		.byte	2
 8424 0800 02        		.byte	2
 8425 0801 FE        		.byte	-2
 8426 0802 80        		.byte	-128
 8427 0803 FE        		.byte	-2
 8428 0804 88        		.byte	-120
 8429 0805 7E        		.byte	126
 8430 0806 48        		.byte	72
 8431 0807 48        		.byte	72
 8432 0808 FE        		.byte	-2
 8433 0809 08        		.byte	8
 8434 080a 08        		.byte	8
 8435 080b 08        		.byte	8
 8436 080c 7E        		.byte	126
 8437 080d 42        		.byte	66
 8438 080e 42        		.byte	66
 8439 080f 7E        		.byte	126
 8440 0810 42        		.byte	66
 8441 0811 42        		.byte	66
 8442 0812 7E        		.byte	126
 8443 0813 42        		.byte	66
 8444 0814 42        		.byte	66
 8445 0815 46        		.byte	70
 8446 0816 FE        		.byte	-2
 8447 0817 92        		.byte	-110
 8448 0818 BA        		.byte	-70
 8449 0819 92        		.byte	-110
 8450 081a BA        		.byte	-70
 8451 081b 82        		.byte	-126
 8452 081c BA        		.byte	-70
 8453 081d AA        		.byte	-86
 8454 081e BA        		.byte	-70
 8455 081f 86        		.byte	-122
 8456 0820 DF        		.byte	-33
 8457 0821 D0        		.byte	-48
 8458 0822 10        		.byte	16
 8459 0823 10        		.byte	16
 8460 0824 10        		.byte	16
 8461 0825 10        		.byte	16
 8462 0826 10        		.byte	16
 8463 0827 10        		.byte	16
 8464 0828 10        		.byte	16
 8465 0829 1F        		.byte	31
 8466 082a 00        		.byte	0
 8467 082b 00        		.byte	0
 8468 082c 00        		.byte	0
 8469 082d 00        		.byte	0
 8470 082e FE        		.byte	-2
 8471 082f 00        		.byte	0
 8472 0830 00        		.byte	0
 8473 0831 00        		.byte	0
 8474 0832 00        		.byte	0
 8475 0833 00        		.byte	0
 8476 0834 00        		.byte	0
 8477 0835 7C        		.byte	124
 8478 0836 00        		.byte	0
 8479 0837 00        		.byte	0
 8480 0838 00        		.byte	0
 8481 0839 00        		.byte	0
 8482 083a 00        		.byte	0
 8483 083b 00        		.byte	0
 8484 083c 00        		.byte	0
 8485 083d FE        		.byte	-2
 8486 083e FE        		.byte	-2
 8487 083f 00        		.byte	0
 8488 0840 00        		.byte	0
 8489 0841 00        		.byte	0
 8490 0842 7C        		.byte	124
 8491 0843 00        		.byte	0
 8492 0844 00        		.byte	0
 8493 0845 00        		.byte	0
 8494 0846 00        		.byte	0
 8495 0847 FE        		.byte	-2
 8496 0848 FE        		.byte	-2
 8497 0849 AA        		.byte	-86
 8498 084a AA        		.byte	-86
 8499 084b AA        		.byte	-86
 8500 084c AA        		.byte	-86
 8501 084d EE        		.byte	-18
 8502 084e 82        		.byte	-126
 8503 084f 82        		.byte	-126
 8504 0850 82        		.byte	-126
 8505 0851 FE        		.byte	-2
 8506 0852 FE        		.byte	-2
 8507 0853 20        		.byte	32
 8508 0854 20        		.byte	32
 8509 0855 20        		.byte	32
 8510 0856 FC        		.byte	-4
 8511 0857 24        		.byte	36
 8512 0858 24        		.byte	36
 8513 0859 24        		.byte	36
 8514 085a 24        		.byte	36
 8515 085b FE        		.byte	-2
 8516 085c 20        		.byte	32
 8517 085d 10        		.byte	16
 8518 085e 10        		.byte	16
 8519 085f FE        		.byte	-2
 8520 0860 44        		.byte	68
 8521 0861 44        		.byte	68
 8522 0862 44        		.byte	68
 8523 0863 44        		.byte	68
 8524 0864 44        		.byte	68
 8525 0865 44        		.byte	68
 8526 0866 7E        		.byte	126
 8527 0867 42        		.byte	66
 8528 0868 42        		.byte	66
 8529 0869 42        		.byte	66
 8530 086a 7E        		.byte	126
 8531 086b 42        		.byte	66
 8532 086c 42        		.byte	66
 8533 086d 42        		.byte	66
 8534 086e 42        		.byte	66
 8535 086f 7E        		.byte	126
 8536 0870 00        		.byte	0
 8537 0871 00        		.byte	0
 8538 0872 00        		.byte	0
 8539 0873 00        		.byte	0
 8540 0874 00        		.byte	0
 8541 0875 00        		.byte	0
 8542 0876 00        		.byte	0
 8543 0877 00        		.byte	0
 8544 0878 18        		.byte	24
 8545 0879 18        		.byte	24
 8546 087a 00        		.byte	0
 8547 087b 00        		.byte	0
 8548 087c 00        		.byte	0
 8549 087d 00        		.byte	0
 8550 087e 00        		.byte	0
 8551 087f 00        		.byte	0
 8552 0880 00        		.byte	0
 8553 0881 00        		.byte	0
 8554 0882 00        		.byte	0
 8555 0883 00        		.byte	0
 8556               	.global	SCROLL_STYLE3
 8559               	SCROLL_STYLE3:
 8560 0884 7C        		.byte	124
 8561 0885 82        		.byte	-126
 8562 0886 82        		.byte	-126
 8563 0887 82        		.byte	-126
 8564 0888 82        		.byte	-126
 8565 0889 82        		.byte	-126
 8566 088a 82        		.byte	-126
 8567 088b 82        		.byte	-126
 8568 088c 82        		.byte	-126
 8569 088d 7C        		.byte	124
 8570 088e 10        		.byte	16
 8571 088f 30        		.byte	48
 8572 0890 50        		.byte	80
 8573 0891 10        		.byte	16
 8574 0892 10        		.byte	16
 8575 0893 10        		.byte	16
 8576 0894 10        		.byte	16
 8577 0895 10        		.byte	16
 8578 0896 10        		.byte	16
 8579 0897 FE        		.byte	-2
 8580 0898 7C        		.byte	124
 8581 0899 82        		.byte	-126
 8582 089a 02        		.byte	2
 8583 089b 02        		.byte	2
 8584 089c 02        		.byte	2
 8585 089d 7C        		.byte	124
 8586 089e 80        		.byte	-128
 8587 089f 80        		.byte	-128
 8588 08a0 80        		.byte	-128
 8589 08a1 FE        		.byte	-2
 8590 08a2 7C        		.byte	124
 8591 08a3 82        		.byte	-126
 8592 08a4 02        		.byte	2
 8593 08a5 02        		.byte	2
 8594 08a6 02        		.byte	2
 8595 08a7 7C        		.byte	124
 8596 08a8 02        		.byte	2
 8597 08a9 02        		.byte	2
 8598 08aa 82        		.byte	-126
 8599 08ab 7C        		.byte	124
 8600 08ac 88        		.byte	-120
 8601 08ad 88        		.byte	-120
 8602 08ae 88        		.byte	-120
 8603 08af 88        		.byte	-120
 8604 08b0 88        		.byte	-120
 8605 08b1 FE        		.byte	-2
 8606 08b2 08        		.byte	8
 8607 08b3 08        		.byte	8
 8608 08b4 08        		.byte	8
 8609 08b5 08        		.byte	8
 8610 08b6 FE        		.byte	-2
 8611 08b7 80        		.byte	-128
 8612 08b8 80        		.byte	-128
 8613 08b9 80        		.byte	-128
 8614 08ba 80        		.byte	-128
 8615 08bb FC        		.byte	-4
 8616 08bc 02        		.byte	2
 8617 08bd 02        		.byte	2
 8618 08be 82        		.byte	-126
 8619 08bf 7C        		.byte	124
 8620 08c0 80        		.byte	-128
 8621 08c1 80        		.byte	-128
 8622 08c2 80        		.byte	-128
 8623 08c3 80        		.byte	-128
 8624 08c4 80        		.byte	-128
 8625 08c5 FC        		.byte	-4
 8626 08c6 82        		.byte	-126
 8627 08c7 82        		.byte	-126
 8628 08c8 82        		.byte	-126
 8629 08c9 7C        		.byte	124
 8630 08ca FE        		.byte	-2
 8631 08cb 02        		.byte	2
 8632 08cc 02        		.byte	2
 8633 08cd 02        		.byte	2
 8634 08ce 02        		.byte	2
 8635 08cf 02        		.byte	2
 8636 08d0 02        		.byte	2
 8637 08d1 02        		.byte	2
 8638 08d2 02        		.byte	2
 8639 08d3 02        		.byte	2
 8640 08d4 7C        		.byte	124
 8641 08d5 82        		.byte	-126
 8642 08d6 82        		.byte	-126
 8643 08d7 82        		.byte	-126
 8644 08d8 82        		.byte	-126
 8645 08d9 7C        		.byte	124
 8646 08da 82        		.byte	-126
 8647 08db 82        		.byte	-126
 8648 08dc 82        		.byte	-126
 8649 08dd 7C        		.byte	124
 8650 08de 7C        		.byte	124
 8651 08df 82        		.byte	-126
 8652 08e0 82        		.byte	-126
 8653 08e1 82        		.byte	-126
 8654 08e2 82        		.byte	-126
 8655 08e3 7E        		.byte	126
 8656 08e4 02        		.byte	2
 8657 08e5 02        		.byte	2
 8658 08e6 02        		.byte	2
 8659 08e7 02        		.byte	2
 8660 08e8 40        		.byte	64
 8661 08e9 7E        		.byte	126
 8662 08ea 88        		.byte	-120
 8663 08eb 7E        		.byte	126
 8664 08ec 48        		.byte	72
 8665 08ed 48        		.byte	72
 8666 08ee FE        		.byte	-2
 8667 08ef 08        		.byte	8
 8668 08f0 08        		.byte	8
 8669 08f1 08        		.byte	8
 8670 08f2 7E        		.byte	126
 8671 08f3 42        		.byte	66
 8672 08f4 42        		.byte	66
 8673 08f5 7E        		.byte	126
 8674 08f6 42        		.byte	66
 8675 08f7 42        		.byte	66
 8676 08f8 7E        		.byte	126
 8677 08f9 42        		.byte	66
 8678 08fa 46        		.byte	70
 8679 08fb 82        		.byte	-126
 8680 08fc 7E        		.byte	126
 8681 08fd 92        		.byte	-110
 8682 08fe BA        		.byte	-70
 8683 08ff 92        		.byte	-110
 8684 0900 BA        		.byte	-70
 8685 0901 82        		.byte	-126
 8686 0902 BA        		.byte	-70
 8687 0903 AA        		.byte	-86
 8688 0904 BA        		.byte	-70
 8689 0905 86        		.byte	-122
 8690 0906 BC        		.byte	-68
 8691 0907 42        		.byte	66
 8692 0908 40        		.byte	64
 8693 0909 40        		.byte	64
 8694 090a 40        		.byte	64
 8695 090b 40        		.byte	64
 8696 090c 40        		.byte	64
 8697 090d 40        		.byte	64
 8698 090e 42        		.byte	66
 8699 090f 3C        		.byte	60
 8700 0910 00        		.byte	0
 8701 0911 00        		.byte	0
 8702 0912 00        		.byte	0
 8703 0913 00        		.byte	0
 8704 0914 FE        		.byte	-2
 8705 0915 00        		.byte	0
 8706 0916 00        		.byte	0
 8707 0917 00        		.byte	0
 8708 0918 00        		.byte	0
 8709 0919 00        		.byte	0
 8710 091a 00        		.byte	0
 8711 091b 00        		.byte	0
 8712 091c 00        		.byte	0
 8713 091d 7E        		.byte	126
 8714 091e 00        		.byte	0
 8715 091f 00        		.byte	0
 8716 0920 00        		.byte	0
 8717 0921 FF        		.byte	-1
 8718 0922 00        		.byte	0
 8719 0923 00        		.byte	0
 8720 0924 00        		.byte	0
 8721 0925 7E        		.byte	126
 8722 0926 00        		.byte	0
 8723 0927 00        		.byte	0
 8724 0928 00        		.byte	0
 8725 0929 3C        		.byte	60
 8726 092a 00        		.byte	0
 8727 092b 00        		.byte	0
 8728 092c 00        		.byte	0
 8729 092d FF        		.byte	-1
 8730 092e FF        		.byte	-1
 8731 092f A9        		.byte	-87
 8732 0930 A9        		.byte	-87
 8733 0931 A9        		.byte	-87
 8734 0932 A9        		.byte	-87
 8735 0933 A9        		.byte	-87
 8736 0934 C7        		.byte	-57
 8737 0935 81        		.byte	-127
 8738 0936 FF        		.byte	-1
 8739 0937 81        		.byte	-127
 8740 0938 7E        		.byte	126
 8741 0939 10        		.byte	16
 8742 093a 10        		.byte	16
 8743 093b 10        		.byte	16
 8744 093c 7C        		.byte	124
 8745 093d 14        		.byte	20
 8746 093e 14        		.byte	20
 8747 093f 14        		.byte	20
 8748 0940 14        		.byte	20
 8749 0941 FF        		.byte	-1
 8750 0942 20        		.byte	32
 8751 0943 10        		.byte	16
 8752 0944 FE        		.byte	-2
 8753 0945 00        		.byte	0
 8754 0946 44        		.byte	68
 8755 0947 44        		.byte	68
 8756 0948 44        		.byte	68
 8757 0949 44        		.byte	68
 8758 094a 44        		.byte	68
 8759 094b 82        		.byte	-126
 8760 094c 7E        		.byte	126
 8761 094d 42        		.byte	66
 8762 094e 42        		.byte	66
 8763 094f 42        		.byte	66
 8764 0950 7E        		.byte	126
 8765 0951 42        		.byte	66
 8766 0952 42        		.byte	66
 8767 0953 42        		.byte	66
 8768 0954 42        		.byte	66
 8769 0955 7E        		.byte	126
 8770 0956 00        		.byte	0
 8771 0957 00        		.byte	0
 8772 0958 00        		.byte	0
 8773 0959 00        		.byte	0
 8774 095a 00        		.byte	0
 8775 095b 00        		.byte	0
 8776 095c 00        		.byte	0
 8777 095d 00        		.byte	0
 8778 095e 18        		.byte	24
 8779 095f 18        		.byte	24
 8780 0960 00        		.byte	0
 8781 0961 00        		.byte	0
 8782 0962 00        		.byte	0
 8783 0963 00        		.byte	0
 8784 0964 00        		.byte	0
 8785 0965 00        		.byte	0
 8786 0966 00        		.byte	0
 8787 0967 00        		.byte	0
 8788 0968 00        		.byte	0
 8789 0969 00        		.byte	0
 8790               	.global	CHINESE
 8793               	CHINESE:
 8794 096a 08        		.byte	8
 8795 096b 40        		.byte	64
 8796 096c 49        		.byte	73
 8797 096d 40        		.byte	64
 8798 096e 2A        		.byte	42
 8799 096f 40        		.byte	64
 8800 0970 08        		.byte	8
 8801 0971 84        		.byte	-124
 8802 0972 FF        		.byte	-1
 8803 0973 FE        		.byte	-2
 8804 0974 19        		.byte	25
 8805 0975 08        		.byte	8
 8806 0976 2C        		.byte	44
 8807 0977 88        		.byte	-120
 8808 0978 4A        		.byte	74
 8809 0979 88        		.byte	-120
 8810 097a 10        		.byte	16
 8811 097b 88        		.byte	-120
 8812 097c FE        		.byte	-2
 8813 097d 90        		.byte	-112
 8814 097e 22        		.byte	34
 8815 097f 50        		.byte	80
 8816 0980 22        		.byte	34
 8817 0981 20        		.byte	32
 8818 0982 14        		.byte	20
 8819 0983 50        		.byte	80
 8820 0984 18        		.byte	24
 8821 0985 88        		.byte	-120
 8822 0986 25        		.byte	37
 8823 0987 0E        		.byte	14
 8824 0988 42        		.byte	66
 8825 0989 04        		.byte	4
 8826 098a 02        		.byte	2
 8827 098b 00        		.byte	0
 8828 098c 01        		.byte	1
 8829 098d 00        		.byte	0
 8830 098e 3F        		.byte	63
 8831 098f FC        		.byte	-4
 8832 0990 20        		.byte	32
 8833 0991 04        		.byte	4
 8834 0992 40        		.byte	64
 8835 0993 08        		.byte	8
 8836 0994 1F        		.byte	31
 8837 0995 E0        		.byte	-32
 8838 0996 00        		.byte	0
 8839 0997 40        		.byte	64
 8840 0998 00        		.byte	0
 8841 0999 80        		.byte	-128
 8842 099a 01        		.byte	1
 8843 099b 04        		.byte	4
 8844 099c FF        		.byte	-1
 8845 099d FE        		.byte	-2
 8846 099e 01        		.byte	1
 8847 099f 00        		.byte	0
 8848 09a0 01        		.byte	1
 8849 09a1 00        		.byte	0
 8850 09a2 01        		.byte	1
 8851 09a3 00        		.byte	0
 8852 09a4 01        		.byte	1
 8853 09a5 00        		.byte	0
 8854 09a6 05        		.byte	5
 8855 09a7 00        		.byte	0
 8856 09a8 02        		.byte	2
 8857 09a9 00        		.byte	0
 8858 09aa 00        		.byte	0
 8859 09ab 08        		.byte	8
 8860 09ac 04        		.byte	4
 8861 09ad 08        		.byte	8
 8862 09ae 7E        		.byte	126
 8863 09af 08        		.byte	8
 8864 09b0 44        		.byte	68
 8865 09b1 08        		.byte	8
 8866 09b2 47        		.byte	71
 8867 09b3 FE        		.byte	-2
 8868 09b4 44        		.byte	68
 8869 09b5 08        		.byte	8
 8870 09b6 44        		.byte	68
 8871 09b7 08        		.byte	8
 8872 09b8 7C        		.byte	124
 8873 09b9 88        		.byte	-120
 8874 09ba 44        		.byte	68
 8875 09bb 48        		.byte	72
 8876 09bc 44        		.byte	68
 8877 09bd 48        		.byte	72
 8878 09be 44        		.byte	68
 8879 09bf 08        		.byte	8
 8880 09c0 44        		.byte	68
 8881 09c1 08        		.byte	8
 8882 09c2 7C        		.byte	124
 8883 09c3 08        		.byte	8
 8884 09c4 44        		.byte	68
 8885 09c5 48        		.byte	72
 8886 09c6 00        		.byte	0
 8887 09c7 28        		.byte	40
 8888 09c8 00        		.byte	0
 8889 09c9 10        		.byte	16
 8890 09ca 10        		.byte	16
 8891 09cb 20        		.byte	32
 8892 09cc 10        		.byte	16
 8893 09cd 20        		.byte	32
 8894 09ce 10        		.byte	16
 8895 09cf 20        		.byte	32
 8896 09d0 1C        		.byte	28
 8897 09d1 24        		.byte	36
 8898 09d2 21        		.byte	33
 8899 09d3 FE        		.byte	-2
 8900 09d4 21        		.byte	33
 8901 09d5 24        		.byte	36
 8902 09d6 7D        		.byte	125
 8903 09d7 24        		.byte	36
 8904 09d8 91        		.byte	-111
 8905 09d9 24        		.byte	36
 8906 09da 11        		.byte	17
 8907 09db 24        		.byte	36
 8908 09dc FD        		.byte	-3
 8909 09dd FC        		.byte	-4
 8910 09de 11        		.byte	17
 8911 09df 24        		.byte	36
 8912 09e0 10        		.byte	16
 8913 09e1 20        		.byte	32
 8914 09e2 14        		.byte	20
 8915 09e3 20        		.byte	32
 8916 09e4 18        		.byte	24
 8917 09e5 20        		.byte	32
 8918 09e6 10        		.byte	16
 8919 09e7 20        		.byte	32
 8920 09e8 00        		.byte	0
 8921 09e9 20        		.byte	32
 8922 09ea 00        		.byte	0
 8923 09eb 04        		.byte	4
 8924 09ec 7F        		.byte	127
 8925 09ed FE        		.byte	-2
 8926 09ee 44        		.byte	68
 8927 09ef 08        		.byte	8
 8928 09f0 48        		.byte	72
 8929 09f1 08        		.byte	8
 8930 09f2 48        		.byte	72
 8931 09f3 28        		.byte	40
 8932 09f4 51        		.byte	81
 8933 09f5 F8        		.byte	-8
 8934 09f6 49        		.byte	73
 8935 09f7 28        		.byte	40
 8936 09f8 49        		.byte	73
 8937 09f9 28        		.byte	40
 8938 09fa 45        		.byte	69
 8939 09fb 28        		.byte	40
 8940 09fc 45        		.byte	69
 8941 09fd 28        		.byte	40
 8942 09fe 45        		.byte	69
 8943 09ff 28        		.byte	40
 8944 0a00 69        		.byte	105
 8945 0a01 E8        		.byte	-24
 8946 0a02 51        		.byte	81
 8947 0a03 28        		.byte	40
 8948 0a04 40        		.byte	64
 8949 0a05 08        		.byte	8
 8950 0a06 40        		.byte	64
 8951 0a07 28        		.byte	40
 8952 0a08 40        		.byte	64
 8953 0a09 10        		.byte	16
 8954 0a0a 02        		.byte	2
 8955 0a0b 00        		.byte	0
 8956 0a0c 02        		.byte	2
 8957 0a0d 00        		.byte	0
 8958 0a0e 02        		.byte	2
 8959 0a0f 08        		.byte	8
 8960 0a10 FF        		.byte	-1
 8961 0a11 FC        		.byte	-4
 8962 0a12 04        		.byte	4
 8963 0a13 00        		.byte	0
 8964 0a14 09        		.byte	9
 8965 0a15 00        		.byte	0
 8966 0a16 11        		.byte	17
 8967 0a17 08        		.byte	8
 8968 0a18 3F        		.byte	63
 8969 0a19 FC        		.byte	-4
 8970 0a1a 51        		.byte	81
 8971 0a1b 08        		.byte	8
 8972 0a1c 91        		.byte	-111
 8973 0a1d 08        		.byte	8
 8974 0a1e 11        		.byte	17
 8975 0a1f 08        		.byte	8
 8976 0a20 11        		.byte	17
 8977 0a21 08        		.byte	8
 8978 0a22 11        		.byte	17
 8979 0a23 28        		.byte	40
 8980 0a24 11        		.byte	17
 8981 0a25 10        		.byte	16
 8982 0a26 01        		.byte	1
 8983 0a27 00        		.byte	0
 8984 0a28 01        		.byte	1
 8985 0a29 00        		.byte	0
 8986 0a2a 02        		.byte	2
 8987 0a2b 00        		.byte	0
 8988 0a2c 02        		.byte	2
 8989 0a2d 00        		.byte	0
 8990 0a2e 02        		.byte	2
 8991 0a2f 10        		.byte	16
 8992 0a30 7F        		.byte	127
 8993 0a31 F8        		.byte	-8
 8994 0a32 42        		.byte	66
 8995 0a33 10        		.byte	16
 8996 0a34 42        		.byte	66
 8997 0a35 10        		.byte	16
 8998 0a36 7F        		.byte	127
 8999 0a37 F0        		.byte	-16
 9000 0a38 42        		.byte	66
 9001 0a39 10        		.byte	16
 9002 0a3a 42        		.byte	66
 9003 0a3b 10        		.byte	16
 9004 0a3c 7F        		.byte	127
 9005 0a3d F0        		.byte	-16
 9006 0a3e 42        		.byte	66
 9007 0a3f 10        		.byte	16
 9008 0a40 02        		.byte	2
 9009 0a41 00        		.byte	0
 9010 0a42 02        		.byte	2
 9011 0a43 04        		.byte	4
 9012 0a44 02        		.byte	2
 9013 0a45 04        		.byte	4
 9014 0a46 01        		.byte	1
 9015 0a47 FC        		.byte	-4
 9016 0a48 00        		.byte	0
 9017 0a49 00        		.byte	0
 9018 0a4a 00        		.byte	0
 9019 0a4b 00        		.byte	0
 9020 0a4c 3F        		.byte	63
 9021 0a4d F0        		.byte	-16
 9022 0a4e 00        		.byte	0
 9023 0a4f 10        		.byte	16
 9024 0a50 00        		.byte	0
 9025 0a51 20        		.byte	32
 9026 0a52 00        		.byte	0
 9027 0a53 40        		.byte	64
 9028 0a54 01        		.byte	1
 9029 0a55 80        		.byte	-128
 9030 0a56 01        		.byte	1
 9031 0a57 04        		.byte	4
 9032 0a58 FF        		.byte	-1
 9033 0a59 FE        		.byte	-2
 9034 0a5a 01        		.byte	1
 9035 0a5b 00        		.byte	0
 9036 0a5c 01        		.byte	1
 9037 0a5d 00        		.byte	0
 9038 0a5e 01        		.byte	1
 9039 0a5f 00        		.byte	0
 9040 0a60 01        		.byte	1
 9041 0a61 00        		.byte	0
 9042 0a62 01        		.byte	1
 9043 0a63 00        		.byte	0
 9044 0a64 01        		.byte	1
 9045 0a65 00        		.byte	0
 9046 0a66 05        		.byte	5
 9047 0a67 00        		.byte	0
 9048 0a68 02        		.byte	2
 9049 0a69 00        		.byte	0
 9050 0a6a 01        		.byte	1
 9051 0a6b F0        		.byte	-16
 9052 0a6c 21        		.byte	33
 9053 0a6d 10        		.byte	16
 9054 0a6e 11        		.byte	17
 9055 0a6f 10        		.byte	16
 9056 0a70 11        		.byte	17
 9057 0a71 10        		.byte	16
 9058 0a72 01        		.byte	1
 9059 0a73 10        		.byte	16
 9060 0a74 02        		.byte	2
 9061 0a75 0E        		.byte	14
 9062 0a76 F4        		.byte	-12
 9063 0a77 00        		.byte	0
 9064 0a78 13        		.byte	19
 9065 0a79 F8        		.byte	-8
 9066 0a7a 11        		.byte	17
 9067 0a7b 08        		.byte	8
 9068 0a7c 11        		.byte	17
 9069 0a7d 10        		.byte	16
 9070 0a7e 10        		.byte	16
 9071 0a7f 90        		.byte	-112
 9072 0a80 10        		.byte	16
 9073 0a81 A0        		.byte	-96
 9074 0a82 14        		.byte	20
 9075 0a83 40        		.byte	64
 9076 0a84 18        		.byte	24
 9077 0a85 B0        		.byte	-80
 9078 0a86 13        		.byte	19
 9079 0a87 0E        		.byte	14
 9080 0a88 0C        		.byte	12
 9081 0a89 04        		.byte	4
 9082 0a8a 3F        		.byte	63
 9083 0a8b F8        		.byte	-8
 9084 0a8c 24        		.byte	36
 9085 0a8d 48        		.byte	72
 9086 0a8e 3F        		.byte	63
 9087 0a8f F8        		.byte	-8
 9088 0a90 01        		.byte	1
 9089 0a91 00        		.byte	0
 9090 0a92 7F        		.byte	127
 9091 0a93 FC        		.byte	-4
 9092 0a94 01        		.byte	1
 9093 0a95 00        		.byte	0
 9094 0a96 1F        		.byte	31
 9095 0a97 F0        		.byte	-16
 9096 0a98 10        		.byte	16
 9097 0a99 10        		.byte	16
 9098 0a9a 1F        		.byte	31
 9099 0a9b F0        		.byte	-16
 9100 0a9c 10        		.byte	16
 9101 0a9d 10        		.byte	16
 9102 0a9e 1F        		.byte	31
 9103 0a9f F0        		.byte	-16
 9104 0aa0 10        		.byte	16
 9105 0aa1 10        		.byte	16
 9106 0aa2 1F        		.byte	31
 9107 0aa3 F0        		.byte	-16
 9108 0aa4 10        		.byte	16
 9109 0aa5 14        		.byte	20
 9110 0aa6 FF        		.byte	-1
 9111 0aa7 FE        		.byte	-2
 9112 0aa8 00        		.byte	0
 9113 0aa9 00        		.byte	0
 9114 0aaa 00        		.byte	0
 9115 0aab 40        		.byte	64
 9116 0aac 40        		.byte	64
 9117 0aad 44        		.byte	68
 9118 0aae 37        		.byte	55
 9119 0aaf FE        		.byte	-2
 9120 0ab0 10        		.byte	16
 9121 0ab1 40        		.byte	64
 9122 0ab2 07        		.byte	7
 9123 0ab3 FC        		.byte	-4
 9124 0ab4 04        		.byte	4
 9125 0ab5 44        		.byte	68
 9126 0ab6 F4        		.byte	-12
 9127 0ab7 44        		.byte	68
 9128 0ab8 17        		.byte	23
 9129 0ab9 FC        		.byte	-4
 9130 0aba 14        		.byte	20
 9131 0abb 44        		.byte	68
 9132 0abc 10        		.byte	16
 9133 0abd E0        		.byte	-32
 9134 0abe 11        		.byte	17
 9135 0abf 58        		.byte	88
 9136 0ac0 12        		.byte	18
 9137 0ac1 48        		.byte	72
 9138 0ac2 14        		.byte	20
 9139 0ac3 40        		.byte	64
 9140 0ac4 28        		.byte	40
 9141 0ac5 46        		.byte	70
 9142 0ac6 47        		.byte	71
 9143 0ac7 FC        		.byte	-4
 9144 0ac8 00        		.byte	0
 9145 0ac9 00        		.byte	0
 9146 0aca 01        		.byte	1
 9147 0acb 00        		.byte	0
 9148 0acc 00        		.byte	0
 9149 0acd 84        		.byte	-124
 9150 0ace 3F        		.byte	63
 9151 0acf FE        		.byte	-2
 9152 0ad0 22        		.byte	34
 9153 0ad1 20        		.byte	32
 9154 0ad2 22        		.byte	34
 9155 0ad3 28        		.byte	40
 9156 0ad4 3F        		.byte	63
 9157 0ad5 FC        		.byte	-4
 9158 0ad6 22        		.byte	34
 9159 0ad7 20        		.byte	32
 9160 0ad8 23        		.byte	35
 9161 0ad9 E0        		.byte	-32
 9162 0ada 20        		.byte	32
 9163 0adb 00        		.byte	0
 9164 0adc 2F        		.byte	47
 9165 0add F0        		.byte	-16
 9166 0ade 22        		.byte	34
 9167 0adf 20        		.byte	32
 9168 0ae0 21        		.byte	33
 9169 0ae1 40        		.byte	64
 9170 0ae2 20        		.byte	32
 9171 0ae3 80        		.byte	-128
 9172 0ae4 43        		.byte	67
 9173 0ae5 60        		.byte	96
 9174 0ae6 8C        		.byte	-116
 9175 0ae7 1E        		.byte	30
 9176 0ae8 30        		.byte	48
 9177 0ae9 04        		.byte	4
 9178 0aea 01        		.byte	1
 9179 0aeb 08        		.byte	8
 9180 0aec 7F        		.byte	127
 9181 0aed FC        		.byte	-4
 9182 0aee 00        		.byte	0
 9183 0aef 10        		.byte	16
 9184 0af0 1F        		.byte	31
 9185 0af1 F8        		.byte	-8
 9186 0af2 10        		.byte	16
 9187 0af3 10        		.byte	16
 9188 0af4 10        		.byte	16
 9189 0af5 10        		.byte	16
 9190 0af6 1F        		.byte	31
 9191 0af7 F0        		.byte	-16
 9192 0af8 00        		.byte	0
 9193 0af9 00        		.byte	0
 9194 0afa 7F        		.byte	127
 9195 0afb FE        		.byte	-2
 9196 0afc 40        		.byte	64
 9197 0afd 22        		.byte	34
 9198 0afe 8F        		.byte	-113
 9199 0aff F4        		.byte	-12
 9200 0b00 08        		.byte	8
 9201 0b01 20        		.byte	32
 9202 0b02 08        		.byte	8
 9203 0b03 20        		.byte	32
 9204 0b04 08        		.byte	8
 9205 0b05 22        		.byte	34
 9206 0b06 10        		.byte	16
 9207 0b07 22        		.byte	34
 9208 0b08 60        		.byte	96
 9209 0b09 1E        		.byte	30
 9210 0b0a 00        		.byte	0
 9211 0b0b 08        		.byte	8
 9212 0b0c 04        		.byte	4
 9213 0b0d 08        		.byte	8
 9214 0b0e 7E        		.byte	126
 9215 0b0f 08        		.byte	8
 9216 0b10 44        		.byte	68
 9217 0b11 08        		.byte	8
 9218 0b12 47        		.byte	71
 9219 0b13 FE        		.byte	-2
 9220 0b14 44        		.byte	68
 9221 0b15 08        		.byte	8
 9222 0b16 44        		.byte	68
 9223 0b17 08        		.byte	8
 9224 0b18 7C        		.byte	124
 9225 0b19 88        		.byte	-120
 9226 0b1a 44        		.byte	68
 9227 0b1b 48        		.byte	72
 9228 0b1c 44        		.byte	68
 9229 0b1d 48        		.byte	72
 9230 0b1e 44        		.byte	68
 9231 0b1f 08        		.byte	8
 9232 0b20 44        		.byte	68
 9233 0b21 08        		.byte	8
 9234 0b22 7C        		.byte	124
 9235 0b23 08        		.byte	8
 9236 0b24 44        		.byte	68
 9237 0b25 48        		.byte	72
 9238 0b26 00        		.byte	0
 9239 0b27 28        		.byte	40
 9240 0b28 00        		.byte	0
 9241 0b29 10        		.byte	16
 9242 0b2a 20        		.byte	32
 9243 0b2b 04        		.byte	4
 9244 0b2c 1B        		.byte	27
 9245 0b2d FE        		.byte	-2
 9246 0b2e 08        		.byte	8
 9247 0b2f 04        		.byte	4
 9248 0b30 40        		.byte	64
 9249 0b31 24        		.byte	36
 9250 0b32 4F        		.byte	79
 9251 0b33 F4        		.byte	-12
 9252 0b34 48        		.byte	72
 9253 0b35 24        		.byte	36
 9254 0b36 48        		.byte	72
 9255 0b37 24        		.byte	36
 9256 0b38 48        		.byte	72
 9257 0b39 24        		.byte	36
 9258 0b3a 4F        		.byte	79
 9259 0b3b E4        		.byte	-28
 9260 0b3c 48        		.byte	72
 9261 0b3d 24        		.byte	36
 9262 0b3e 48        		.byte	72
 9263 0b3f 24        		.byte	36
 9264 0b40 48        		.byte	72
 9265 0b41 24        		.byte	36
 9266 0b42 4F        		.byte	79
 9267 0b43 E4        		.byte	-28
 9268 0b44 48        		.byte	72
 9269 0b45 24        		.byte	36
 9270 0b46 40        		.byte	64
 9271 0b47 14        		.byte	20
 9272 0b48 40        		.byte	64
 9273 0b49 08        		.byte	8
 9274 0b4a 08        		.byte	8
 9275 0b4b 00        		.byte	0
 9276 0b4c 08        		.byte	8
 9277 0b4d 08        		.byte	8
 9278 0b4e 1F        		.byte	31
 9279 0b4f FC        		.byte	-4
 9280 0b50 11        		.byte	17
 9281 0b51 00        		.byte	0
 9282 0b52 21        		.byte	33
 9283 0b53 00        		.byte	0
 9284 0b54 41        		.byte	65
 9285 0b55 10        		.byte	16
 9286 0b56 1F        		.byte	31
 9287 0b57 F8        		.byte	-8
 9288 0b58 11        		.byte	17
 9289 0b59 00        		.byte	0
 9290 0b5a 11        		.byte	17
 9291 0b5b 00        		.byte	0
 9292 0b5c 11        		.byte	17
 9293 0b5d 04        		.byte	4
 9294 0b5e FF        		.byte	-1
 9295 0b5f FE        		.byte	-2
 9296 0b60 01        		.byte	1
 9297 0b61 00        		.byte	0
 9298 0b62 01        		.byte	1
 9299 0b63 00        		.byte	0
 9300 0b64 01        		.byte	1
 9301 0b65 00        		.byte	0
 9302 0b66 01        		.byte	1
 9303 0b67 00        		.byte	0
 9304 0b68 01        		.byte	1
 9305 0b69 00        		.byte	0
 9306 0b6a 00        		.byte	0
 9307 0b6b 10        		.byte	16
 9308 0b6c 0F        		.byte	15
 9309 0b6d F8        		.byte	-8
 9310 0b6e 08        		.byte	8
 9311 0b6f 10        		.byte	16
 9312 0b70 08        		.byte	8
 9313 0b71 10        		.byte	16
 9314 0b72 08        		.byte	8
 9315 0b73 10        		.byte	16
 9316 0b74 0F        		.byte	15
 9317 0b75 F0        		.byte	-16
 9318 0b76 08        		.byte	8
 9319 0b77 10        		.byte	16
 9320 0b78 08        		.byte	8
 9321 0b79 10        		.byte	16
 9322 0b7a 08        		.byte	8
 9323 0b7b 10        		.byte	16
 9324 0b7c 0F        		.byte	15
 9325 0b7d F0        		.byte	-16
 9326 0b7e 08        		.byte	8
 9327 0b7f 10        		.byte	16
 9328 0b80 08        		.byte	8
 9329 0b81 10        		.byte	16
 9330 0b82 10        		.byte	16
 9331 0b83 10        		.byte	16
 9332 0b84 10        		.byte	16
 9333 0b85 10        		.byte	16
 9334 0b86 20        		.byte	32
 9335 0b87 50        		.byte	80
 9336 0b88 40        		.byte	64
 9337 0b89 20        		.byte	32
 9338 0b8a 00        		.byte	0
 9339 0b8b 10        		.byte	16
 9340 0b8c 1F        		.byte	31
 9341 0b8d F8        		.byte	-8
 9342 0b8e 10        		.byte	16
 9343 0b8f 10        		.byte	16
 9344 0b90 10        		.byte	16
 9345 0b91 10        		.byte	16
 9346 0b92 10        		.byte	16
 9347 0b93 10        		.byte	16
 9348 0b94 10        		.byte	16
 9349 0b95 10        		.byte	16
 9350 0b96 10        		.byte	16
 9351 0b97 10        		.byte	16
 9352 0b98 1F        		.byte	31
 9353 0b99 F0        		.byte	-16
 9354 0b9a 10        		.byte	16
 9355 0b9b 10        		.byte	16
 9356 0b9c 10        		.byte	16
 9357 0b9d 10        		.byte	16
 9358 0b9e 10        		.byte	16
 9359 0b9f 10        		.byte	16
 9360 0ba0 10        		.byte	16
 9361 0ba1 10        		.byte	16
 9362 0ba2 10        		.byte	16
 9363 0ba3 10        		.byte	16
 9364 0ba4 1F        		.byte	31
 9365 0ba5 F0        		.byte	-16
 9366 0ba6 10        		.byte	16
 9367 0ba7 10        		.byte	16
 9368 0ba8 00        		.byte	0
 9369 0ba9 00        		.byte	0
 9370 0baa 00        		.byte	0
 9371 0bab 80        		.byte	-128
 9372 0bac 04        		.byte	4
 9373 0bad 80        		.byte	-128
 9374 0bae 04        		.byte	4
 9375 0baf 40        		.byte	64
 9376 0bb0 08        		.byte	8
 9377 0bb1 40        		.byte	64
 9378 0bb2 08        		.byte	8
 9379 0bb3 20        		.byte	32
 9380 0bb4 10        		.byte	16
 9381 0bb5 10        		.byte	16
 9382 0bb6 20        		.byte	32
 9383 0bb7 08        		.byte	8
 9384 0bb8 4F        		.byte	79
 9385 0bb9 EE        		.byte	-18
 9386 0bba 84        		.byte	-124
 9387 0bbb 24        		.byte	36
 9388 0bbc 04        		.byte	4
 9389 0bbd 20        		.byte	32
 9390 0bbe 04        		.byte	4
 9391 0bbf 20        		.byte	32
 9392 0bc0 04        		.byte	4
 9393 0bc1 20        		.byte	32
 9394 0bc2 04        		.byte	4
 9395 0bc3 20        		.byte	32
 9396 0bc4 08        		.byte	8
 9397 0bc5 20        		.byte	32
 9398 0bc6 11        		.byte	17
 9399 0bc7 40        		.byte	64
 9400 0bc8 20        		.byte	32
 9401 0bc9 80        		.byte	-128
 9402 0bca 04        		.byte	4
 9403 0bcb 20        		.byte	32
 9404 0bcc 0E        		.byte	14
 9405 0bcd 20        		.byte	32
 9406 0bce 78        		.byte	120
 9407 0bcf 20        		.byte	32
 9408 0bd0 08        		.byte	8
 9409 0bd1 20        		.byte	32
 9410 0bd2 08        		.byte	8
 9411 0bd3 A8        		.byte	-88
 9412 0bd4 FE        		.byte	-2
 9413 0bd5 A6        		.byte	-90
 9414 0bd6 08        		.byte	8
 9415 0bd7 A2        		.byte	-94
 9416 0bd8 1D        		.byte	29
 9417 0bd9 20        		.byte	32
 9418 0bda 1A        		.byte	26
 9419 0bdb 24        		.byte	36
 9420 0bdc 28        		.byte	40
 9421 0bdd 24        		.byte	36
 9422 0bde 28        		.byte	40
 9423 0bdf 28        		.byte	40
 9424 0be0 48        		.byte	72
 9425 0be1 10        		.byte	16
 9426 0be2 88        		.byte	-120
 9427 0be3 20        		.byte	32
 9428 0be4 08        		.byte	8
 9429 0be5 40        		.byte	64
 9430 0be6 08        		.byte	8
 9431 0be7 80        		.byte	-128
 9432 0be8 0B        		.byte	11
 9433 0be9 00        		.byte	0
 9434 0bea 08        		.byte	8
 9435 0beb 20        		.byte	32
 9436 0bec 09        		.byte	9
 9437 0bed 20        		.byte	32
 9438 0bee 09        		.byte	9
 9439 0bef 20        		.byte	32
 9440 0bf0 11        		.byte	17
 9441 0bf1 10        		.byte	16
 9442 0bf2 12        		.byte	18
 9443 0bf3 10        		.byte	16
 9444 0bf4 32        		.byte	50
 9445 0bf5 0E        		.byte	14
 9446 0bf6 54        		.byte	84
 9447 0bf7 04        		.byte	4
 9448 0bf8 9B        		.byte	-101
 9449 0bf9 F0        		.byte	-16
 9450 0bfa 11        		.byte	17
 9451 0bfb 10        		.byte	16
 9452 0bfc 11        		.byte	17
 9453 0bfd 10        		.byte	16
 9454 0bfe 11        		.byte	17
 9455 0bff 10        		.byte	16
 9456 0c00 11        		.byte	17
 9457 0c01 10        		.byte	16
 9458 0c02 12        		.byte	18
 9459 0c03 10        		.byte	16
 9460 0c04 12        		.byte	18
 9461 0c05 10        		.byte	16
 9462 0c06 14        		.byte	20
 9463 0c07 A0        		.byte	-96
 9464 0c08 10        		.byte	16
 9465 0c09 40        		.byte	64
 9466 0c0a 00        		.byte	0
 9467 0c0b 08        		.byte	8
 9468 0c0c 3F        		.byte	63
 9469 0c0d FC        		.byte	-4
 9470 0c0e 20        		.byte	32
 9471 0c0f 08        		.byte	8
 9472 0c10 3F        		.byte	63
 9473 0c11 F8        		.byte	-8
 9474 0c12 20        		.byte	32
 9475 0c13 08        		.byte	8
 9476 0c14 3F        		.byte	63
 9477 0c15 F8        		.byte	-8
 9478 0c16 01        		.byte	1
 9479 0c17 00        		.byte	0
 9480 0c18 21        		.byte	33
 9481 0c19 08        		.byte	8
 9482 0c1a 3F        		.byte	63
 9483 0c1b FC        		.byte	-4
 9484 0c1c 21        		.byte	33
 9485 0c1d 00        		.byte	0
 9486 0c1e 41        		.byte	65
 9487 0c1f 10        		.byte	16
 9488 0c20 BF        		.byte	-65
 9489 0c21 F8        		.byte	-8
 9490 0c22 01        		.byte	1
 9491 0c23 00        		.byte	0
 9492 0c24 01        		.byte	1
 9493 0c25 04        		.byte	4
 9494 0c26 FF        		.byte	-1
 9495 0c27 FE        		.byte	-2
 9496 0c28 00        		.byte	0
 9497 0c29 00        		.byte	0
 9498 0c2a 22        		.byte	34
 9499 0c2b 04        		.byte	4
 9500 0c2c 22        		.byte	34
 9501 0c2d 7E        		.byte	126
 9502 0c2e 22        		.byte	34
 9503 0c2f 44        		.byte	68
 9504 0c30 7F        		.byte	127
 9505 0c31 44        		.byte	68
 9506 0c32 22        		.byte	34
 9507 0c33 44        		.byte	68
 9508 0c34 3E        		.byte	62
 9509 0c35 7C        		.byte	124
 9510 0c36 22        		.byte	34
 9511 0c37 44        		.byte	68
 9512 0c38 3E        		.byte	62
 9513 0c39 44        		.byte	68
 9514 0c3a 22        		.byte	34
 9515 0c3b 44        		.byte	68
 9516 0c3c 22        		.byte	34
 9517 0c3d 7C        		.byte	124
 9518 0c3e FF        		.byte	-1
 9519 0c3f C4        		.byte	-60
 9520 0c40 00        		.byte	0
 9521 0c41 44        		.byte	68
 9522 0c42 24        		.byte	36
 9523 0c43 44        		.byte	68
 9524 0c44 22        		.byte	34
 9525 0c45 84        		.byte	-124
 9526 0c46 41        		.byte	65
 9527 0c47 14        		.byte	20
 9528 0c48 82        		.byte	-126
 9529 0c49 08        		.byte	8
 9530 0c4a 00        		.byte	0
 9531 0c4b 08        		.byte	8
 9532 0c4c 3F        		.byte	63
 9533 0c4d FC        		.byte	-4
 9534 0c4e 21        		.byte	33
 9535 0c4f 08        		.byte	8
 9536 0c50 21        		.byte	33
 9537 0c51 48        		.byte	72
 9538 0c52 2F        		.byte	47
 9539 0c53 E8        		.byte	-24
 9540 0c54 21        		.byte	33
 9541 0c55 08        		.byte	8
 9542 0c56 21        		.byte	33
 9543 0c57 28        		.byte	40
 9544 0c58 3F        		.byte	63
 9545 0c59 F8        		.byte	-8
 9546 0c5a 20        		.byte	32
 9547 0c5b 48        		.byte	72
 9548 0c5c 27        		.byte	39
 9549 0c5d E8        		.byte	-24
 9550 0c5e 24        		.byte	36
 9551 0c5f 48        		.byte	72
 9552 0c60 24        		.byte	36
 9553 0c61 48        		.byte	72
 9554 0c62 24        		.byte	36
 9555 0c63 48        		.byte	72
 9556 0c64 47        		.byte	71
 9557 0c65 C8        		.byte	-56
 9558 0c66 84        		.byte	-124
 9559 0c67 28        		.byte	40
 9560 0c68 00        		.byte	0
 9561 0c69 10        		.byte	16
 9562 0c6a 01        		.byte	1
 9563 0c6b 00        		.byte	0
 9564 0c6c 02        		.byte	2
 9565 0c6d 00        		.byte	0
 9566 0c6e 04        		.byte	4
 9567 0c6f 10        		.byte	16
 9568 0c70 1F        		.byte	31
 9569 0c71 F8        		.byte	-8
 9570 0c72 10        		.byte	16
 9571 0c73 10        		.byte	16
 9572 0c74 10        		.byte	16
 9573 0c75 10        		.byte	16
 9574 0c76 1F        		.byte	31
 9575 0c77 F0        		.byte	-16
 9576 0c78 10        		.byte	16
 9577 0c79 10        		.byte	16
 9578 0c7a 10        		.byte	16
 9579 0c7b 10        		.byte	16
 9580 0c7c 10        		.byte	16
 9581 0c7d 10        		.byte	16
 9582 0c7e 1F        		.byte	31
 9583 0c7f F0        		.byte	-16
 9584 0c80 10        		.byte	16
 9585 0c81 10        		.byte	16
 9586 0c82 10        		.byte	16
 9587 0c83 10        		.byte	16
 9588 0c84 10        		.byte	16
 9589 0c85 10        		.byte	16
 9590 0c86 1F        		.byte	31
 9591 0c87 F0        		.byte	-16
 9592 0c88 10        		.byte	16
 9593 0c89 10        		.byte	16
 9594 0c8a 00        		.byte	0
 9595 0c8b 10        		.byte	16
 9596 0c8c 00        		.byte	0
 9597 0c8d F8        		.byte	-8
 9598 0c8e 7F        		.byte	127
 9599 0c8f 00        		.byte	0
 9600 0c90 01        		.byte	1
 9601 0c91 00        		.byte	0
 9602 0c92 01        		.byte	1
 9603 0c93 10        		.byte	16
 9604 0c94 3F        		.byte	63
 9605 0c95 F8        		.byte	-8
 9606 0c96 01        		.byte	1
 9607 0c97 00        		.byte	0
 9608 0c98 01        		.byte	1
 9609 0c99 00        		.byte	0
 9610 0c9a 01        		.byte	1
 9611 0c9b 04        		.byte	4
 9612 0c9c FF        		.byte	-1
 9613 0c9d FE        		.byte	-2
 9614 0c9e 01        		.byte	1
 9615 0c9f 00        		.byte	0
 9616 0ca0 01        		.byte	1
 9617 0ca1 00        		.byte	0
 9618 0ca2 01        		.byte	1
 9619 0ca3 00        		.byte	0
 9620 0ca4 01        		.byte	1
 9621 0ca5 00        		.byte	0
 9622 0ca6 05        		.byte	5
 9623 0ca7 00        		.byte	0
 9624 0ca8 02        		.byte	2
 9625 0ca9 00        		.byte	0
 9626 0caa 00        		.byte	0
 9627 0cab 40        		.byte	64
 9628 0cac 08        		.byte	8
 9629 0cad 40        		.byte	64
 9630 0cae 7C        		.byte	124
 9631 0caf 40        		.byte	64
 9632 0cb0 00        		.byte	0
 9633 0cb1 44        		.byte	68
 9634 0cb2 05        		.byte	5
 9635 0cb3 FE        		.byte	-2
 9636 0cb4 FE        		.byte	-2
 9637 0cb5 44        		.byte	68
 9638 0cb6 10        		.byte	16
 9639 0cb7 44        		.byte	68
 9640 0cb8 10        		.byte	16
 9641 0cb9 44        		.byte	68
 9642 0cba 20        		.byte	32
 9643 0cbb 44        		.byte	68
 9644 0cbc 24        		.byte	36
 9645 0cbd 44        		.byte	68
 9646 0cbe 42        		.byte	66
 9647 0cbf 84        		.byte	-124
 9648 0cc0 FE        		.byte	-2
 9649 0cc1 84        		.byte	-124
 9650 0cc2 41        		.byte	65
 9651 0cc3 04        		.byte	4
 9652 0cc4 01        		.byte	1
 9653 0cc5 04        		.byte	4
 9654 0cc6 02        		.byte	2
 9655 0cc7 28        		.byte	40
 9656 0cc8 04        		.byte	4
 9657 0cc9 10        		.byte	16
 9658 0cca 02        		.byte	2
 9659 0ccb 00        		.byte	0
 9660 0ccc 01        		.byte	1
 9661 0ccd 00        		.byte	0
 9662 0cce 3F        		.byte	63
 9663 0ccf FC        		.byte	-4
 9664 0cd0 20        		.byte	32
 9665 0cd1 04        		.byte	4
 9666 0cd2 40        		.byte	64
 9667 0cd3 08        		.byte	8
 9668 0cd4 1F        		.byte	31
 9669 0cd5 E0        		.byte	-32
 9670 0cd6 00        		.byte	0
 9671 0cd7 40        		.byte	64
 9672 0cd8 00        		.byte	0
 9673 0cd9 80        		.byte	-128
 9674 0cda 01        		.byte	1
 9675 0cdb 04        		.byte	4
 9676 0cdc FF        		.byte	-1
 9677 0cdd FE        		.byte	-2
 9678 0cde 01        		.byte	1
 9679 0cdf 00        		.byte	0
 9680 0ce0 01        		.byte	1
 9681 0ce1 00        		.byte	0
 9682 0ce2 01        		.byte	1
 9683 0ce3 00        		.byte	0
 9684 0ce4 01        		.byte	1
 9685 0ce5 00        		.byte	0
 9686 0ce6 05        		.byte	5
 9687 0ce7 00        		.byte	0
 9688 0ce8 02        		.byte	2
 9689 0ce9 00        		.byte	0
 9690 0cea 10        		.byte	16
 9691 0ceb 80        		.byte	-128
 9692 0cec 10        		.byte	16
 9693 0ced 80        		.byte	-128
 9694 0cee 10        		.byte	16
 9695 0cef 80        		.byte	-128
 9696 0cf0 20        		.byte	32
 9697 0cf1 88        		.byte	-120
 9698 0cf2 2F        		.byte	47
 9699 0cf3 FC        		.byte	-4
 9700 0cf4 62        		.byte	98
 9701 0cf5 A0        		.byte	-96
 9702 0cf6 A2        		.byte	-94
 9703 0cf7 A0        		.byte	-96
 9704 0cf8 24        		.byte	36
 9705 0cf9 90        		.byte	-112
 9706 0cfa 24        		.byte	36
 9707 0cfb 90        		.byte	-112
 9708 0cfc 28        		.byte	40
 9709 0cfd 88        		.byte	-120
 9710 0cfe 2B        		.byte	43
 9711 0cff EE        		.byte	-18
 9712 0d00 30        		.byte	48
 9713 0d01 84        		.byte	-124
 9714 0d02 20        		.byte	32
 9715 0d03 80        		.byte	-128
 9716 0d04 20        		.byte	32
 9717 0d05 80        		.byte	-128
 9718 0d06 20        		.byte	32
 9719 0d07 80        		.byte	-128
 9720 0d08 20        		.byte	32
 9721 0d09 80        		.byte	-128
 9722 0d0a 10        		.byte	16
 9723 0d0b 40        		.byte	64
 9724 0d0c 10        		.byte	16
 9725 0d0d 20        		.byte	32
 9726 0d0e 10        		.byte	16
 9727 0d0f 04        		.byte	4
 9728 0d10 13        		.byte	19
 9729 0d11 FE        		.byte	-2
 9730 0d12 FC        		.byte	-4
 9731 0d13 00        		.byte	0
 9732 0d14 10        		.byte	16
 9733 0d15 88        		.byte	-120
 9734 0d16 31        		.byte	49
 9735 0d17 06        		.byte	6
 9736 0d18 3A        		.byte	58
 9737 0d19 8A        		.byte	-118
 9738 0d1a 54        		.byte	84
 9739 0d1b 88        		.byte	-120
 9740 0d1c 50        		.byte	80
 9741 0d1d 50        		.byte	80
 9742 0d1e 90        		.byte	-112
 9743 0d1f 50        		.byte	80
 9744 0d20 10        		.byte	16
 9745 0d21 20        		.byte	32
 9746 0d22 10        		.byte	16
 9747 0d23 50        		.byte	80
 9748 0d24 10        		.byte	16
 9749 0d25 88        		.byte	-120
 9750 0d26 13        		.byte	19
 9751 0d27 0E        		.byte	14
 9752 0d28 1C        		.byte	28
 9753 0d29 04        		.byte	4
 9754 0d2a 10        		.byte	16
 9755 0d2b 00        		.byte	0
 9756 0d2c 10        		.byte	16
 9757 0d2d 00        		.byte	0
 9758 0d2e 10        		.byte	16
 9759 0d2f 04        		.byte	4
 9760 0d30 12        		.byte	18
 9761 0d31 7E        		.byte	126
 9762 0d32 FF        		.byte	-1
 9763 0d33 44        		.byte	68
 9764 0d34 12        		.byte	18
 9765 0d35 44        		.byte	68
 9766 0d36 12        		.byte	18
 9767 0d37 44        		.byte	68
 9768 0d38 12        		.byte	18
 9769 0d39 44        		.byte	68
 9770 0d3a 12        		.byte	18
 9771 0d3b 44        		.byte	68
 9772 0d3c 22        		.byte	34
 9773 0d3d 44        		.byte	68
 9774 0d3e 22        		.byte	34
 9775 0d3f 44        		.byte	68
 9776 0d40 22        		.byte	34
 9777 0d41 44        		.byte	68
 9778 0d42 22        		.byte	34
 9779 0d43 44        		.byte	68
 9780 0d44 4A        		.byte	74
 9781 0d45 7C        		.byte	124
 9782 0d46 84        		.byte	-124
 9783 0d47 44        		.byte	68
 9784 0d48 00        		.byte	0
 9785 0d49 00        		.byte	0
 9786 0d4a 00        		.byte	0
 9787 0d4b 10        		.byte	16
 9788 0d4c 40        		.byte	64
 9789 0d4d 18        		.byte	24
 9790 0d4e 30        		.byte	48
 9791 0d4f 14        		.byte	20
 9792 0d50 17        		.byte	23
 9793 0d51 FE        		.byte	-2
 9794 0d52 04        		.byte	4
 9795 0d53 10        		.byte	16
 9796 0d54 04        		.byte	4
 9797 0d55 10        		.byte	16
 9798 0d56 0D        		.byte	13
 9799 0d57 D0        		.byte	-48
 9800 0d58 14        		.byte	20
 9801 0d59 14        		.byte	20
 9802 0d5a 25        		.byte	37
 9803 0d5b D4        		.byte	-44
 9804 0d5c E5        		.byte	-27
 9805 0d5d 54        		.byte	84
 9806 0d5e 25        		.byte	37
 9807 0d5f 54        		.byte	84
 9808 0d60 25        		.byte	37
 9809 0d61 58        		.byte	88
 9810 0d62 25        		.byte	37
 9811 0d63 D0        		.byte	-48
 9812 0d64 25        		.byte	37
 9813 0d65 2A        		.byte	42
 9814 0d66 08        		.byte	8
 9815 0d67 46        		.byte	70
 9816 0d68 10        		.byte	16
 9817 0d69 82        		.byte	-126
 9818 0d6a 10        		.byte	16
 9819 0d6b 00        		.byte	0
 9820 0d6c 10        		.byte	16
 9821 0d6d 08        		.byte	8
 9822 0d6e 1F        		.byte	31
 9823 0d6f FC        		.byte	-4
 9824 0d70 20        		.byte	32
 9825 0d71 10        		.byte	16
 9826 0d72 5F        		.byte	95
 9827 0d73 F8        		.byte	-8
 9828 0d74 12        		.byte	18
 9829 0d75 10        		.byte	16
 9830 0d76 11        		.byte	17
 9831 0d77 10        		.byte	16
 9832 0d78 10        		.byte	16
 9833 0d79 14        		.byte	20
 9834 0d7a FF        		.byte	-1
 9835 0d7b FE        		.byte	-2
 9836 0d7c 12        		.byte	18
 9837 0d7d 10        		.byte	16
 9838 0d7e 21        		.byte	33
 9839 0d7f 10        		.byte	16
 9840 0d80 20        		.byte	32
 9841 0d81 10        		.byte	16
 9842 0d82 3F        		.byte	63
 9843 0d83 F8        		.byte	-8
 9844 0d84 00        		.byte	0
 9845 0d85 20        		.byte	32
 9846 0d86 00        		.byte	0
 9847 0d87 A0        		.byte	-96
 9848 0d88 00        		.byte	0
 9849 0d89 40        		.byte	64
 9850 0d8a 10        		.byte	16
 9851 0d8b 04        		.byte	4
 9852 0d8c 09        		.byte	9
 9853 0d8d FE        		.byte	-2
 9854 0d8e 7F        		.byte	127
 9855 0d8f 20        		.byte	32
 9856 0d90 22        		.byte	34
 9857 0d91 44        		.byte	68
 9858 0d92 14        		.byte	20
 9859 0d93 FE        		.byte	-2
 9860 0d94 7F        		.byte	127
 9861 0d95 84        		.byte	-124
 9862 0d96 44        		.byte	68
 9863 0d97 94        		.byte	-108
 9864 0d98 48        		.byte	72
 9865 0d99 94        		.byte	-108
 9866 0d9a 52        		.byte	82
 9867 0d9b 94        		.byte	-108
 9868 0d9c 44        		.byte	68
 9869 0d9d A4        		.byte	-92
 9870 0d9e 48        		.byte	72
 9871 0d9f A4        		.byte	-92
 9872 0da0 52        		.byte	82
 9873 0da1 A4        		.byte	-92
 9874 0da2 44        		.byte	68
 9875 0da3 A4        		.byte	-92
 9876 0da4 48        		.byte	72
 9877 0da5 48        		.byte	72
 9878 0da6 90        		.byte	-112
 9879 0da7 86        		.byte	-122
 9880 0da8 21        		.byte	33
 9881 0da9 02        		.byte	2
 9882 0daa 04        		.byte	4
 9883 0dab 00        		.byte	0
 9884 0dac 04        		.byte	4
 9885 0dad 00        		.byte	0
 9886 0dae 07        		.byte	7
 9887 0daf F0        		.byte	-16
 9888 0db0 08        		.byte	8
 9889 0db1 20        		.byte	32
 9890 0db2 08        		.byte	8
 9891 0db3 48        		.byte	72
 9892 0db4 1F        		.byte	31
 9893 0db5 FC        		.byte	-4
 9894 0db6 28        		.byte	40
 9895 0db7 88        		.byte	-120
 9896 0db8 48        		.byte	72
 9897 0db9 88        		.byte	-120
 9898 0dba 08        		.byte	8
 9899 0dbb 88        		.byte	-120
 9900 0dbc 0F        		.byte	15
 9901 0dbd F8        		.byte	-8
 9902 0dbe 08        		.byte	8
 9903 0dbf 08        		.byte	8
 9904 0dc0 08        		.byte	8
 9905 0dc1 00        		.byte	0
 9906 0dc2 08        		.byte	8
 9907 0dc3 02        		.byte	2
 9908 0dc4 08        		.byte	8
 9909 0dc5 02        		.byte	2
 9910 0dc6 07        		.byte	7
 9911 0dc7 FE        		.byte	-2
 9912 0dc8 00        		.byte	0
 9913 0dc9 00        		.byte	0
 9914 0dca 10        		.byte	16
 9915 0dcb 10        		.byte	16
 9916 0dcc 08        		.byte	8
 9917 0dcd 20        		.byte	32
 9918 0dce 04        		.byte	4
 9919 0dcf 48        		.byte	72
 9920 0dd0 3F        		.byte	63
 9921 0dd1 FC        		.byte	-4
 9922 0dd2 21        		.byte	33
 9923 0dd3 08        		.byte	8
 9924 0dd4 21        		.byte	33
 9925 0dd5 08        		.byte	8
 9926 0dd6 3F        		.byte	63
 9927 0dd7 F8        		.byte	-8
 9928 0dd8 21        		.byte	33
 9929 0dd9 08        		.byte	8
 9930 0dda 21        		.byte	33
 9931 0ddb 08        		.byte	8
 9932 0ddc 3F        		.byte	63
 9933 0ddd F8        		.byte	-8
 9934 0dde 21        		.byte	33
 9935 0ddf 00        		.byte	0
 9936 0de0 01        		.byte	1
 9937 0de1 04        		.byte	4
 9938 0de2 FF        		.byte	-1
 9939 0de3 FE        		.byte	-2
 9940 0de4 01        		.byte	1
 9941 0de5 00        		.byte	0
 9942 0de6 01        		.byte	1
 9943 0de7 00        		.byte	0
 9944 0de8 01        		.byte	1
 9945 0de9 00        		.byte	0
 9946 0dea 10        		.byte	16
 9947 0deb 00        		.byte	0
 9948 0dec 10        		.byte	16
 9949 0ded 08        		.byte	8
 9950 0dee 23        		.byte	35
 9951 0def FC        		.byte	-4
 9952 0df0 20        		.byte	32
 9953 0df1 20        		.byte	32
 9954 0df2 44        		.byte	68
 9955 0df3 20        		.byte	32
 9956 0df4 F8        		.byte	-8
 9957 0df5 20        		.byte	32
 9958 0df6 10        		.byte	16
 9959 0df7 20        		.byte	32
 9960 0df8 20        		.byte	32
 9961 0df9 20        		.byte	32
 9962 0dfa 40        		.byte	64
 9963 0dfb 20        		.byte	32
 9964 0dfc FC        		.byte	-4
 9965 0dfd 20        		.byte	32
 9966 0dfe 40        		.byte	64
 9967 0dff 20        		.byte	32
 9968 0e00 00        		.byte	0
 9969 0e01 20        		.byte	32
 9970 0e02 1C        		.byte	28
 9971 0e03 20        		.byte	32
 9972 0e04 E0        		.byte	-32
 9973 0e05 24        		.byte	36
 9974 0e06 47        		.byte	71
 9975 0e07 FE        		.byte	-2
 9976 0e08 00        		.byte	0
 9977 0e09 00        		.byte	0
 9978 0e0a 10        		.byte	16
 9979 0e0b 08        		.byte	8
 9980 0e0c 13        		.byte	19
 9981 0e0d FC        		.byte	-4
 9982 0e0e 20        		.byte	32
 9983 0e0f 08        		.byte	8
 9984 0e10 21        		.byte	33
 9985 0e11 F8        		.byte	-8
 9986 0e12 44        		.byte	68
 9987 0e13 08        		.byte	8
 9988 0e14 FF        		.byte	-1
 9989 0e15 FE        		.byte	-2
 9990 0e16 10        		.byte	16
 9991 0e17 40        		.byte	64
 9992 0e18 22        		.byte	34
 9993 0e19 44        		.byte	68
 9994 0e1a 41        		.byte	65
 9995 0e1b 4C        		.byte	76
 9996 0e1c F9        		.byte	-7
 9997 0e1d 50        		.byte	80
 9998 0e1e 00        		.byte	0
 9999 0e1f E0        		.byte	-32
 10000 0e20 01        		.byte	1
 10001 0e21 50        		.byte	80
 10002 0e22 1A        		.byte	26
 10003 0e23 48        		.byte	72
 10004 0e24 E4        		.byte	-28
 10005 0e25 4E        		.byte	78
 10006 0e26 41        		.byte	65
 10007 0e27 44        		.byte	68
 10008 0e28 00        		.byte	0
 10009 0e29 80        		.byte	-128
 10010 0e2a 04        		.byte	4
 10011 0e2b 40        		.byte	64
 10012 0e2c 04        		.byte	4
 10013 0e2d 50        		.byte	80
 10014 0e2e 3F        		.byte	63
 10015 0e2f F8        		.byte	-8
 10016 0e30 04        		.byte	4
 10017 0e31 40        		.byte	64
 10018 0e32 04        		.byte	4
 10019 0e33 44        		.byte	68
 10020 0e34 FF        		.byte	-1
 10021 0e35 FE        		.byte	-2
 10022 0e36 01        		.byte	1
 10023 0e37 10        		.byte	16
 10024 0e38 1F        		.byte	31
 10025 0e39 F8        		.byte	-8
 10026 0e3a 11        		.byte	17
 10027 0e3b 10        		.byte	16
 10028 0e3c 1F        		.byte	31
 10029 0e3d F0        		.byte	-16
 10030 0e3e 11        		.byte	17
 10031 0e3f 10        		.byte	16
 10032 0e40 1F        		.byte	31
 10033 0e41 F0        		.byte	-16
 10034 0e42 10        		.byte	16
 10035 0e43 00        		.byte	0
 10036 0e44 04        		.byte	4
 10037 0e45 60        		.byte	96
 10038 0e46 18        		.byte	24
 10039 0e47 18        		.byte	24
 10040 0e48 60        		.byte	96
 10041 0e49 04        		.byte	4
 10042 0e4a 02        		.byte	2
 10043 0e4b 00        		.byte	0
 10044 0e4c 01        		.byte	1
 10045 0e4d 04        		.byte	4
 10046 0e4e 3F        		.byte	63
 10047 0e4f FE        		.byte	-2
 10048 0e50 20        		.byte	32
 10049 0e51 00        		.byte	0
 10050 0e52 20        		.byte	32
 10051 0e53 70        		.byte	112
 10052 0e54 2F        		.byte	47
 10053 0e55 80        		.byte	-128
 10054 0e56 28        		.byte	40
 10055 0e57 80        		.byte	-128
 10056 0e58 28        		.byte	40
 10057 0e59 88        		.byte	-120
 10058 0e5a 2F        		.byte	47
 10059 0e5b FC        		.byte	-4
 10060 0e5c 28        		.byte	40
 10061 0e5d 80        		.byte	-128
 10062 0e5e 28        		.byte	40
 10063 0e5f 80        		.byte	-128
 10064 0e60 28        		.byte	40
 10065 0e61 40        		.byte	64
 10066 0e62 4A        		.byte	74
 10067 0e63 40        		.byte	64
 10068 0e64 4D        		.byte	77
 10069 0e65 A4        		.byte	-92
 10070 0e66 88        		.byte	-120
 10071 0e67 94        		.byte	-108
 10072 0e68 00        		.byte	0
 10073 0e69 0C        		.byte	12
 10074 0e6a 00        		.byte	0
 10075 0e6b 08        		.byte	8
 10076 0e6c 4F        		.byte	79
 10077 0e6d FC        		.byte	-4
 10078 0e6e 21        		.byte	33
 10079 0e6f 00        		.byte	0
 10080 0e70 21        		.byte	33
 10081 0e71 10        		.byte	16
 10082 0e72 07        		.byte	7
 10083 0e73 F8        		.byte	-8
 10084 0e74 02        		.byte	2
 10085 0e75 10        		.byte	16
 10086 0e76 E2        		.byte	-30
 10087 0e77 14        		.byte	20
 10088 0e78 3F        		.byte	63
 10089 0e79 FE        		.byte	-2
 10090 0e7a 20        		.byte	32
 10091 0e7b 00        		.byte	0
 10092 0e7c 20        		.byte	32
 10093 0e7d 08        		.byte	8
 10094 0e7e 27        		.byte	39
 10095 0e7f FC        		.byte	-4
 10096 0e80 24        		.byte	36
 10097 0e81 08        		.byte	8
 10098 0e82 2C        		.byte	44
 10099 0e83 08        		.byte	8
 10100 0e84 34        		.byte	52
 10101 0e85 08        		.byte	8
 10102 0e86 27        		.byte	39
 10103 0e87 F8        		.byte	-8
 10104 0e88 04        		.byte	4
 10105 0e89 08        		.byte	8
 10106 0e8a 02        		.byte	2
 10107 0e8b 00        		.byte	0
 10108 0e8c 01        		.byte	1
 10109 0e8d 10        		.byte	16
 10110 0e8e 3F        		.byte	63
 10111 0e8f F8        		.byte	-8
 10112 0e90 08        		.byte	8
 10113 0e91 20        		.byte	32
 10114 0e92 04        		.byte	4
 10115 0e93 20        		.byte	32
 10116 0e94 04        		.byte	4
 10117 0e95 44        		.byte	68
 10118 0e96 FF        		.byte	-1
 10119 0e97 FE        		.byte	-2
 10120 0e98 00        		.byte	0
 10121 0e99 10        		.byte	16
 10122 0e9a 1F        		.byte	31
 10123 0e9b F8        		.byte	-8
 10124 0e9c 10        		.byte	16
 10125 0e9d 10        		.byte	16
 10126 0e9e 10        		.byte	16
 10127 0e9f 10        		.byte	16
 10128 0ea0 1F        		.byte	31
 10129 0ea1 F0        		.byte	-16
 10130 0ea2 10        		.byte	16
 10131 0ea3 10        		.byte	16
 10132 0ea4 10        		.byte	16
 10133 0ea5 10        		.byte	16
 10134 0ea6 1F        		.byte	31
 10135 0ea7 F0        		.byte	-16
 10136 0ea8 10        		.byte	16
 10137 0ea9 10        		.byte	16
 10138 0eaa 10        		.byte	16
 10139 0eab 08        		.byte	8
 10140 0eac 11        		.byte	17
 10141 0ead FC        		.byte	-4
 10142 0eae 11        		.byte	17
 10143 0eaf 08        		.byte	8
 10144 0eb0 11        		.byte	17
 10145 0eb1 08        		.byte	8
 10146 0eb2 FD        		.byte	-3
 10147 0eb3 28        		.byte	40
 10148 0eb4 11        		.byte	17
 10149 0eb5 10        		.byte	16
 10150 0eb6 15        		.byte	21
 10151 0eb7 00        		.byte	0
 10152 0eb8 19        		.byte	25
 10153 0eb9 F8        		.byte	-8
 10154 0eba 31        		.byte	49
 10155 0ebb 08        		.byte	8
 10156 0ebc D1        		.byte	-47
 10157 0ebd 90        		.byte	-112
 10158 0ebe 11        		.byte	17
 10159 0ebf 50        		.byte	80
 10160 0ec0 11        		.byte	17
 10161 0ec1 20        		.byte	32
 10162 0ec2 11        		.byte	17
 10163 0ec3 50        		.byte	80
 10164 0ec4 11        		.byte	17
 10165 0ec5 8E        		.byte	-114
 10166 0ec6 51        		.byte	81
 10167 0ec7 04        		.byte	4
 10168 0ec8 21        		.byte	33
 10169 0ec9 00        		.byte	0
 10170 0eca 00        		.byte	0
 10171 0ecb 08        		.byte	8
 10172 0ecc 7F        		.byte	127
 10173 0ecd FC        		.byte	-4
 10174 0ece 01        		.byte	1
 10175 0ecf 00        		.byte	0
 10176 0ed0 01        		.byte	1
 10177 0ed1 00        		.byte	0
 10178 0ed2 01        		.byte	1
 10179 0ed3 00        		.byte	0
 10180 0ed4 01        		.byte	1
 10181 0ed5 00        		.byte	0
 10182 0ed6 11        		.byte	17
 10183 0ed7 10        		.byte	16
 10184 0ed8 11        		.byte	17
 10185 0ed9 F8        		.byte	-8
 10186 0eda 11        		.byte	17
 10187 0edb 00        		.byte	0
 10188 0edc 11        		.byte	17
 10189 0edd 00        		.byte	0
 10190 0ede 11        		.byte	17
 10191 0edf 00        		.byte	0
 10192 0ee0 11        		.byte	17
 10193 0ee1 00        		.byte	0
 10194 0ee2 11        		.byte	17
 10195 0ee3 00        		.byte	0
 10196 0ee4 11        		.byte	17
 10197 0ee5 04        		.byte	4
 10198 0ee6 FF        		.byte	-1
 10199 0ee7 FE        		.byte	-2
 10200 0ee8 00        		.byte	0
 10201 0ee9 00        		.byte	0
 10202 0eea 01        		.byte	1
 10203 0eeb 00        		.byte	0
 10204 0eec 11        		.byte	17
 10205 0eed 10        		.byte	16
 10206 0eee 09        		.byte	9
 10207 0eef 20        		.byte	32
 10208 0ef0 7F        		.byte	127
 10209 0ef1 FE        		.byte	-2
 10210 0ef2 40        		.byte	64
 10211 0ef3 02        		.byte	2
 10212 0ef4 8F        		.byte	-113
 10213 0ef5 E4        		.byte	-28
 10214 0ef6 08        		.byte	8
 10215 0ef7 20        		.byte	32
 10216 0ef8 0F        		.byte	15
 10217 0ef9 E0        		.byte	-32
 10218 0efa 01        		.byte	1
 10219 0efb 10        		.byte	16
 10220 0efc 1F        		.byte	31
 10221 0efd F8        		.byte	-8
 10222 0efe 11        		.byte	17
 10223 0eff 10        		.byte	16
 10224 0f00 11        		.byte	17
 10225 0f01 10        		.byte	16
 10226 0f02 11        		.byte	17
 10227 0f03 10        		.byte	16
 10228 0f04 11        		.byte	17
 10229 0f05 50        		.byte	80
 10230 0f06 01        		.byte	1
 10231 0f07 20        		.byte	32
 10232 0f08 01        		.byte	1
 10233 0f09 00        		.byte	0
 10234 0f0a 10        		.byte	16
 10235 0f0b 00        		.byte	0
 10236 0f0c 10        		.byte	16
 10237 0f0d 00        		.byte	0
 10238 0f0e 10        		.byte	16
 10239 0f0f 04        		.byte	4
 10240 0f10 1F        		.byte	31
 10241 0f11 FE        		.byte	-2
 10242 0f12 24        		.byte	36
 10243 0f13 44        		.byte	68
 10244 0f14 44        		.byte	68
 10245 0f15 44        		.byte	68
 10246 0f16 84        		.byte	-124
 10247 0f17 44        		.byte	68
 10248 0f18 08        		.byte	8
 10249 0f19 44        		.byte	68
 10250 0f1a 08        		.byte	8
 10251 0f1b 84        		.byte	-124
 10252 0f1c 08        		.byte	8
 10253 0f1d 84        		.byte	-124
 10254 0f1e 10        		.byte	16
 10255 0f1f 84        		.byte	-124
 10256 0f20 11        		.byte	17
 10257 0f21 04        		.byte	4
 10258 0f22 21        		.byte	33
 10259 0f23 04        		.byte	4
 10260 0f24 42        		.byte	66
 10261 0f25 04        		.byte	4
 10262 0f26 04        		.byte	4
 10263 0f27 28        		.byte	40
 10264 0f28 08        		.byte	8
 10265 0f29 10        		.byte	16
 10266 0f2a 10        		.byte	16
 10267 0f2b 40        		.byte	64
 10268 0f2c 10        		.byte	16
 10269 0f2d 50        		.byte	80
 10270 0f2e 10        		.byte	16
 10271 0f2f 48        		.byte	72
 10272 0f30 10        		.byte	16
 10273 0f31 40        		.byte	64
 10274 0f32 FC        		.byte	-4
 10275 0f33 44        		.byte	68
 10276 0f34 13        		.byte	19
 10277 0f35 FE        		.byte	-2
 10278 0f36 14        		.byte	20
 10279 0f37 40        		.byte	64
 10280 0f38 18        		.byte	24
 10281 0f39 60        		.byte	96
 10282 0f3a 30        		.byte	48
 10283 0f3b A0        		.byte	-96
 10284 0f3c D0        		.byte	-48
 10285 0f3d A0        		.byte	-96
 10286 0f3e 10        		.byte	16
 10287 0f3f A0        		.byte	-96
 10288 0f40 10        		.byte	16
 10289 0f41 A0        		.byte	-96
 10290 0f42 11        		.byte	17
 10291 0f43 22        		.byte	34
 10292 0f44 11        		.byte	17
 10293 0f45 22        		.byte	34
 10294 0f46 52        		.byte	82
 10295 0f47 1E        		.byte	30
 10296 0f48 24        		.byte	36
 10297 0f49 00        		.byte	0
 10298 0f4a 10        		.byte	16
 10299 0f4b 10        		.byte	16
 10300 0f4c 08        		.byte	8
 10301 0f4d 18        		.byte	24
 10302 0f4e 04        		.byte	4
 10303 0f4f 20        		.byte	32
 10304 0f50 04        		.byte	4
 10305 0f51 48        		.byte	72
 10306 0f52 7F        		.byte	127
 10307 0f53 FC        		.byte	-4
 10308 0f54 01        		.byte	1
 10309 0f55 00        		.byte	0
 10310 0f56 01        		.byte	1
 10311 0f57 00        		.byte	0
 10312 0f58 01        		.byte	1
 10313 0f59 04        		.byte	4
 10314 0f5a FF        		.byte	-1
 10315 0f5b FE        		.byte	-2
 10316 0f5c 01        		.byte	1
 10317 0f5d 00        		.byte	0
 10318 0f5e 02        		.byte	2
 10319 0f5f 80        		.byte	-128
 10320 0f60 02        		.byte	2
 10321 0f61 80        		.byte	-128
 10322 0f62 04        		.byte	4
 10323 0f63 40        		.byte	64
 10324 0f64 08        		.byte	8
 10325 0f65 30        		.byte	48
 10326 0f66 30        		.byte	48
 10327 0f67 0E        		.byte	14
 10328 0f68 C0        		.byte	-64
 10329 0f69 04        		.byte	4
 10330 0f6a 20        		.byte	32
 10331 0f6b 04        		.byte	4
 10332 0f6c 1B        		.byte	27
 10333 0f6d FE        		.byte	-2
 10334 0f6e 08        		.byte	8
 10335 0f6f 04        		.byte	4
 10336 0f70 40        		.byte	64
 10337 0f71 84        		.byte	-124
 10338 0f72 40        		.byte	64
 10339 0f73 A4        		.byte	-92
 10340 0f74 5F        		.byte	95
 10341 0f75 F4        		.byte	-12
 10342 0f76 40        		.byte	64
 10343 0f77 84        		.byte	-124
 10344 0f78 41        		.byte	65
 10345 0f79 84        		.byte	-124
 10346 0f7a 42        		.byte	66
 10347 0f7b 84        		.byte	-124
 10348 0f7c 44        		.byte	68
 10349 0f7d 84        		.byte	-124
 10350 0f7e 48        		.byte	72
 10351 0f7f 84        		.byte	-124
 10352 0f80 50        		.byte	80
 10353 0f81 84        		.byte	-124
 10354 0f82 40        		.byte	64
 10355 0f83 84        		.byte	-124
 10356 0f84 42        		.byte	66
 10357 0f85 84        		.byte	-124
 10358 0f86 41        		.byte	65
 10359 0f87 14        		.byte	20
 10360 0f88 40        		.byte	64
 10361 0f89 08        		.byte	8
 10362               	.global	time
 10363               		.data
 10366               	time:
 10367 001d 40        		.byte	64
 10368 001e 59        		.byte	89
 10369 001f 23        		.byte	35
 10370 0020 29        		.byte	41
 10371 0021 05        		.byte	5
 10372 0022 02        		.byte	2
 10373 0023 08        		.byte	8
 10374               	.global	freshTimeCount
 10375               	.global	freshTimeCount
 10376               		.section .bss
 10379               	freshTimeCount:
 10380 0000 0000      		.skip 2,0
 10381               		.comm ReadDS18B20Count,2,1
 10382               		.comm init_f,1,1
 10383               		.comm display_cnt,1,1
 10384               		.comm display_buffer,496,1
 10385               		.comm display_buffer_second,20,1
 10386               		.comm display_buffer_temp,8,1
 10387               		.comm isSecondCountShow,1,1
 10388               		.comm currentMoveLeft,1,1
 10389               		.comm moveSpeedTimerCount,2,1
 10390               		.comm syserr,1,1
 10391               		.comm write_buff,8,1
 10392               		.comm read_buff,8,1
 10393               		.comm PLUSE_Number,1,1
 10394               		.comm PLUSE_Delay,1,1
 10395               		.comm PLUSE_Status,1,1
 10396               		.comm SPEEK_TIME_Delay,2,1
 10397               		.comm SPEEK_TIME_Status,1,1
 10398               		.comm inVoice,1,1
 10399               		.comm KEY_Time_count,2,1
 10400               		.comm KEY_Time_count_speed_color,2,1
 10401               		.comm AD_time_count,2,1
 10906               	.Letext0:
DEFINED SYMBOLS
                            *ABS*:00000000 LED3264.c
C:\DOCUME~1\shawn\LOCALS~1\Temp/ccPDaOFg.s:2      *ABS*:0000003f __SREG__
C:\DOCUME~1\shawn\LOCALS~1\Temp/ccPDaOFg.s:3      *ABS*:0000003e __SP_H__
C:\DOCUME~1\shawn\LOCALS~1\Temp/ccPDaOFg.s:4      *ABS*:0000003d __SP_L__
C:\DOCUME~1\shawn\LOCALS~1\Temp/ccPDaOFg.s:5      *ABS*:00000000 __tmp_reg__
C:\DOCUME~1\shawn\LOCALS~1\Temp/ccPDaOFg.s:6      *ABS*:00000001 __zero_reg__
C:\DOCUME~1\shawn\LOCALS~1\Temp/ccPDaOFg.s:19     .text:00000000 s_10us
C:\DOCUME~1\shawn\LOCALS~1\Temp/ccPDaOFg.s:53     .text:00000014 _delay_100ms
C:\DOCUME~1\shawn\LOCALS~1\Temp/ccPDaOFg.s:85     .text:00000030 ds1820_reset
                            *COM*:00000001 init_f
C:\DOCUME~1\shawn\LOCALS~1\Temp/ccPDaOFg.s:137    .text:00000066 ds1820_read_byte
C:\DOCUME~1\shawn\LOCALS~1\Temp/ccPDaOFg.s:208    .text:000000b4 ds1820_write_byte
C:\DOCUME~1\shawn\LOCALS~1\Temp/ccPDaOFg.s:273    .text:000000f6 ds1820_start
C:\DOCUME~1\shawn\LOCALS~1\Temp/ccPDaOFg.s:294    .text:00000108 ReadTemputer
C:\DOCUME~1\shawn\LOCALS~1\Temp/ccPDaOFg.s:6321   .data:00000000 RunParameter
C:\DOCUME~1\shawn\LOCALS~1\Temp/ccPDaOFg.s:460    .text:00000212 SaveRunParameter
C:\DOCUME~1\shawn\LOCALS~1\Temp/ccPDaOFg.s:631    .text:000002ba ReadRunParameter
C:\DOCUME~1\shawn\LOCALS~1\Temp/ccPDaOFg.s:821    .text:00000368 LED_SCREEN_INI
                            *COM*:00000001 display_cnt
                            *COM*:00000001 isSecondCountShow
                            *COM*:00000001 currentMoveLeft
                            *COM*:00000002 moveSpeedTimerCount
C:\DOCUME~1\shawn\LOCALS~1\Temp/ccPDaOFg.s:869    .text:00000398 writeCloclColon
                            *COM*:000001f0 display_buffer
C:\DOCUME~1\shawn\LOCALS~1\Temp/ccPDaOFg.s:974    .text:00000460 writeOneChinese
C:\DOCUME~1\shawn\LOCALS~1\Temp/ccPDaOFg.s:8793   .progmem.data:0000096a CHINESE
C:\DOCUME~1\shawn\LOCALS~1\Temp/ccPDaOFg.s:1043   .text:000004aa writeOneUnSCROLL
C:\DOCUME~1\shawn\LOCALS~1\Temp/ccPDaOFg.s:7627   .progmem.data:000004ec SCROLL
C:\DOCUME~1\shawn\LOCALS~1\Temp/ccPDaOFg.s:1096   .text:000004e2 writeOneSCROLL
C:\DOCUME~1\shawn\LOCALS~1\Temp/ccPDaOFg.s:8091   .progmem.data:000006b8 SCROLL_STYLE1
C:\DOCUME~1\shawn\LOCALS~1\Temp/ccPDaOFg.s:8325   .progmem.data:0000079e SCROLL_STYLE2
C:\DOCUME~1\shawn\LOCALS~1\Temp/ccPDaOFg.s:8559   .progmem.data:00000884 SCROLL_STYLE3
C:\DOCUME~1\shawn\LOCALS~1\Temp/ccPDaOFg.s:1250   .text:000005a4 wirteOneBigNumber
C:\DOCUME~1\shawn\LOCALS~1\Temp/ccPDaOFg.s:6355   .progmem.data:00000000 BIG_NUMBER_STYLE1
C:\DOCUME~1\shawn\LOCALS~1\Temp/ccPDaOFg.s:6779   .progmem.data:000001a4 BIG_NUMBER_STYLE2
C:\DOCUME~1\shawn\LOCALS~1\Temp/ccPDaOFg.s:7203   .progmem.data:00000348 BIG_NUMBER_STYLE3
C:\DOCUME~1\shawn\LOCALS~1\Temp/ccPDaOFg.s:1531   .text:000006f8 FreshDisplayBufferSecond
                            *COM*:00000014 display_buffer_second
C:\DOCUME~1\shawn\LOCALS~1\Temp/ccPDaOFg.s:1735   .text:000007e8 display
                            *COM*:00000008 display_buffer_temp
C:\DOCUME~1\shawn\LOCALS~1\Temp/ccPDaOFg.s:2628   .text:00000cba twi_init
C:\DOCUME~1\shawn\LOCALS~1\Temp/ccPDaOFg.s:2653   .text:00000cca i2cstart
C:\DOCUME~1\shawn\LOCALS~1\Temp/ccPDaOFg.s:2674   .text:00000cd6 i2cwt
C:\DOCUME~1\shawn\LOCALS~1\Temp/ccPDaOFg.s:2709   .text:00000cee i2crd
C:\DOCUME~1\shawn\LOCALS~1\Temp/ccPDaOFg.s:2734   .text:00000cfe i2cstop
C:\DOCUME~1\shawn\LOCALS~1\Temp/ccPDaOFg.s:2750   .text:00000d04 clear
C:\DOCUME~1\shawn\LOCALS~1\Temp/ccPDaOFg.s:2776   .text:00000d12 PCF8536_wt
                            *COM*:00000001 syserr
C:\DOCUME~1\shawn\LOCALS~1\Temp/ccPDaOFg.s:2840   .text:00000d56 PCF8536_wt_p
C:\DOCUME~1\shawn\LOCALS~1\Temp/ccPDaOFg.s:2922   .text:00000db2 PCF8536_rd
C:\DOCUME~1\shawn\LOCALS~1\Temp/ccPDaOFg.s:3038   .text:00000e3c PCF8563_init
                            *COM*:00000008 write_buff
                            *COM*:00000008 read_buff
C:\DOCUME~1\shawn\LOCALS~1\Temp/ccPDaOFg.s:3071   .text:00000e66 Updata_time
C:\DOCUME~1\shawn\LOCALS~1\Temp/ccPDaOFg.s:10366  .data:0000001d time
C:\DOCUME~1\shawn\LOCALS~1\Temp/ccPDaOFg.s:3167   .text:00000f1c Write_time
C:\DOCUME~1\shawn\LOCALS~1\Temp/ccPDaOFg.s:3246   .text:00000fba AjustTimerMonthly
C:\DOCUME~1\shawn\LOCALS~1\Temp/ccPDaOFg.s:3348   .text:0000105e Voice_Init
C:\DOCUME~1\shawn\LOCALS~1\Temp/ccPDaOFg.s:3369   .text:00001068 SPEEK_Time
                            *COM*:00000001 SPEEK_TIME_Status
                            *COM*:00000001 inVoice
                            *COM*:00000001 PLUSE_Number
                            *COM*:00000001 PLUSE_Status
                            *COM*:00000002 SPEEK_TIME_Delay
C:\DOCUME~1\shawn\LOCALS~1\Temp/ccPDaOFg.s:3973   .text:00001462 PLUSE_Out
                            *COM*:00000001 PLUSE_Delay
C:\DOCUME~1\shawn\LOCALS~1\Temp/ccPDaOFg.s:4092   .text:0000150c Key_Init
C:\DOCUME~1\shawn\LOCALS~1\Temp/ccPDaOFg.s:4121   .text:0000151e Key_Operation
                            *COM*:00000002 KEY_Time_count
C:\DOCUME~1\shawn\LOCALS~1\Temp/ccPDaOFg.s:4295   .text:000015f0 StartAD
C:\DOCUME~1\shawn\LOCALS~1\Temp/ccPDaOFg.s:4316   .text:000015fc GetDispalyLight
C:\DOCUME~1\shawn\LOCALS~1\Temp/ccPDaOFg.s:4374   .text:0000164a timer0_init
C:\DOCUME~1\shawn\LOCALS~1\Temp/ccPDaOFg.s:4412   .text:00001670 timer2_init
C:\DOCUME~1\shawn\LOCALS~1\Temp/ccPDaOFg.s:4442   .text:00001688 INFRARED_INI
C:\DOCUME~1\shawn\LOCALS~1\Temp/ccPDaOFg.s:4457   .text:0000168c fullScreen
C:\DOCUME~1\shawn\LOCALS~1\Temp/ccPDaOFg.s:4478   .text:0000169e clearScreen
C:\DOCUME~1\shawn\LOCALS~1\Temp/ccPDaOFg.s:4499   .text:000016ae init_devices
                            *COM*:00000002 ReadDS18B20Count
                            *COM*:00000002 AD_time_count
C:\DOCUME~1\shawn\LOCALS~1\Temp/ccPDaOFg.s:4555   .text:000016f2 Show_welcome
C:\DOCUME~1\shawn\LOCALS~1\Temp/ccPDaOFg.s:4635   .text:00001774 FreshDisplayBufferNormal
C:\DOCUME~1\shawn\LOCALS~1\Temp/ccPDaOFg.s:4761   .text:00001878 FreshDisplayBufferAjustProofTime
C:\DOCUME~1\shawn\LOCALS~1\Temp/ccPDaOFg.s:4825   .text:000018de FreshDisplayBufferChangeFont
C:\DOCUME~1\shawn\LOCALS~1\Temp/ccPDaOFg.s:4870   .text:00001920 FreshDisplayBufferAjustLightMode
C:\DOCUME~1\shawn\LOCALS~1\Temp/ccPDaOFg.s:4929   .text:00001978 FreshDisplayBufferAjustLight
C:\DOCUME~1\shawn\LOCALS~1\Temp/ccPDaOFg.s:4983   .text:000019ca FreshDisplayBufferVoiceMode
C:\DOCUME~1\shawn\LOCALS~1\Temp/ccPDaOFg.s:5060   .text:00001a3e FreshDisplayBufferAjustSpeed
C:\DOCUME~1\shawn\LOCALS~1\Temp/ccPDaOFg.s:5105   .text:00001a82 FreshDisplayBufferAjustWeek
C:\DOCUME~1\shawn\LOCALS~1\Temp/ccPDaOFg.s:5150   .text:00001ac6 FreshDisplayComment
C:\DOCUME~1\shawn\LOCALS~1\Temp/ccPDaOFg.s:5207   .text:00001b1c FreshDisplayBufferAjustMinute
C:\DOCUME~1\shawn\LOCALS~1\Temp/ccPDaOFg.s:5227   .text:00001b2c FreshDisplayBufferAjustHour
C:\DOCUME~1\shawn\LOCALS~1\Temp/ccPDaOFg.s:5247   .text:00001b3c FreshDisplayBufferAjustDay
C:\DOCUME~1\shawn\LOCALS~1\Temp/ccPDaOFg.s:5267   .text:00001b4c FreshDisplayBufferAjustMonth
C:\DOCUME~1\shawn\LOCALS~1\Temp/ccPDaOFg.s:5287   .text:00001b5c FreshDisplayBufferAjustYear
C:\DOCUME~1\shawn\LOCALS~1\Temp/ccPDaOFg.s:5307   .text:00001b6c Scan_Key
                            *COM*:00000002 KEY_Time_count_speed_color
C:\DOCUME~1\shawn\LOCALS~1\Temp/ccPDaOFg.s:5961   .text:00001ef6 main
C:\DOCUME~1\shawn\LOCALS~1\Temp/ccPDaOFg.s:6181   .text:0000205c __vector_4
C:\DOCUME~1\shawn\LOCALS~1\Temp/ccPDaOFg.s:10379  .bss:00000000 freshTimeCount

UNDEFINED SYMBOLS
__do_copy_data
__do_clear_bss
__udivmodhi4
__eeprom_write_byte_1C1D1E
__eeprom_read_byte_1C1D1E
__udivmodqi4
memset
