
LED3264.elf:     file format elf32-avr

Sections:
Idx Name          Size      VMA       LMA       File off  Algn
  0 .text         000030e8  00000000  00000000  00000074  2**1
                  CONTENTS, ALLOC, LOAD, READONLY, CODE
  1 .data         00000024  00800060  000030e8  0000315c  2**0
                  CONTENTS, ALLOC, LOAD, DATA
  2 .bss          00000225  00800084  0000310c  00003180  2**0
                  ALLOC
  3 .stab         00000378  00000000  00000000  00003180  2**2
                  CONTENTS, READONLY, DEBUGGING
  4 .stabstr      0000005f  00000000  00000000  000034f8  2**0
                  CONTENTS, READONLY, DEBUGGING
  5 .debug_aranges 00000020  00000000  00000000  00003557  2**0
                  CONTENTS, READONLY, DEBUGGING
  6 .debug_pubnames 00000724  00000000  00000000  00003577  2**0
                  CONTENTS, READONLY, DEBUGGING
  7 .debug_info   000016ee  00000000  00000000  00003c9b  2**0
                  CONTENTS, READONLY, DEBUGGING
  8 .debug_abbrev 00000325  00000000  00000000  00005389  2**0
                  CONTENTS, READONLY, DEBUGGING
  9 .debug_line   000022d3  00000000  00000000  000056ae  2**0
                  CONTENTS, READONLY, DEBUGGING
 10 .debug_frame  000003d0  00000000  00000000  00007984  2**2
                  CONTENTS, READONLY, DEBUGGING
 11 .debug_str    00000770  00000000  00000000  00007d54  2**0
                  CONTENTS, READONLY, DEBUGGING
 12 .debug_loc    00000c8c  00000000  00000000  000084c4  2**0
                  CONTENTS, READONLY, DEBUGGING
Disassembly of section .text:

00000000 <__vectors>:
       0:	0c 94 ef 07 	jmp	0xfde	; 0xfde <__ctors_end>
       4:	0c 94 0c 08 	jmp	0x1018	; 0x1018 <__bad_interrupt>
       8:	0c 94 0c 08 	jmp	0x1018	; 0x1018 <__bad_interrupt>
       c:	0c 94 0c 08 	jmp	0x1018	; 0x1018 <__bad_interrupt>
      10:	0c 94 ba 17 	jmp	0x2f74	; 0x2f74 <__vector_4>
      14:	0c 94 0c 08 	jmp	0x1018	; 0x1018 <__bad_interrupt>
      18:	0c 94 0c 08 	jmp	0x1018	; 0x1018 <__bad_interrupt>
      1c:	0c 94 0c 08 	jmp	0x1018	; 0x1018 <__bad_interrupt>
      20:	0c 94 0c 08 	jmp	0x1018	; 0x1018 <__bad_interrupt>
      24:	0c 94 0c 08 	jmp	0x1018	; 0x1018 <__bad_interrupt>
      28:	0c 94 0c 08 	jmp	0x1018	; 0x1018 <__bad_interrupt>
      2c:	0c 94 0c 08 	jmp	0x1018	; 0x1018 <__bad_interrupt>
      30:	0c 94 0c 08 	jmp	0x1018	; 0x1018 <__bad_interrupt>
      34:	0c 94 0c 08 	jmp	0x1018	; 0x1018 <__bad_interrupt>
      38:	0c 94 0c 08 	jmp	0x1018	; 0x1018 <__bad_interrupt>
      3c:	0c 94 0c 08 	jmp	0x1018	; 0x1018 <__bad_interrupt>
      40:	0c 94 0c 08 	jmp	0x1018	; 0x1018 <__bad_interrupt>
      44:	0c 94 0c 08 	jmp	0x1018	; 0x1018 <__bad_interrupt>
      48:	0c 94 0c 08 	jmp	0x1018	; 0x1018 <__bad_interrupt>
      4c:	0c 94 0c 08 	jmp	0x1018	; 0x1018 <__bad_interrupt>
      50:	0c 94 0c 08 	jmp	0x1018	; 0x1018 <__bad_interrupt>

00000054 <BIG_NUMBER_STYLE1>:
      54:	07 80 0f c0 3f e0 38 70 70 70 70 38 70 38 60 38     ....?.8pppp8p8`8
      64:	e0 38 e0 38 e0 38 e0 38 e0 38 60 38 70 38 70 30     .8.8.8.8.8`8p8p0
      74:	70 70 3c e0 1f e0 0f 80 06 00 03 00 1f 00 ff 00     pp<.............
      84:	ff 00 c7 00 07 00 07 00 07 00 07 00 07 00 07 00     ................
      94:	07 00 07 00 07 00 07 00 07 00 07 00 07 00 07 00     ................
      a4:	7f f8 7f f8 0f c0 3f f0 3f f8 30 38 00 38 00 18     ......?.?.08.8..
      b4:	00 18 00 38 00 38 00 38 00 70 00 e0 01 c0 03 80     ...8.8.8.p......
      c4:	07 00 0e 00 1c 00 38 00 70 00 7f f8 7f f8 1f 80     ......8.p.......
      d4:	3f e0 3f f0 20 78 00 38 00 38 00 70 00 e0 1f c0     ?.?. x.8.8.p....
      e4:	1f c0 1f f0 00 38 00 38 00 38 00 38 00 38 00 38     .....8.8.8.8.8.8
      f4:	60 f0 7f f0 7f c0 0e 00 01 e0 01 e0 03 e0 03 e0     `...............
     104:	06 e0 0e e0 1c e0 18 e0 30 e0 70 e0 60 e0 e0 e0     ........0.p.`...
     114:	c0 e0 ff f8 ff f8 ff f8 00 e0 00 e0 00 e0 00 e0     ................
     124:	00 e0 3f f8 3f f8 3f f8 38 00 38 00 38 00 38 00     ..?.?.?.8.8.8.8.
     134:	3f 80 3f e0 3f f0 00 78 00 38 00 38 00 18 00 18     ?.?.?..x.8.8....
     144:	00 18 00 38 70 f0 7f f0 3f c0 0e 00 03 c0 0f e0     ...8p...?.......
     154:	1f f0 3c 00 70 00 70 00 e0 00 e7 c0 ff e0 ff f0     ..<.p.p.........
     164:	f0 78 e0 38 e0 38 e0 38 e0 38 e0 38 70 78 78 70     .x.8.8.8.8.8pxxp
     174:	3f e0 1f c0 07 00 ff f8 ff f8 ff f0 00 70 00 70     ?............p.p
     184:	00 60 00 e0 00 c0 01 c0 01 c0 03 80 03 80 03 00     .`..............
     194:	07 00 07 00 0e 00 0e 00 1c 00 1c 00 1c 00 38 00     ..............8.
     1a4:	0f 80 3f e0 7f f0 70 70 e0 70 e0 70 70 70 79 e0     ..?...pp.p.pppy.
     1b4:	1f c0 1f 80 3f e0 70 f0 e0 70 e0 38 c0 38 e0 38     ....?.p..p.8.8.8
     1c4:	e0 38 f0 f0 7f f0 3f c0 06 00 1f 80 3f c0 7f e0     .8....?.....?...
     1d4:	e0 70 e0 70 c0 30 c0 38 e0 38 e0 78 f0 f8 7f f8     .p.p.0.8.8.x....
     1e4:	3f b8 00 30 00 30 00 70 00 70 00 e0 43 e0 7f c0     ?..0.0.p.p..C...
     1f4:	7f 00 1c 00                                         ....

000001f8 <BIG_NUMBER_STYLE2>:
     1f8:	ff f8 ff f8 ff f8 e0 38 e0 38 e0 38 e0 38 e0 38     .......8.8.8.8.8
     208:	e0 38 e0 38 e0 38 e0 38 e0 38 e0 38 e0 38 e0 38     .8.8.8.8.8.8.8.8
     218:	e0 38 e0 38 ff f8 ff f8 ff f8 07 00 07 00 07 00     .8.8............
     228:	07 00 07 00 07 00 07 00 07 00 07 00 07 00 07 00     ................
     238:	07 00 07 00 07 00 07 00 07 00 07 00 07 00 07 00     ................
     248:	07 00 07 00 ff f8 ff f8 ff f8 00 38 00 38 00 38     ...........8.8.8
     258:	00 38 00 38 00 38 ff f8 ff f8 ff f8 e0 00 e0 00     .8.8.8..........
     268:	e0 00 e0 00 e0 00 e0 00 ff f8 ff f8 ff f8 ff f8     ................
     278:	ff f8 ff f8 00 38 00 38 00 38 00 38 00 38 00 38     .....8.8.8.8.8.8
     288:	ff f8 ff f8 ff f8 00 38 00 38 00 38 00 38 00 38     .......8.8.8.8.8
     298:	00 38 ff f8 ff f8 ff f8 e0 38 e0 38 e0 38 e0 38     .8.......8.8.8.8
     2a8:	e0 38 e0 38 e0 38 e0 38 e0 38 ff f8 ff f8 ff f8     .8.8.8.8.8......
     2b8:	00 38 00 38 00 38 00 38 00 38 00 38 00 38 00 38     .8.8.8.8.8.8.8.8
     2c8:	00 38 ff f8 ff f8 ff f8 e0 00 e0 00 e0 00 e0 00     .8..............
     2d8:	e0 00 e0 00 ff f8 ff f8 ff f8 00 38 00 38 00 38     ...........8.8.8
     2e8:	00 38 00 38 00 38 ff f8 ff f8 ff f8 ff f8 ff f8     .8.8.8..........
     2f8:	ff f8 e0 00 e0 00 e0 00 e0 00 e0 00 e0 00 ff f8     ................
     308:	ff f8 ff f8 e0 38 e0 38 e0 38 e0 38 e0 38 e0 38     .....8.8.8.8.8.8
     318:	ff f8 ff f8 ff f8 ff f8 ff f8 ff f8 00 38 00 38     .............8.8
     328:	00 38 00 38 00 38 00 38 00 38 00 38 00 38 00 38     .8.8.8.8.8.8.8.8
     338:	00 38 00 38 00 38 00 38 00 38 00 38 00 38 00 38     .8.8.8.8.8.8.8.8
     348:	ff f8 ff f8 ff f8 e0 38 e0 38 e0 38 e0 38 e0 38     .......8.8.8.8.8
     358:	e0 38 ff f8 ff f8 ff f8 e0 38 e0 38 e0 38 e0 38     .8.......8.8.8.8
     368:	e0 38 e0 38 ff f8 ff f8 ff f8 ff f8 ff f8 ff f8     .8.8............
     378:	e0 38 e0 38 e0 38 e0 38 e0 38 e0 38 ff f8 ff f8     .8.8.8.8.8.8....
     388:	ff f8 00 38 00 38 00 38 00 38 00 38 00 38 ff f8     ...8.8.8.8.8.8..
     398:	ff f8 ff f8                                         ....

0000039c <BIG_NUMBER_STYLE3>:
     39c:	3f e0 7f f0 ff f8 e0 38 e0 38 e0 38 e0 38 e0 38     ?......8.8.8.8.8
     3ac:	e0 38 e0 38 e0 38 e0 38 e0 38 e0 38 e0 38 e0 38     .8.8.8.8.8.8.8.8
     3bc:	e0 38 e0 38 ff f8 7f f0 3f e0 07 00 0f 00 1f 00     .8.8....?.......
     3cc:	1f 00 1f 00 07 00 07 00 07 00 07 00 07 00 07 00     ................
     3dc:	07 00 07 00 07 00 07 00 07 00 07 00 07 00 ff f8     ................
     3ec:	ff f8 ff f8 3f e0 7f f0 ff f8 e0 38 00 38 00 38     ....?......8.8.8
     3fc:	00 38 00 38 00 38 3f f8 7f f0 ff e0 e0 00 e0 00     .8.8.8?.........
     40c:	e0 00 e0 00 e0 00 e0 00 ff f8 ff f8 ff f8 3f e0     ..............?.
     41c:	7f f0 ff f8 e0 38 00 38 00 38 00 38 00 38 00 38     .....8.8.8.8.8.8
     42c:	1f f0 1f e0 1f f0 00 38 00 38 00 38 00 38 00 38     .......8.8.8.8.8
     43c:	e0 38 ff f8 7f f0 3f e0 e1 c0 e1 c0 e1 c0 e1 c0     .8....?.........
     44c:	e1 c0 e1 c0 e1 c0 e1 c0 e1 c0 ff f8 ff f8 ff f8     ................
     45c:	01 c0 01 c0 01 c0 01 c0 01 c0 01 c0 01 c0 01 c0     ................
     46c:	01 c0 ff f8 ff f8 ff f8 e0 00 e0 00 e0 00 e0 00     ................
     47c:	e0 00 e0 00 ff e0 ff f0 ff f8 00 38 00 38 00 38     ...........8.8.8
     48c:	00 38 00 38 e0 38 ff f8 7f f0 3f e0 e0 00 e0 00     .8.8.8....?.....
     49c:	e0 00 e0 00 e0 00 e0 00 e0 00 e0 00 e0 00 ff e0     ................
     4ac:	ff f0 ff f8 e0 38 e0 38 e0 38 e0 38 e0 38 e0 38     .....8.8.8.8.8.8
     4bc:	ff f8 7f f0 3f e0 ff f8 ff f8 ff f8 00 38 00 38     ....?........8.8
     4cc:	00 38 00 38 00 38 00 38 00 38 00 38 00 38 00 38     .8.8.8.8.8.8.8.8
     4dc:	00 38 00 38 00 38 00 38 00 38 00 38 00 38 00 38     .8.8.8.8.8.8.8.8
     4ec:	3f e0 7f f0 ff f8 e0 38 e0 38 e0 38 e0 38 e0 38     ?......8.8.8.8.8
     4fc:	70 70 3f e0 1f c0 3f e0 70 70 e0 38 e0 38 e0 38     pp?...?.pp.8.8.8
     50c:	e0 38 e0 38 ff f8 7f f0 3f e0 3f e0 7f f0 ff f8     .8.8....?.?.....
     51c:	e0 38 e0 38 e0 38 e0 38 e0 38 e0 38 ff f8 7f f8     .8.8.8.8.8.8....
     52c:	3f f8 00 38 00 38 00 38 00 38 00 38 00 38 00 38     ?..8.8.8.8.8.8.8
     53c:	00 38 00 38                                         .8.8

00000540 <SCROLL>:
     540:	7c 82 82 82 82 82 82 82 82 7c 10 30 50 10 10 10     |........|.0P...
     550:	10 10 10 fe 38 44 82 82 04 08 10 20 40 fe 7c 82     ....8D..... @.|.
     560:	02 02 3c 02 02 82 82 7c 06 0c 14 24 44 84 fe 04     ..<....|...$D...
     570:	04 04 fe 80 80 fc 02 02 02 82 82 7c 7c 82 80 80     ...........||...
     580:	fc 82 82 82 82 7c 7e 82 02 04 08 10 20 20 20 20     .....|~.....    
     590:	7c 82 82 82 7c 82 82 82 82 7c 7c 82 82 82 82 7e     |...|....||....~
     5a0:	02 02 82 7c 40 7e 88 7e 48 48 fe 08 08 08 7e 42     ...|@~.~HH....~B
     5b0:	42 7e 42 42 7e 42 46 82 7e 92 ba 92 ba 82 ba aa     B~BB~BF.~.......
     5c0:	ba 86 08 7e 54 7e 5c 40 5c 54 48 96 00 00 00 00     ...~T~\@\TH.....
     5d0:	fe 00 00 00 00 00 00 00 00 7e 00 00 00 ff 00 00     .........~......
     5e0:	00 7e 00 00 00 3c 00 00 00 ff ff a9 a9 a9 a9 a9     .~...<..........
     5f0:	c7 81 ff 81 7e 10 10 10 7c 14 14 14 14 ff 30 18     ....~...|.....0.
     600:	08 ff 00 24 24 66 66 c2 7f 41 41 41 7f 41 41 41     ...$$ff..AAA.AAA
     610:	41 7f 00 00 00 00 00 00 00 00 18 18 00 00 00 00     A...............
     620:	00 00 00 00 00 00 02 e2 bf a2 ea aa a2 aa e6 02     ................
     630:	38 24 24 42 bd 24 24 24 44 8c 10 ff 3c 24 3c ff     8$$B.$$$D...<$<.
     640:	81 3c 24 47 20 3e 40 be 2a ff 32 7e 02 04 40 40     .<$G >@.*.2~..@@
     650:	40 f7 55 55 55 57 50 b0 5c 14 d4 76 40 5c 54 54     @.UUUWP.\..v@\TT
     660:	68 56 7e 5a 7e ff 7e 42 7e 7e 42 ff 00 00 00 00     hV~Z~.~B~~B.....
     670:	00 60 60 00 60 60 10 10 7e 42 7e 42 7e 42 7e 42     .``.``..~B~B~B~B
     680:	04 7e 08 7e 08 ff 08 08 28 18 02 02 bf 62 3a 22     .~.~....(....b:"
     690:	7a bb 22 45 48 48 7e d4 62 54 d4 48 54 62 10 fe     z."EHH~.bT.HTb..
     6a0:	92 fe 92 92 fe 10 12 1e fe 04 08 10 fe 10 10 10     ................
     6b0:	50 30 fe 40 50 7e 52 52 52 52 52 a4 00 00 00 00     P0.@P~RRRRR.....
     6c0:	7e 7e 00 00 00 00 7e 41 41 41 7e 41 41 41 41 7e     ~~....~AAA~AAAA~
     6d0:	41 41 22 14 08 14 22 22 41 41 41 41 41 22 14 08     AA"...""AAAAA"..
     6e0:	08 08 08 08 fe 82 82 82 fe 82 82 82 82 fe 84 5f     ..............._
     6f0:	c4 5f 55 5f 44 4e 55 bf 08 ff 81 7e 04 ff 08 08     ._U_DNU....~....
     700:	38 08 24 44 ff 4e 55 55 5f 65 44 44                 8.$D.NUU_eDD

0000070c <SCROLL_STYLE1>:
     70c:	7c 82 82 82 82 82 82 82 82 7c 10 30 50 10 10 10     |........|.0P...
     71c:	10 10 10 fe 38 44 82 82 04 08 10 20 40 fe 7c 82     ....8D..... @.|.
     72c:	02 02 3c 02 02 82 82 7c 06 0c 14 24 44 84 fe 04     ..<....|...$D...
     73c:	04 04 fe 80 80 fc 02 02 02 82 82 7c 7c 82 80 80     ...........||...
     74c:	fc 82 82 82 82 7c 7e 82 02 04 08 10 20 20 20 20     .....|~.....    
     75c:	7c 82 82 82 7c 82 82 82 82 7c 7c 82 82 82 82 7e     |...|....||....~
     76c:	02 02 82 7c 40 7e 88 7e 48 48 fe 08 08 08 7e 42     ...|@~.~HH....~B
     77c:	42 7e 42 42 7e 42 46 82 7e 92 ba 92 ba 82 ba aa     B~BB~BF.~.......
     78c:	ba 86 08 7e 54 7e 5c 40 5c 54 48 96 00 00 00 00     ...~T~\@\TH.....
     79c:	fe 00 00 00 00 00 00 00 00 7e 00 00 00 ff 00 00     .........~......
     7ac:	00 7e 00 00 00 3c 00 00 00 ff ff a9 a9 a9 a9 a9     .~...<..........
     7bc:	c7 81 ff 81 7e 10 10 10 7c 14 14 14 14 ff 30 18     ....~...|.....0.
     7cc:	08 ff 00 24 24 66 66 c2 7f 41 41 41 7f 41 41 41     ...$$ff..AAA.AAA
     7dc:	41 7f 00 00 00 00 00 00 00 00 18 18 00 00 00 00     A...............
     7ec:	00 00 00 00 00 00                                   ......

000007f2 <SCROLL_STYLE2>:
     7f2:	fe 82 82 82 82 82 82 82 82 fe 10 10 10 10 10 10     ................
     802:	10 10 10 10 fe 02 02 02 02 fe 80 80 80 fe fe 02     ................
     812:	02 02 02 fe 02 02 02 fe 82 82 82 82 82 fe 02 02     ................
     822:	02 02 fe 80 80 80 80 fe 02 02 02 fe fe 80 80 80     ................
     832:	80 fe 82 82 82 fe fe 02 02 02 02 02 02 02 02 02     ................
     842:	fe 82 82 82 82 fe 82 82 82 fe fe 82 82 82 82 fe     ................
     852:	02 02 02 fe 80 fe 88 7e 48 48 fe 08 08 08 7e 42     .......~HH....~B
     862:	42 7e 42 42 7e 42 42 46 fe 92 ba 92 ba 82 ba aa     B~BB~BBF........
     872:	ba 86 df d0 10 10 10 10 10 10 10 1f 00 00 00 00     ................
     882:	fe 00 00 00 00 00 00 7c 00 00 00 00 00 00 00 fe     .......|........
     892:	fe 00 00 00 7c 00 00 00 00 fe fe aa aa aa aa ee     ....|...........
     8a2:	82 82 82 fe fe 20 20 20 fc 24 24 24 24 fe 20 10     .....   .$$$$. .
     8b2:	10 fe 44 44 44 44 44 44 7e 42 42 42 7e 42 42 42     ..DDDDDD~BBB~BBB
     8c2:	42 7e 00 00 00 00 00 00 00 00 18 18 00 00 00 00     B~..............
     8d2:	00 00 00 00 00 00                                   ......

000008d8 <SCROLL_STYLE3>:
     8d8:	7c 82 82 82 82 82 82 82 82 7c 10 30 50 10 10 10     |........|.0P...
     8e8:	10 10 10 fe 7c 82 02 02 02 7c 80 80 80 fe 7c 82     ....|....|....|.
     8f8:	02 02 02 7c 02 02 82 7c 88 88 88 88 88 fe 08 08     ...|...|........
     908:	08 08 fe 80 80 80 80 fc 02 02 82 7c 80 80 80 80     ...........|....
     918:	80 fc 82 82 82 7c fe 02 02 02 02 02 02 02 02 02     .....|..........
     928:	7c 82 82 82 82 7c 82 82 82 7c 7c 82 82 82 82 7e     |....|...||....~
     938:	02 02 02 02 40 7e 88 7e 48 48 fe 08 08 08 7e 42     ....@~.~HH....~B
     948:	42 7e 42 42 7e 42 46 82 7e 92 ba 92 ba 82 ba aa     B~BB~BF.~.......
     958:	ba 86 bc 42 40 40 40 40 40 40 42 3c 00 00 00 00     ...B@@@@@@B<....
     968:	fe 00 00 00 00 00 00 00 00 7e 00 00 00 ff 00 00     .........~......
     978:	00 7e 00 00 00 3c 00 00 00 ff ff a9 a9 a9 a9 a9     .~...<..........
     988:	c7 81 ff 81 7e 10 10 10 7c 14 14 14 14 ff 20 10     ....~...|..... .
     998:	fe 00 44 44 44 44 44 82 7e 42 42 42 7e 42 42 42     ..DDDDD.~BBB~BBB
     9a8:	42 7e 00 00 00 00 00 00 00 00 18 18 00 00 00 00     B~..............
     9b8:	00 00 00 00 00 00                                   ......

000009be <CHINESE>:
     9be:	08 40 49 40 2a 40 08 84 ff fe 19 08 2c 88 4a 88     .@I@*@......,.J.
     9ce:	10 88 fe 90 22 50 22 20 14 50 18 88 25 0e 42 04     ...."P" .P..%.B.
     9de:	02 00 01 00 3f fc 20 04 40 08 1f e0 00 40 00 80     ....?. .@....@..
     9ee:	01 04 ff fe 01 00 01 00 01 00 01 00 05 00 02 00     ................
     9fe:	00 08 04 08 7e 08 44 08 47 fe 44 08 44 08 7c 88     ....~.D.G.D.D.|.
     a0e:	44 48 44 48 44 08 44 08 7c 08 44 48 00 28 00 10     DHDHD.D.|.DH.(..
     a1e:	10 20 10 20 10 20 1c 24 21 fe 21 24 7d 24 91 24     . . . .$!.!$}$.$
     a2e:	11 24 fd fc 11 24 10 20 14 20 18 20 10 20 00 20     .$...$. . . . . 
     a3e:	00 04 7f fe 44 08 48 08 48 28 51 f8 49 28 49 28     ....D.H.H(Q.I(I(
     a4e:	45 28 45 28 45 28 69 e8 51 28 40 08 40 28 40 10     E(E(E(i.Q(@.@(@.
     a5e:	02 00 02 00 02 08 ff fc 04 00 09 00 11 08 3f fc     ..............?.
     a6e:	51 08 91 08 11 08 11 08 11 28 11 10 01 00 01 00     Q........(......
     a7e:	02 00 02 00 02 10 7f f8 42 10 42 10 7f f0 42 10     ........B.B...B.
     a8e:	42 10 7f f0 42 10 02 00 02 04 02 04 01 fc 00 00     B...B...........
     a9e:	00 00 3f f0 00 10 00 20 00 40 01 80 01 04 ff fe     ..?.... .@......
     aae:	01 00 01 00 01 00 01 00 01 00 01 00 05 00 02 00     ................
     abe:	01 f0 21 10 11 10 11 10 01 10 02 0e f4 00 13 f8     ..!.............
     ace:	11 08 11 10 10 90 10 a0 14 40 18 b0 13 0e 0c 04     .........@......
     ade:	3f f8 24 48 3f f8 01 00 7f fc 01 00 1f f0 10 10     ?.$H?...........
     aee:	1f f0 10 10 1f f0 10 10 1f f0 10 14 ff fe 00 00     ................
     afe:	00 40 40 44 37 fe 10 40 07 fc 04 44 f4 44 17 fc     .@@D7..@...D.D..
     b0e:	14 44 10 e0 11 58 12 48 14 40 28 46 47 fc 00 00     .D...X.H.@(FG...
     b1e:	01 00 00 84 3f fe 22 20 22 28 3f fc 22 20 23 e0     ....?." "(?." #.
     b2e:	20 00 2f f0 22 20 21 40 20 80 43 60 8c 1e 30 04      ./." !@ .C`..0.
     b3e:	01 08 7f fc 00 10 1f f8 10 10 10 10 1f f0 00 00     ................
     b4e:	7f fe 40 22 8f f4 08 20 08 20 08 22 10 22 60 1e     ..@"... . ."."`.
     b5e:	00 08 04 08 7e 08 44 08 47 fe 44 08 44 08 7c 88     ....~.D.G.D.D.|.
     b6e:	44 48 44 48 44 08 44 08 7c 08 44 48 00 28 00 10     DHDHD.D.|.DH.(..
     b7e:	20 04 1b fe 08 04 40 24 4f f4 48 24 48 24 48 24      .....@$O.H$H$H$
     b8e:	4f e4 48 24 48 24 48 24 4f e4 48 24 40 14 40 08     O.H$H$H$O.H$@.@.
     b9e:	08 00 08 08 1f fc 11 00 21 00 41 10 1f f8 11 00     ........!.A.....
     bae:	11 00 11 04 ff fe 01 00 01 00 01 00 01 00 01 00     ................
     bbe:	00 10 0f f8 08 10 08 10 08 10 0f f0 08 10 08 10     ................
     bce:	08 10 0f f0 08 10 08 10 10 10 10 10 20 50 40 20     ............ P@ 
     bde:	00 10 1f f8 10 10 10 10 10 10 10 10 10 10 1f f0     ................
     bee:	10 10 10 10 10 10 10 10 10 10 1f f0 10 10 00 00     ................
     bfe:	00 80 04 80 04 40 08 40 08 20 10 10 20 08 4f ee     .....@.@. .. .O.
     c0e:	84 24 04 20 04 20 04 20 04 20 08 20 11 40 20 80     .$. . . . . .@ .
     c1e:	04 20 0e 20 78 20 08 20 08 a8 fe a6 08 a2 1d 20     . . x . ....... 
     c2e:	1a 24 28 24 28 28 48 10 88 20 08 40 08 80 0b 00     .$($((H.. .@....
     c3e:	08 20 09 20 09 20 11 10 12 10 32 0e 54 04 9b f0     . . . ....2.T...
     c4e:	11 10 11 10 11 10 11 10 12 10 12 10 14 a0 10 40     ...............@
     c5e:	00 08 3f fc 20 08 3f f8 20 08 3f f8 01 00 21 08     ..?. .?. .?...!.
     c6e:	3f fc 21 00 41 10 bf f8 01 00 01 04 ff fe 00 00     ?.!.A...........
     c7e:	22 04 22 7e 22 44 7f 44 22 44 3e 7c 22 44 3e 44     "."~"D.D"D>|"D>D
     c8e:	22 44 22 7c ff c4 00 44 24 44 22 84 41 14 82 08     "D"|...D$D".A...
     c9e:	00 08 3f fc 21 08 21 48 2f e8 21 08 21 28 3f f8     ..?.!.!H/.!.!(?.
     cae:	20 48 27 e8 24 48 24 48 24 48 47 c8 84 28 00 10      H'.$H$H$HG..(..
     cbe:	01 00 02 00 04 10 1f f8 10 10 10 10 1f f0 10 10     ................
     cce:	10 10 10 10 1f f0 10 10 10 10 10 10 1f f0 10 10     ................
     cde:	00 10 00 f8 7f 00 01 00 01 10 3f f8 01 00 01 00     ..........?.....
     cee:	01 04 ff fe 01 00 01 00 01 00 01 00 05 00 02 00     ................
     cfe:	00 40 08 40 7c 40 00 44 05 fe fe 44 10 44 10 44     .@.@|@.D...D.D.D
     d0e:	20 44 24 44 42 84 fe 84 41 04 01 04 02 28 04 10      D$DB...A....(..
     d1e:	02 00 01 00 3f fc 20 04 40 08 1f e0 00 40 00 80     ....?. .@....@..
     d2e:	01 04 ff fe 01 00 01 00 01 00 01 00 05 00 02 00     ................
     d3e:	10 80 10 80 10 80 20 88 2f fc 62 a0 a2 a0 24 90     ...... ./.b...$.
     d4e:	24 90 28 88 2b ee 30 84 20 80 20 80 20 80 20 80     $.(.+.0. . . . .
     d5e:	10 40 10 20 10 04 13 fe fc 00 10 88 31 06 3a 8a     .@. ........1.:.
     d6e:	54 88 50 50 90 50 10 20 10 50 10 88 13 0e 1c 04     T.PP.P. .P......
     d7e:	10 00 10 00 10 04 12 7e ff 44 12 44 12 44 12 44     .......~.D.D.D.D
     d8e:	12 44 22 44 22 44 22 44 22 44 4a 7c 84 44 00 00     .D"D"D"D"DJ|.D..
     d9e:	00 10 40 18 30 14 17 fe 04 10 04 10 0d d0 14 14     ..@.0...........
     dae:	25 d4 e5 54 25 54 25 58 25 d0 25 2a 08 46 10 82     %..T%T%X%.%*.F..
     dbe:	10 00 10 08 1f fc 20 10 5f f8 12 10 11 10 10 14     ...... ._.......
     dce:	ff fe 12 10 21 10 20 10 3f f8 00 20 00 a0 00 40     ....!. .?.. ...@
     dde:	10 04 09 fe 7f 20 22 44 14 fe 7f 84 44 94 48 94     ..... "D....D.H.
     dee:	52 94 44 a4 48 a4 52 a4 44 a4 48 48 90 86 21 02     R.D.H.R.D.HH..!.
     dfe:	04 00 04 00 07 f0 08 20 08 48 1f fc 28 88 48 88     ....... .H..(.H.
     e0e:	08 88 0f f8 08 08 08 00 08 02 08 02 07 fe 00 00     ................
     e1e:	10 10 08 20 04 48 3f fc 21 08 21 08 3f f8 21 08     ... .H?.!.!.?.!.
     e2e:	21 08 3f f8 21 00 01 04 ff fe 01 00 01 00 01 00     !.?.!...........
     e3e:	10 00 10 08 23 fc 20 20 44 20 f8 20 10 20 20 20     ....#.  D . .   
     e4e:	40 20 fc 20 40 20 00 20 1c 20 e0 24 47 fe 00 00     @ . @ . . .$G...
     e5e:	10 08 13 fc 20 08 21 f8 44 08 ff fe 10 40 22 44     .... .!.D....@"D
     e6e:	41 4c f9 50 00 e0 01 50 1a 48 e4 4e 41 44 00 80     AL.P...P.H.NAD..
     e7e:	04 40 04 50 3f f8 04 40 04 44 ff fe 01 10 1f f8     .@.P?..@.D......
     e8e:	11 10 1f f0 11 10 1f f0 10 00 04 60 18 18 60 04     ...........`..`.
     e9e:	02 00 01 04 3f fe 20 00 20 70 2f 80 28 80 28 88     ....?. . p/.(.(.
     eae:	2f fc 28 80 28 80 28 40 4a 40 4d a4 88 94 00 0c     /.(.(.(@J@M.....
     ebe:	00 08 4f fc 21 00 21 10 07 f8 02 10 e2 14 3f fe     ..O.!.!.......?.
     ece:	20 00 20 08 27 fc 24 08 2c 08 34 08 27 f8 04 08      . .'.$.,.4.'...
     ede:	02 00 01 10 3f f8 08 20 04 20 04 44 ff fe 00 10     ....?.. . .D....
     eee:	1f f8 10 10 10 10 1f f0 10 10 10 10 1f f0 10 10     ................
     efe:	10 08 11 fc 11 08 11 08 fd 28 11 10 15 00 19 f8     .........(......
     f0e:	31 08 d1 90 11 50 11 20 11 50 11 8e 51 04 21 00     1....P. .P..Q.!.
     f1e:	00 08 7f fc 01 00 01 00 01 00 01 00 11 10 11 f8     ................
     f2e:	11 00 11 00 11 00 11 00 11 00 11 04 ff fe 00 00     ................
     f3e:	01 00 11 10 09 20 7f fe 40 02 8f e4 08 20 0f e0     ..... ..@.... ..
     f4e:	01 10 1f f8 11 10 11 10 11 10 11 50 01 20 01 00     ...........P. ..
     f5e:	10 00 10 00 10 04 1f fe 24 44 44 44 84 44 08 44     ........$DDD.D.D
     f6e:	08 84 08 84 10 84 11 04 21 04 42 04 04 28 08 10     ........!.B..(..
     f7e:	10 40 10 50 10 48 10 40 fc 44 13 fe 14 40 18 60     .@.P.H.@.D...@.`
     f8e:	30 a0 d0 a0 10 a0 10 a0 11 22 11 22 52 1e 24 00     0........"."R.$.
     f9e:	10 10 08 18 04 20 04 48 7f fc 01 00 01 00 01 04     ..... .H........
     fae:	ff fe 01 00 02 80 02 80 04 40 08 30 30 0e c0 04     .........@.00...
     fbe:	20 04 1b fe 08 04 40 84 40 a4 5f f4 40 84 41 84      .....@.@._.@.A.
     fce:	42 84 44 84 48 84 50 84 40 84 42 84 41 14 40 08     B.D.H.P.@.B.A.@.

00000fde <__ctors_end>:
     fde:	11 24       	eor	r1, r1
     fe0:	1f be       	out	0x3f, r1	; 63
     fe2:	cf e5       	ldi	r28, 0x5F	; 95
     fe4:	d4 e0       	ldi	r29, 0x04	; 4
     fe6:	de bf       	out	0x3e, r29	; 62
     fe8:	cd bf       	out	0x3d, r28	; 61

00000fea <__do_copy_data>:
     fea:	10 e0       	ldi	r17, 0x00	; 0
     fec:	a0 e6       	ldi	r26, 0x60	; 96
     fee:	b0 e0       	ldi	r27, 0x00	; 0
     ff0:	e8 ee       	ldi	r30, 0xE8	; 232
     ff2:	f0 e3       	ldi	r31, 0x30	; 48
     ff4:	02 c0       	rjmp	.+4      	; 0xffa <.do_copy_data_start>

00000ff6 <.do_copy_data_loop>:
     ff6:	05 90       	lpm	r0, Z+
     ff8:	0d 92       	st	X+, r0

00000ffa <.do_copy_data_start>:
     ffa:	a4 38       	cpi	r26, 0x84	; 132
     ffc:	b1 07       	cpc	r27, r17
     ffe:	d9 f7       	brne	.-10     	; 0xff6 <.do_copy_data_loop>

00001000 <__do_clear_bss>:
    1000:	12 e0       	ldi	r17, 0x02	; 2
    1002:	a4 e8       	ldi	r26, 0x84	; 132
    1004:	b0 e0       	ldi	r27, 0x00	; 0
    1006:	01 c0       	rjmp	.+2      	; 0x100a <.do_clear_bss_start>

00001008 <.do_clear_bss_loop>:
    1008:	1d 92       	st	X+, r1

0000100a <.do_clear_bss_start>:
    100a:	a9 3a       	cpi	r26, 0xA9	; 169
    100c:	b1 07       	cpc	r27, r17
    100e:	e1 f7       	brne	.-8      	; 0x1008 <.do_clear_bss_loop>
    1010:	0e 94 23 17 	call	0x2e46	; 0x2e46 <main>
    1014:	0c 94 73 18 	jmp	0x30e6	; 0x30e6 <_exit>

00001018 <__bad_interrupt>:
    1018:	0c 94 00 00 	jmp	0	; 0x0 <__vectors>

0000101c <s_10us>:
    101c:	06 c0       	rjmp	.+12     	; 0x102a <s_10us+0xe>
    101e:	20 e0       	ldi	r18, 0x00	; 0
    1020:	00 00       	nop
    1022:	2f 5f       	subi	r18, 0xFF	; 255
    1024:	29 30       	cpi	r18, 0x09	; 9
    1026:	e1 f7       	brne	.-8      	; 0x1020 <s_10us+0x4>
    1028:	01 97       	sbiw	r24, 0x01	; 1
    102a:	00 97       	sbiw	r24, 0x00	; 0
    102c:	c1 f7       	brne	.-16     	; 0x101e <s_10us+0x2>
    102e:	08 95       	ret

00001030 <_delay_100ms>:
    1030:	cf 93       	push	r28
    1032:	df 93       	push	r29
    1034:	ec 01       	movw	r28, r24
    1036:	05 c0       	rjmp	.+10     	; 0x1042 <_delay_100ms+0x12>
    1038:	80 e1       	ldi	r24, 0x10	; 16
    103a:	97 e2       	ldi	r25, 0x27	; 39
    103c:	0e 94 0e 08 	call	0x101c	; 0x101c <s_10us>
    1040:	21 97       	sbiw	r28, 0x01	; 1
    1042:	20 97       	sbiw	r28, 0x00	; 0
    1044:	c9 f7       	brne	.-14     	; 0x1038 <_delay_100ms+0x8>
    1046:	df 91       	pop	r29
    1048:	cf 91       	pop	r28
    104a:	08 95       	ret

0000104c <ds1820_reset>:
    104c:	8f b7       	in	r24, 0x3f	; 63
    104e:	80 93 91 00 	sts	0x0091, r24
    1052:	f8 94       	cli
    1054:	8f 9a       	sbi	0x11, 7	; 17
    1056:	97 98       	cbi	0x12, 7	; 18
    1058:	8c e3       	ldi	r24, 0x3C	; 60
    105a:	90 e0       	ldi	r25, 0x00	; 0
    105c:	0e 94 0e 08 	call	0x101c	; 0x101c <s_10us>
    1060:	97 9a       	sbi	0x12, 7	; 18
    1062:	8f 98       	cbi	0x11, 7	; 17
    1064:	85 e0       	ldi	r24, 0x05	; 5
    1066:	90 e0       	ldi	r25, 0x00	; 0
    1068:	0e 94 0e 08 	call	0x101c	; 0x101c <s_10us>
    106c:	80 b3       	in	r24, 0x10	; 16
    106e:	82 e3       	ldi	r24, 0x32	; 50
    1070:	90 e0       	ldi	r25, 0x00	; 0
    1072:	0e 94 0e 08 	call	0x101c	; 0x101c <s_10us>
    1076:	80 91 91 00 	lds	r24, 0x0091
    107a:	87 ff       	sbrs	r24, 7
    107c:	01 c0       	rjmp	.+2      	; 0x1080 <ds1820_reset+0x34>
    107e:	78 94       	sei
    1080:	08 95       	ret

00001082 <ds1820_read_byte>:
    1082:	0f 93       	push	r16
    1084:	1f 93       	push	r17
    1086:	8f b7       	in	r24, 0x3f	; 63
    1088:	80 93 91 00 	sts	0x0091, r24
    108c:	f8 94       	cli
    108e:	08 e0       	ldi	r16, 0x08	; 8
    1090:	10 e0       	ldi	r17, 0x00	; 0
    1092:	16 95       	lsr	r17
    1094:	8f 9a       	sbi	0x11, 7	; 17
    1096:	97 98       	cbi	0x12, 7	; 18
    1098:	81 e0       	ldi	r24, 0x01	; 1
    109a:	90 e0       	ldi	r25, 0x00	; 0
    109c:	0e 94 0e 08 	call	0x101c	; 0x101c <s_10us>
    10a0:	97 9a       	sbi	0x12, 7	; 18
    10a2:	8f 98       	cbi	0x11, 7	; 17
    10a4:	81 e0       	ldi	r24, 0x01	; 1
    10a6:	90 e0       	ldi	r25, 0x00	; 0
    10a8:	0e 94 0e 08 	call	0x101c	; 0x101c <s_10us>
    10ac:	87 99       	sbic	0x10, 7	; 16
    10ae:	10 68       	ori	r17, 0x80	; 128
    10b0:	83 e0       	ldi	r24, 0x03	; 3
    10b2:	90 e0       	ldi	r25, 0x00	; 0
    10b4:	0e 94 0e 08 	call	0x101c	; 0x101c <s_10us>
    10b8:	01 50       	subi	r16, 0x01	; 1
    10ba:	59 f7       	brne	.-42     	; 0x1092 <ds1820_read_byte+0x10>
    10bc:	80 91 91 00 	lds	r24, 0x0091
    10c0:	87 ff       	sbrs	r24, 7
    10c2:	01 c0       	rjmp	.+2      	; 0x10c6 <ds1820_read_byte+0x44>
    10c4:	78 94       	sei
    10c6:	81 2f       	mov	r24, r17
    10c8:	90 e0       	ldi	r25, 0x00	; 0
    10ca:	1f 91       	pop	r17
    10cc:	0f 91       	pop	r16
    10ce:	08 95       	ret

000010d0 <ds1820_write_byte>:
    10d0:	0f 93       	push	r16
    10d2:	1f 93       	push	r17
    10d4:	18 2f       	mov	r17, r24
    10d6:	8f b7       	in	r24, 0x3f	; 63
    10d8:	80 93 91 00 	sts	0x0091, r24
    10dc:	f8 94       	cli
    10de:	08 e0       	ldi	r16, 0x08	; 8
    10e0:	8f 9a       	sbi	0x11, 7	; 17
    10e2:	97 98       	cbi	0x12, 7	; 18
    10e4:	81 e0       	ldi	r24, 0x01	; 1
    10e6:	90 e0       	ldi	r25, 0x00	; 0
    10e8:	0e 94 0e 08 	call	0x101c	; 0x101c <s_10us>
    10ec:	10 fd       	sbrc	r17, 0
    10ee:	97 9a       	sbi	0x12, 7	; 18
    10f0:	84 e0       	ldi	r24, 0x04	; 4
    10f2:	90 e0       	ldi	r25, 0x00	; 0
    10f4:	0e 94 0e 08 	call	0x101c	; 0x101c <s_10us>
    10f8:	97 9a       	sbi	0x12, 7	; 18
    10fa:	01 50       	subi	r16, 0x01	; 1
    10fc:	11 f0       	breq	.+4      	; 0x1102 <ds1820_write_byte+0x32>
    10fe:	16 95       	lsr	r17
    1100:	ef cf       	rjmp	.-34     	; 0x10e0 <ds1820_write_byte+0x10>
    1102:	80 91 91 00 	lds	r24, 0x0091
    1106:	87 ff       	sbrs	r24, 7
    1108:	01 c0       	rjmp	.+2      	; 0x110c <ds1820_write_byte+0x3c>
    110a:	78 94       	sei
    110c:	1f 91       	pop	r17
    110e:	0f 91       	pop	r16
    1110:	08 95       	ret

00001112 <ds1820_start>:
    1112:	0e 94 26 08 	call	0x104c	; 0x104c <ds1820_reset>
    1116:	8c ec       	ldi	r24, 0xCC	; 204
    1118:	0e 94 68 08 	call	0x10d0	; 0x10d0 <ds1820_write_byte>
    111c:	84 e4       	ldi	r24, 0x44	; 68
    111e:	0e 94 68 08 	call	0x10d0	; 0x10d0 <ds1820_write_byte>
    1122:	08 95       	ret

00001124 <ReadTemputer>:
    1124:	ef 92       	push	r14
    1126:	ff 92       	push	r15
    1128:	0f 93       	push	r16
    112a:	1f 93       	push	r17
    112c:	cf 93       	push	r28
    112e:	df 93       	push	r29
    1130:	cd b7       	in	r28, 0x3d	; 61
    1132:	de b7       	in	r29, 0x3e	; 62
    1134:	22 97       	sbiw	r28, 0x02	; 2
    1136:	0f b6       	in	r0, 0x3f	; 63
    1138:	f8 94       	cli
    113a:	de bf       	out	0x3e, r29	; 62
    113c:	0f be       	out	0x3f, r0	; 63
    113e:	cd bf       	out	0x3d, r28	; 61
    1140:	0e 94 26 08 	call	0x104c	; 0x104c <ds1820_reset>
    1144:	8c ec       	ldi	r24, 0xCC	; 204
    1146:	0e 94 68 08 	call	0x10d0	; 0x10d0 <ds1820_write_byte>
    114a:	8e eb       	ldi	r24, 0xBE	; 190
    114c:	0e 94 68 08 	call	0x10d0	; 0x10d0 <ds1820_write_byte>
    1150:	8e 01       	movw	r16, r28
    1152:	0f 5f       	subi	r16, 0xFF	; 255
    1154:	1f 4f       	sbci	r17, 0xFF	; 255
    1156:	e3 e0       	ldi	r30, 0x03	; 3
    1158:	ee 2e       	mov	r14, r30
    115a:	f1 2c       	mov	r15, r1
    115c:	ec 0e       	add	r14, r28
    115e:	fd 1e       	adc	r15, r29
    1160:	0e 94 41 08 	call	0x1082	; 0x1082 <ds1820_read_byte>
    1164:	f8 01       	movw	r30, r16
    1166:	81 93       	st	Z+, r24
    1168:	8f 01       	movw	r16, r30
    116a:	ee 15       	cp	r30, r14
    116c:	ff 05       	cpc	r31, r15
    116e:	c1 f7       	brne	.-16     	; 0x1160 <ReadTemputer+0x3c>
    1170:	8a 81       	ldd	r24, Y+2	; 0x02
    1172:	90 e0       	ldi	r25, 0x00	; 0
    1174:	f8 2f       	mov	r31, r24
    1176:	ee 27       	eor	r30, r30
    1178:	89 81       	ldd	r24, Y+1	; 0x01
    117a:	90 e0       	ldi	r25, 0x00	; 0
    117c:	e8 2b       	or	r30, r24
    117e:	f9 2b       	or	r31, r25
    1180:	cf 01       	movw	r24, r30
    1182:	80 70       	andi	r24, 0x00	; 0
    1184:	90 7f       	andi	r25, 0xF0	; 240
    1186:	80 50       	subi	r24, 0x00	; 0
    1188:	90 4f       	sbci	r25, 0xF0	; 240
    118a:	11 f0       	breq	.+4      	; 0x1190 <ReadTemputer+0x6c>
    118c:	40 e0       	ldi	r20, 0x00	; 0
    118e:	04 c0       	rjmp	.+8      	; 0x1198 <ReadTemputer+0x74>
    1190:	f0 95       	com	r31
    1192:	e1 95       	neg	r30
    1194:	ff 4f       	sbci	r31, 0xFF	; 255
    1196:	41 e0       	ldi	r20, 0x01	; 1
    1198:	cf 01       	movw	r24, r30
    119a:	88 0f       	add	r24, r24
    119c:	99 1f       	adc	r25, r25
    119e:	9f 01       	movw	r18, r30
    11a0:	53 e0       	ldi	r21, 0x03	; 3
    11a2:	22 0f       	add	r18, r18
    11a4:	33 1f       	adc	r19, r19
    11a6:	5a 95       	dec	r21
    11a8:	e1 f7       	brne	.-8      	; 0x11a2 <ReadTemputer+0x7e>
    11aa:	82 0f       	add	r24, r18
    11ac:	93 1f       	adc	r25, r19
    11ae:	24 e0       	ldi	r18, 0x04	; 4
    11b0:	96 95       	lsr	r25
    11b2:	87 95       	ror	r24
    11b4:	2a 95       	dec	r18
    11b6:	e1 f7       	brne	.-8      	; 0x11b0 <ReadTemputer+0x8c>
    11b8:	68 ee       	ldi	r22, 0xE8	; 232
    11ba:	73 e0       	ldi	r23, 0x03	; 3
    11bc:	0e 94 4b 18 	call	0x3096	; 0x3096 <__udivmodhi4>
    11c0:	9c 01       	movw	r18, r24
    11c2:	41 30       	cpi	r20, 0x01	; 1
    11c4:	21 f4       	brne	.+8      	; 0x11ce <ReadTemputer+0xaa>
    11c6:	8e e0       	ldi	r24, 0x0E	; 14
    11c8:	80 93 6f 00 	sts	0x006F, r24
    11cc:	06 c0       	rjmp	.+12     	; 0x11da <ReadTemputer+0xb6>
    11ce:	64 e6       	ldi	r22, 0x64	; 100
    11d0:	70 e0       	ldi	r23, 0x00	; 0
    11d2:	0e 94 4b 18 	call	0x3096	; 0x3096 <__udivmodhi4>
    11d6:	60 93 6f 00 	sts	0x006F, r22
    11da:	c9 01       	movw	r24, r18
    11dc:	64 e6       	ldi	r22, 0x64	; 100
    11de:	70 e0       	ldi	r23, 0x00	; 0
    11e0:	0e 94 4b 18 	call	0x3096	; 0x3096 <__udivmodhi4>
    11e4:	6a e0       	ldi	r22, 0x0A	; 10
    11e6:	70 e0       	ldi	r23, 0x00	; 0
    11e8:	0e 94 4b 18 	call	0x3096	; 0x3096 <__udivmodhi4>
    11ec:	60 93 70 00 	sts	0x0070, r22
    11f0:	ef 70       	andi	r30, 0x0F	; 15
    11f2:	f0 70       	andi	r31, 0x00	; 0
    11f4:	81 e7       	ldi	r24, 0x71	; 113
    11f6:	92 e0       	ldi	r25, 0x02	; 2
    11f8:	9c 01       	movw	r18, r24
    11fa:	e2 9f       	mul	r30, r18
    11fc:	c0 01       	movw	r24, r0
    11fe:	e3 9f       	mul	r30, r19
    1200:	90 0d       	add	r25, r0
    1202:	f2 9f       	mul	r31, r18
    1204:	90 0d       	add	r25, r0
    1206:	11 24       	eor	r1, r1
    1208:	68 ee       	ldi	r22, 0xE8	; 232
    120a:	73 e0       	ldi	r23, 0x03	; 3
    120c:	0e 94 4b 18 	call	0x3096	; 0x3096 <__udivmodhi4>
    1210:	60 93 71 00 	sts	0x0071, r22
    1214:	22 96       	adiw	r28, 0x02	; 2
    1216:	0f b6       	in	r0, 0x3f	; 63
    1218:	f8 94       	cli
    121a:	de bf       	out	0x3e, r29	; 62
    121c:	0f be       	out	0x3f, r0	; 63
    121e:	cd bf       	out	0x3d, r28	; 61
    1220:	df 91       	pop	r29
    1222:	cf 91       	pop	r28
    1224:	1f 91       	pop	r17
    1226:	0f 91       	pop	r16
    1228:	ff 90       	pop	r15
    122a:	ef 90       	pop	r14
    122c:	08 95       	ret

0000122e <SaveRunParameter>:
    122e:	f8 94       	cli
    1230:	8c b3       	in	r24, 0x1c	; 28
    1232:	90 e0       	ldi	r25, 0x00	; 0
    1234:	dc 01       	movw	r26, r24
    1236:	a2 70       	andi	r26, 0x02	; 2
    1238:	b0 70       	andi	r27, 0x00	; 0
    123a:	81 fd       	sbrc	r24, 1
    123c:	4a c0       	rjmp	.+148    	; 0x12d2 <SaveRunParameter+0xa4>
    123e:	8c ec       	ldi	r24, 0xCC	; 204
    1240:	08 2e       	mov	r0, r24
    1242:	0e 94 67 18 	call	0x30ce	; 0x30ce <__eeprom_write_byte_1C1D1E>
    1246:	80 91 72 00 	lds	r24, 0x0072
    124a:	a1 e0       	ldi	r26, 0x01	; 1
    124c:	b0 e0       	ldi	r27, 0x00	; 0
    124e:	08 2e       	mov	r0, r24
    1250:	0e 94 67 18 	call	0x30ce	; 0x30ce <__eeprom_write_byte_1C1D1E>
    1254:	80 91 73 00 	lds	r24, 0x0073
    1258:	a2 e0       	ldi	r26, 0x02	; 2
    125a:	b0 e0       	ldi	r27, 0x00	; 0
    125c:	08 2e       	mov	r0, r24
    125e:	0e 94 67 18 	call	0x30ce	; 0x30ce <__eeprom_write_byte_1C1D1E>
    1262:	80 91 74 00 	lds	r24, 0x0074
    1266:	a3 e0       	ldi	r26, 0x03	; 3
    1268:	b0 e0       	ldi	r27, 0x00	; 0
    126a:	08 2e       	mov	r0, r24
    126c:	0e 94 67 18 	call	0x30ce	; 0x30ce <__eeprom_write_byte_1C1D1E>
    1270:	80 91 75 00 	lds	r24, 0x0075
    1274:	a4 e0       	ldi	r26, 0x04	; 4
    1276:	b0 e0       	ldi	r27, 0x00	; 0
    1278:	08 2e       	mov	r0, r24
    127a:	0e 94 67 18 	call	0x30ce	; 0x30ce <__eeprom_write_byte_1C1D1E>
    127e:	80 91 76 00 	lds	r24, 0x0076
    1282:	a5 e0       	ldi	r26, 0x05	; 5
    1284:	b0 e0       	ldi	r27, 0x00	; 0
    1286:	08 2e       	mov	r0, r24
    1288:	0e 94 67 18 	call	0x30ce	; 0x30ce <__eeprom_write_byte_1C1D1E>
    128c:	80 91 77 00 	lds	r24, 0x0077
    1290:	a6 e0       	ldi	r26, 0x06	; 6
    1292:	b0 e0       	ldi	r27, 0x00	; 0
    1294:	08 2e       	mov	r0, r24
    1296:	0e 94 67 18 	call	0x30ce	; 0x30ce <__eeprom_write_byte_1C1D1E>
    129a:	80 91 78 00 	lds	r24, 0x0078
    129e:	a7 e0       	ldi	r26, 0x07	; 7
    12a0:	b0 e0       	ldi	r27, 0x00	; 0
    12a2:	08 2e       	mov	r0, r24
    12a4:	0e 94 67 18 	call	0x30ce	; 0x30ce <__eeprom_write_byte_1C1D1E>
    12a8:	80 91 7a 00 	lds	r24, 0x007A
    12ac:	a8 e0       	ldi	r26, 0x08	; 8
    12ae:	b0 e0       	ldi	r27, 0x00	; 0
    12b0:	08 2e       	mov	r0, r24
    12b2:	0e 94 67 18 	call	0x30ce	; 0x30ce <__eeprom_write_byte_1C1D1E>
    12b6:	80 91 7b 00 	lds	r24, 0x007B
    12ba:	a9 e0       	ldi	r26, 0x09	; 9
    12bc:	b0 e0       	ldi	r27, 0x00	; 0
    12be:	08 2e       	mov	r0, r24
    12c0:	0e 94 67 18 	call	0x30ce	; 0x30ce <__eeprom_write_byte_1C1D1E>
    12c4:	80 91 7c 00 	lds	r24, 0x007C
    12c8:	a0 e1       	ldi	r26, 0x10	; 16
    12ca:	b0 e0       	ldi	r27, 0x00	; 0
    12cc:	08 2e       	mov	r0, r24
    12ce:	0e 94 67 18 	call	0x30ce	; 0x30ce <__eeprom_write_byte_1C1D1E>
    12d2:	78 94       	sei
    12d4:	08 95       	ret

000012d6 <ReadRunParameter>:
    12d6:	f8 94       	cli
    12d8:	8c b3       	in	r24, 0x1c	; 28
    12da:	90 e0       	ldi	r25, 0x00	; 0
    12dc:	dc 01       	movw	r26, r24
    12de:	a2 70       	andi	r26, 0x02	; 2
    12e0:	b0 70       	andi	r27, 0x00	; 0
    12e2:	81 fd       	sbrc	r24, 1
    12e4:	4d c0       	rjmp	.+154    	; 0x1380 <ReadRunParameter+0xaa>
    12e6:	0e 94 5f 18 	call	0x30be	; 0x30be <__eeprom_read_byte_1C1D1E>
    12ea:	80 2d       	mov	r24, r0
    12ec:	8c 3c       	cpi	r24, 0xCC	; 204
    12ee:	09 f0       	breq	.+2      	; 0x12f2 <ReadRunParameter+0x1c>
    12f0:	3f c0       	rjmp	.+126    	; 0x1370 <ReadRunParameter+0x9a>
    12f2:	a1 e0       	ldi	r26, 0x01	; 1
    12f4:	b0 e0       	ldi	r27, 0x00	; 0
    12f6:	0e 94 5f 18 	call	0x30be	; 0x30be <__eeprom_read_byte_1C1D1E>
    12fa:	80 2d       	mov	r24, r0
    12fc:	80 93 72 00 	sts	0x0072, r24
    1300:	a2 e0       	ldi	r26, 0x02	; 2
    1302:	b0 e0       	ldi	r27, 0x00	; 0
    1304:	0e 94 5f 18 	call	0x30be	; 0x30be <__eeprom_read_byte_1C1D1E>
    1308:	80 2d       	mov	r24, r0
    130a:	80 93 73 00 	sts	0x0073, r24
    130e:	a3 e0       	ldi	r26, 0x03	; 3
    1310:	b0 e0       	ldi	r27, 0x00	; 0
    1312:	0e 94 5f 18 	call	0x30be	; 0x30be <__eeprom_read_byte_1C1D1E>
    1316:	80 2d       	mov	r24, r0
    1318:	80 93 74 00 	sts	0x0074, r24
    131c:	a5 e0       	ldi	r26, 0x05	; 5
    131e:	b0 e0       	ldi	r27, 0x00	; 0
    1320:	0e 94 5f 18 	call	0x30be	; 0x30be <__eeprom_read_byte_1C1D1E>
    1324:	80 2d       	mov	r24, r0
    1326:	80 93 76 00 	sts	0x0076, r24
    132a:	a6 e0       	ldi	r26, 0x06	; 6
    132c:	b0 e0       	ldi	r27, 0x00	; 0
    132e:	0e 94 5f 18 	call	0x30be	; 0x30be <__eeprom_read_byte_1C1D1E>
    1332:	80 2d       	mov	r24, r0
    1334:	80 93 77 00 	sts	0x0077, r24
    1338:	a7 e0       	ldi	r26, 0x07	; 7
    133a:	b0 e0       	ldi	r27, 0x00	; 0
    133c:	0e 94 5f 18 	call	0x30be	; 0x30be <__eeprom_read_byte_1C1D1E>
    1340:	80 2d       	mov	r24, r0
    1342:	80 93 78 00 	sts	0x0078, r24
    1346:	a8 e0       	ldi	r26, 0x08	; 8
    1348:	b0 e0       	ldi	r27, 0x00	; 0
    134a:	0e 94 5f 18 	call	0x30be	; 0x30be <__eeprom_read_byte_1C1D1E>
    134e:	80 2d       	mov	r24, r0
    1350:	80 93 7a 00 	sts	0x007A, r24
    1354:	a9 e0       	ldi	r26, 0x09	; 9
    1356:	b0 e0       	ldi	r27, 0x00	; 0
    1358:	0e 94 5f 18 	call	0x30be	; 0x30be <__eeprom_read_byte_1C1D1E>
    135c:	80 2d       	mov	r24, r0
    135e:	80 93 7b 00 	sts	0x007B, r24
    1362:	a0 e1       	ldi	r26, 0x10	; 16
    1364:	b0 e0       	ldi	r27, 0x00	; 0
    1366:	0e 94 5f 18 	call	0x30be	; 0x30be <__eeprom_read_byte_1C1D1E>
    136a:	80 2d       	mov	r24, r0
    136c:	80 93 7c 00 	sts	0x007C, r24
    1370:	80 91 73 00 	lds	r24, 0x0073
    1374:	29 e1       	ldi	r18, 0x19	; 25
    1376:	82 9f       	mul	r24, r18
    1378:	c0 01       	movw	r24, r0
    137a:	11 24       	eor	r1, r1
    137c:	89 51       	subi	r24, 0x19	; 25
    137e:	8c bf       	out	0x3c, r24	; 60
    1380:	78 94       	sei
    1382:	08 95       	ret

00001384 <LED_SCREEN_INI>:
    1384:	bb 9a       	sbi	0x17, 3	; 23
    1386:	b8 9a       	sbi	0x17, 0	; 23
    1388:	b9 9a       	sbi	0x17, 1	; 23
    138a:	ba 9a       	sbi	0x17, 2	; 23
    138c:	bc 9a       	sbi	0x17, 4	; 23
    138e:	8c 9a       	sbi	0x11, 4	; 17
    1390:	8d 9a       	sbi	0x11, 5	; 17
    1392:	d1 9a       	sbi	0x1a, 1	; 26
    1394:	d2 9a       	sbi	0x1a, 2	; 26
    1396:	d3 9a       	sbi	0x1a, 3	; 26
    1398:	d4 9a       	sbi	0x1a, 4	; 26
    139a:	8a 9a       	sbi	0x11, 2	; 17
    139c:	8b 9a       	sbi	0x11, 3	; 17
    139e:	10 92 8a 02 	sts	0x028A, r1
    13a2:	10 92 87 02 	sts	0x0287, r1
    13a6:	10 92 86 02 	sts	0x0286, r1
    13aa:	10 92 89 02 	sts	0x0289, r1
    13ae:	10 92 8e 02 	sts	0x028E, r1
    13b2:	10 92 90 00 	sts	0x0090, r1
    13b6:	10 92 8f 00 	sts	0x008F, r1
    13ba:	10 92 9c 02 	sts	0x029C, r1
    13be:	10 92 9b 02 	sts	0x029B, r1
    13c2:	08 95       	ret

000013c4 <writeCloclColon>:
    13c4:	1f 93       	push	r17
    13c6:	90 91 b6 00 	lds	r25, 0x00B6
    13ca:	20 91 be 00 	lds	r18, 0x00BE
    13ce:	30 91 c6 00 	lds	r19, 0x00C6
    13d2:	40 91 b5 00 	lds	r20, 0x00B5
    13d6:	50 91 bd 00 	lds	r21, 0x00BD
    13da:	60 91 c5 00 	lds	r22, 0x00C5
    13de:	70 91 fe 00 	lds	r23, 0x00FE
    13e2:	e0 91 06 01 	lds	r30, 0x0106
    13e6:	f0 91 0e 01 	lds	r31, 0x010E
    13ea:	a0 91 fd 00 	lds	r26, 0x00FD
    13ee:	b0 91 05 01 	lds	r27, 0x0105
    13f2:	10 91 0d 01 	lds	r17, 0x010D
    13f6:	88 23       	and	r24, r24
    13f8:	19 f1       	breq	.+70     	; 0x1440 <writeCloclColon+0x7c>
    13fa:	90 6c       	ori	r25, 0xC0	; 192
    13fc:	90 93 b6 00 	sts	0x00B6, r25
    1400:	20 6c       	ori	r18, 0xC0	; 192
    1402:	20 93 be 00 	sts	0x00BE, r18
    1406:	30 6c       	ori	r19, 0xC0	; 192
    1408:	30 93 c6 00 	sts	0x00C6, r19
    140c:	41 60       	ori	r20, 0x01	; 1
    140e:	40 93 b5 00 	sts	0x00B5, r20
    1412:	51 60       	ori	r21, 0x01	; 1
    1414:	50 93 bd 00 	sts	0x00BD, r21
    1418:	61 60       	ori	r22, 0x01	; 1
    141a:	60 93 c5 00 	sts	0x00C5, r22
    141e:	70 6c       	ori	r23, 0xC0	; 192
    1420:	70 93 fe 00 	sts	0x00FE, r23
    1424:	e0 6c       	ori	r30, 0xC0	; 192
    1426:	e0 93 06 01 	sts	0x0106, r30
    142a:	f0 6c       	ori	r31, 0xC0	; 192
    142c:	f0 93 0e 01 	sts	0x010E, r31
    1430:	a1 60       	ori	r26, 0x01	; 1
    1432:	a0 93 fd 00 	sts	0x00FD, r26
    1436:	b1 60       	ori	r27, 0x01	; 1
    1438:	b0 93 05 01 	sts	0x0105, r27
    143c:	11 60       	ori	r17, 0x01	; 1
    143e:	22 c0       	rjmp	.+68     	; 0x1484 <writeCloclColon+0xc0>
    1440:	9f 73       	andi	r25, 0x3F	; 63
    1442:	90 93 b6 00 	sts	0x00B6, r25
    1446:	2f 73       	andi	r18, 0x3F	; 63
    1448:	20 93 be 00 	sts	0x00BE, r18
    144c:	3f 73       	andi	r19, 0x3F	; 63
    144e:	30 93 c6 00 	sts	0x00C6, r19
    1452:	4e 7f       	andi	r20, 0xFE	; 254
    1454:	40 93 b5 00 	sts	0x00B5, r20
    1458:	5e 7f       	andi	r21, 0xFE	; 254
    145a:	50 93 bd 00 	sts	0x00BD, r21
    145e:	6e 7f       	andi	r22, 0xFE	; 254
    1460:	60 93 c5 00 	sts	0x00C5, r22
    1464:	7f 73       	andi	r23, 0x3F	; 63
    1466:	70 93 fe 00 	sts	0x00FE, r23
    146a:	ef 73       	andi	r30, 0x3F	; 63
    146c:	e0 93 06 01 	sts	0x0106, r30
    1470:	ff 73       	andi	r31, 0x3F	; 63
    1472:	f0 93 0e 01 	sts	0x010E, r31
    1476:	ae 7f       	andi	r26, 0xFE	; 254
    1478:	a0 93 fd 00 	sts	0x00FD, r26
    147c:	be 7f       	andi	r27, 0xFE	; 254
    147e:	b0 93 05 01 	sts	0x0105, r27
    1482:	1e 7f       	andi	r17, 0xFE	; 254
    1484:	10 93 0d 01 	sts	0x010D, r17
    1488:	1f 91       	pop	r17
    148a:	08 95       	ret

0000148c <writeOneChinese>:
    148c:	cf 93       	push	r28
    148e:	df 93       	push	r29
    1490:	e4 2f       	mov	r30, r20
    1492:	f0 e0       	ldi	r31, 0x00	; 0
    1494:	25 e0       	ldi	r18, 0x05	; 5
    1496:	ee 0f       	add	r30, r30
    1498:	ff 1f       	adc	r31, r31
    149a:	2a 95       	dec	r18
    149c:	e1 f7       	brne	.-8      	; 0x1496 <writeOneChinese+0xa>
    149e:	e2 54       	subi	r30, 0x42	; 66
    14a0:	f6 4f       	sbci	r31, 0xF6	; 246
    14a2:	a6 2f       	mov	r26, r22
    14a4:	b0 e0       	ldi	r27, 0x00	; 0
    14a6:	93 e0       	ldi	r25, 0x03	; 3
    14a8:	aa 0f       	add	r26, r26
    14aa:	bb 1f       	adc	r27, r27
    14ac:	9a 95       	dec	r25
    14ae:	e1 f7       	brne	.-8      	; 0x14a8 <writeOneChinese+0x1c>
    14b0:	a8 0f       	add	r26, r24
    14b2:	b1 1d       	adc	r27, r1
    14b4:	ae 56       	subi	r26, 0x6E	; 110
    14b6:	bf 4f       	sbci	r27, 0xFF	; 255
    14b8:	90 e0       	ldi	r25, 0x00	; 0
    14ba:	84 91       	lpm	r24, Z
    14bc:	8c 93       	st	X, r24
    14be:	31 96       	adiw	r30, 0x01	; 1
    14c0:	84 91       	lpm	r24, Z
    14c2:	ed 01       	movw	r28, r26
    14c4:	89 83       	std	Y+1, r24	; 0x01
    14c6:	9f 5f       	subi	r25, 0xFF	; 255
    14c8:	31 96       	adiw	r30, 0x01	; 1
    14ca:	18 96       	adiw	r26, 0x08	; 8
    14cc:	90 31       	cpi	r25, 0x10	; 16
    14ce:	a9 f7       	brne	.-22     	; 0x14ba <writeOneChinese+0x2e>
    14d0:	df 91       	pop	r29
    14d2:	cf 91       	pop	r28
    14d4:	08 95       	ret

000014d6 <writeOneUnSCROLL>:
    14d6:	9a e0       	ldi	r25, 0x0A	; 10
    14d8:	49 9f       	mul	r20, r25
    14da:	90 01       	movw	r18, r0
    14dc:	11 24       	eor	r1, r1
    14de:	20 5c       	subi	r18, 0xC0	; 192
    14e0:	3a 4f       	sbci	r19, 0xFA	; 250
    14e2:	a6 2f       	mov	r26, r22
    14e4:	b0 e0       	ldi	r27, 0x00	; 0
    14e6:	43 e0       	ldi	r20, 0x03	; 3
    14e8:	aa 0f       	add	r26, r26
    14ea:	bb 1f       	adc	r27, r27
    14ec:	4a 95       	dec	r20
    14ee:	e1 f7       	brne	.-8      	; 0x14e8 <writeOneUnSCROLL+0x12>
    14f0:	a8 0f       	add	r26, r24
    14f2:	b1 1d       	adc	r27, r1
    14f4:	ae 56       	subi	r26, 0x6E	; 110
    14f6:	bf 4f       	sbci	r27, 0xFF	; 255
    14f8:	90 e0       	ldi	r25, 0x00	; 0
    14fa:	f9 01       	movw	r30, r18
    14fc:	84 91       	lpm	r24, Z
    14fe:	8c 93       	st	X, r24
    1500:	9f 5f       	subi	r25, 0xFF	; 255
    1502:	2f 5f       	subi	r18, 0xFF	; 255
    1504:	3f 4f       	sbci	r19, 0xFF	; 255
    1506:	18 96       	adiw	r26, 0x08	; 8
    1508:	9a 30       	cpi	r25, 0x0A	; 10
    150a:	b9 f7       	brne	.-18     	; 0x14fa <writeOneUnSCROLL+0x24>
    150c:	08 95       	ret

0000150e <writeOneSCROLL>:
    150e:	cf 93       	push	r28
    1510:	df 93       	push	r29
    1512:	98 2f       	mov	r25, r24
    1514:	80 91 7b 00 	lds	r24, 0x007B
    1518:	88 23       	and	r24, r24
    151a:	e9 f4       	brne	.+58     	; 0x1556 <writeOneSCROLL+0x48>
    151c:	8a e0       	ldi	r24, 0x0A	; 10
    151e:	48 9f       	mul	r20, r24
    1520:	90 01       	movw	r18, r0
    1522:	11 24       	eor	r1, r1
    1524:	24 5f       	subi	r18, 0xF4	; 244
    1526:	38 4f       	sbci	r19, 0xF8	; 248
    1528:	a6 2f       	mov	r26, r22
    152a:	b0 e0       	ldi	r27, 0x00	; 0
    152c:	73 e0       	ldi	r23, 0x03	; 3
    152e:	aa 0f       	add	r26, r26
    1530:	bb 1f       	adc	r27, r27
    1532:	7a 95       	dec	r23
    1534:	e1 f7       	brne	.-8      	; 0x152e <writeOneSCROLL+0x20>
    1536:	a9 0f       	add	r26, r25
    1538:	b1 1d       	adc	r27, r1
    153a:	ae 56       	subi	r26, 0x6E	; 110
    153c:	bf 4f       	sbci	r27, 0xFF	; 255
    153e:	90 e0       	ldi	r25, 0x00	; 0
    1540:	f9 01       	movw	r30, r18
    1542:	84 91       	lpm	r24, Z
    1544:	8c 93       	st	X, r24
    1546:	9f 5f       	subi	r25, 0xFF	; 255
    1548:	2f 5f       	subi	r18, 0xFF	; 255
    154a:	3f 4f       	sbci	r19, 0xFF	; 255
    154c:	58 96       	adiw	r26, 0x18	; 24
    154e:	9a 30       	cpi	r25, 0x0A	; 10
    1550:	09 f4       	brne	.+2      	; 0x1554 <writeOneSCROLL+0x46>
    1552:	3b c0       	rjmp	.+118    	; 0x15ca <writeOneSCROLL+0xbc>
    1554:	f5 cf       	rjmp	.-22     	; 0x1540 <writeOneSCROLL+0x32>
    1556:	70 e0       	ldi	r23, 0x00	; 0
    1558:	a9 2f       	mov	r26, r25
    155a:	b0 e0       	ldi	r27, 0x00	; 0
    155c:	81 30       	cpi	r24, 0x01	; 1
    155e:	d9 f4       	brne	.+54     	; 0x1596 <writeOneSCROLL+0x88>
    1560:	8a e0       	ldi	r24, 0x0A	; 10
    1562:	48 9f       	mul	r20, r24
    1564:	90 01       	movw	r18, r0
    1566:	11 24       	eor	r1, r1
    1568:	2e 50       	subi	r18, 0x0E	; 14
    156a:	38 4f       	sbci	r19, 0xF8	; 248
    156c:	eb 01       	movw	r28, r22
    156e:	63 e0       	ldi	r22, 0x03	; 3
    1570:	cc 0f       	add	r28, r28
    1572:	dd 1f       	adc	r29, r29
    1574:	6a 95       	dec	r22
    1576:	e1 f7       	brne	.-8      	; 0x1570 <writeOneSCROLL+0x62>
    1578:	ca 0f       	add	r28, r26
    157a:	db 1f       	adc	r29, r27
    157c:	ce 56       	subi	r28, 0x6E	; 110
    157e:	df 4f       	sbci	r29, 0xFF	; 255
    1580:	90 e0       	ldi	r25, 0x00	; 0
    1582:	f9 01       	movw	r30, r18
    1584:	84 91       	lpm	r24, Z
    1586:	88 83       	st	Y, r24
    1588:	9f 5f       	subi	r25, 0xFF	; 255
    158a:	2f 5f       	subi	r18, 0xFF	; 255
    158c:	3f 4f       	sbci	r19, 0xFF	; 255
    158e:	68 96       	adiw	r28, 0x18	; 24
    1590:	9a 30       	cpi	r25, 0x0A	; 10
    1592:	d9 f0       	breq	.+54     	; 0x15ca <writeOneSCROLL+0xbc>
    1594:	f6 cf       	rjmp	.-20     	; 0x1582 <writeOneSCROLL+0x74>
    1596:	8a e0       	ldi	r24, 0x0A	; 10
    1598:	48 9f       	mul	r20, r24
    159a:	90 01       	movw	r18, r0
    159c:	11 24       	eor	r1, r1
    159e:	28 52       	subi	r18, 0x28	; 40
    15a0:	37 4f       	sbci	r19, 0xF7	; 247
    15a2:	eb 01       	movw	r28, r22
    15a4:	53 e0       	ldi	r21, 0x03	; 3
    15a6:	cc 0f       	add	r28, r28
    15a8:	dd 1f       	adc	r29, r29
    15aa:	5a 95       	dec	r21
    15ac:	e1 f7       	brne	.-8      	; 0x15a6 <writeOneSCROLL+0x98>
    15ae:	ca 0f       	add	r28, r26
    15b0:	db 1f       	adc	r29, r27
    15b2:	ce 56       	subi	r28, 0x6E	; 110
    15b4:	df 4f       	sbci	r29, 0xFF	; 255
    15b6:	90 e0       	ldi	r25, 0x00	; 0
    15b8:	f9 01       	movw	r30, r18
    15ba:	84 91       	lpm	r24, Z
    15bc:	88 83       	st	Y, r24
    15be:	9f 5f       	subi	r25, 0xFF	; 255
    15c0:	2f 5f       	subi	r18, 0xFF	; 255
    15c2:	3f 4f       	sbci	r19, 0xFF	; 255
    15c4:	68 96       	adiw	r28, 0x18	; 24
    15c6:	9a 30       	cpi	r25, 0x0A	; 10
    15c8:	b9 f7       	brne	.-18     	; 0x15b8 <writeOneSCROLL+0xaa>
    15ca:	df 91       	pop	r29
    15cc:	cf 91       	pop	r28
    15ce:	08 95       	ret

000015d0 <wirteOneBigNumber>:
    15d0:	1f 93       	push	r17
    15d2:	cf 93       	push	r28
    15d4:	df 93       	push	r29
    15d6:	98 2f       	mov	r25, r24
    15d8:	80 91 7b 00 	lds	r24, 0x007B
    15dc:	88 23       	and	r24, r24
    15de:	a9 f5       	brne	.+106    	; 0x164a <wirteOneBigNumber+0x7a>
    15e0:	85 e1       	ldi	r24, 0x15	; 21
    15e2:	48 9f       	mul	r20, r24
    15e4:	f0 01       	movw	r30, r0
    15e6:	11 24       	eor	r1, r1
    15e8:	ee 0f       	add	r30, r30
    15ea:	ff 1f       	adc	r31, r31
    15ec:	ec 5a       	subi	r30, 0xAC	; 172
    15ee:	ff 4f       	sbci	r31, 0xFF	; 255
    15f0:	a9 2f       	mov	r26, r25
    15f2:	b0 e0       	ldi	r27, 0x00	; 0
    15f4:	ae 56       	subi	r26, 0x6E	; 110
    15f6:	bf 4f       	sbci	r27, 0xFF	; 255
    15f8:	10 e0       	ldi	r17, 0x00	; 0
    15fa:	70 e0       	ldi	r23, 0x00	; 0
    15fc:	48 e0       	ldi	r20, 0x08	; 8
    15fe:	50 e0       	ldi	r21, 0x00	; 0
    1600:	46 1b       	sub	r20, r22
    1602:	57 0b       	sbc	r21, r23
    1604:	24 91       	lpm	r18, Z
    1606:	30 e0       	ldi	r19, 0x00	; 0
    1608:	c9 01       	movw	r24, r18
    160a:	06 2e       	mov	r0, r22
    160c:	02 c0       	rjmp	.+4      	; 0x1612 <wirteOneBigNumber+0x42>
    160e:	95 95       	asr	r25
    1610:	87 95       	ror	r24
    1612:	0a 94       	dec	r0
    1614:	e2 f7       	brpl	.-8      	; 0x160e <wirteOneBigNumber+0x3e>
    1616:	8c 93       	st	X, r24
    1618:	31 96       	adiw	r30, 0x01	; 1
    161a:	84 91       	lpm	r24, Z
    161c:	90 e0       	ldi	r25, 0x00	; 0
    161e:	06 2e       	mov	r0, r22
    1620:	02 c0       	rjmp	.+4      	; 0x1626 <wirteOneBigNumber+0x56>
    1622:	95 95       	asr	r25
    1624:	87 95       	ror	r24
    1626:	0a 94       	dec	r0
    1628:	e2 f7       	brpl	.-8      	; 0x1622 <wirteOneBigNumber+0x52>
    162a:	04 2e       	mov	r0, r20
    162c:	02 c0       	rjmp	.+4      	; 0x1632 <wirteOneBigNumber+0x62>
    162e:	22 0f       	add	r18, r18
    1630:	33 1f       	adc	r19, r19
    1632:	0a 94       	dec	r0
    1634:	e2 f7       	brpl	.-8      	; 0x162e <wirteOneBigNumber+0x5e>
    1636:	82 2b       	or	r24, r18
    1638:	ed 01       	movw	r28, r26
    163a:	89 83       	std	Y+1, r24	; 0x01
    163c:	1f 5f       	subi	r17, 0xFF	; 255
    163e:	31 96       	adiw	r30, 0x01	; 1
    1640:	18 96       	adiw	r26, 0x08	; 8
    1642:	15 31       	cpi	r17, 0x15	; 21
    1644:	09 f4       	brne	.+2      	; 0x1648 <wirteOneBigNumber+0x78>
    1646:	6a c0       	rjmp	.+212    	; 0x171c <wirteOneBigNumber+0x14c>
    1648:	dd cf       	rjmp	.-70     	; 0x1604 <wirteOneBigNumber+0x34>
    164a:	29 2f       	mov	r18, r25
    164c:	30 e0       	ldi	r19, 0x00	; 0
    164e:	81 30       	cpi	r24, 0x01	; 1
    1650:	99 f5       	brne	.+102    	; 0x16b8 <wirteOneBigNumber+0xe8>
    1652:	85 e1       	ldi	r24, 0x15	; 21
    1654:	48 9f       	mul	r20, r24
    1656:	f0 01       	movw	r30, r0
    1658:	11 24       	eor	r1, r1
    165a:	ee 0f       	add	r30, r30
    165c:	ff 1f       	adc	r31, r31
    165e:	e8 50       	subi	r30, 0x08	; 8
    1660:	fe 4f       	sbci	r31, 0xFE	; 254
    1662:	d9 01       	movw	r26, r18
    1664:	ae 56       	subi	r26, 0x6E	; 110
    1666:	bf 4f       	sbci	r27, 0xFF	; 255
    1668:	10 e0       	ldi	r17, 0x00	; 0
    166a:	70 e0       	ldi	r23, 0x00	; 0
    166c:	48 e0       	ldi	r20, 0x08	; 8
    166e:	50 e0       	ldi	r21, 0x00	; 0
    1670:	46 1b       	sub	r20, r22
    1672:	57 0b       	sbc	r21, r23
    1674:	24 91       	lpm	r18, Z
    1676:	30 e0       	ldi	r19, 0x00	; 0
    1678:	c9 01       	movw	r24, r18
    167a:	06 2e       	mov	r0, r22
    167c:	02 c0       	rjmp	.+4      	; 0x1682 <wirteOneBigNumber+0xb2>
    167e:	95 95       	asr	r25
    1680:	87 95       	ror	r24
    1682:	0a 94       	dec	r0
    1684:	e2 f7       	brpl	.-8      	; 0x167e <wirteOneBigNumber+0xae>
    1686:	8c 93       	st	X, r24
    1688:	31 96       	adiw	r30, 0x01	; 1
    168a:	84 91       	lpm	r24, Z
    168c:	90 e0       	ldi	r25, 0x00	; 0
    168e:	06 2e       	mov	r0, r22
    1690:	02 c0       	rjmp	.+4      	; 0x1696 <wirteOneBigNumber+0xc6>
    1692:	95 95       	asr	r25
    1694:	87 95       	ror	r24
    1696:	0a 94       	dec	r0
    1698:	e2 f7       	brpl	.-8      	; 0x1692 <wirteOneBigNumber+0xc2>
    169a:	04 2e       	mov	r0, r20
    169c:	02 c0       	rjmp	.+4      	; 0x16a2 <wirteOneBigNumber+0xd2>
    169e:	22 0f       	add	r18, r18
    16a0:	33 1f       	adc	r19, r19
    16a2:	0a 94       	dec	r0
    16a4:	e2 f7       	brpl	.-8      	; 0x169e <wirteOneBigNumber+0xce>
    16a6:	82 2b       	or	r24, r18
    16a8:	ed 01       	movw	r28, r26
    16aa:	89 83       	std	Y+1, r24	; 0x01
    16ac:	1f 5f       	subi	r17, 0xFF	; 255
    16ae:	31 96       	adiw	r30, 0x01	; 1
    16b0:	18 96       	adiw	r26, 0x08	; 8
    16b2:	15 31       	cpi	r17, 0x15	; 21
    16b4:	99 f1       	breq	.+102    	; 0x171c <wirteOneBigNumber+0x14c>
    16b6:	de cf       	rjmp	.-68     	; 0x1674 <wirteOneBigNumber+0xa4>
    16b8:	85 e1       	ldi	r24, 0x15	; 21
    16ba:	48 9f       	mul	r20, r24
    16bc:	f0 01       	movw	r30, r0
    16be:	11 24       	eor	r1, r1
    16c0:	ee 0f       	add	r30, r30
    16c2:	ff 1f       	adc	r31, r31
    16c4:	e4 56       	subi	r30, 0x64	; 100
    16c6:	fc 4f       	sbci	r31, 0xFC	; 252
    16c8:	d9 01       	movw	r26, r18
    16ca:	ae 56       	subi	r26, 0x6E	; 110
    16cc:	bf 4f       	sbci	r27, 0xFF	; 255
    16ce:	10 e0       	ldi	r17, 0x00	; 0
    16d0:	70 e0       	ldi	r23, 0x00	; 0
    16d2:	48 e0       	ldi	r20, 0x08	; 8
    16d4:	50 e0       	ldi	r21, 0x00	; 0
    16d6:	46 1b       	sub	r20, r22
    16d8:	57 0b       	sbc	r21, r23
    16da:	24 91       	lpm	r18, Z
    16dc:	30 e0       	ldi	r19, 0x00	; 0
    16de:	c9 01       	movw	r24, r18
    16e0:	06 2e       	mov	r0, r22
    16e2:	02 c0       	rjmp	.+4      	; 0x16e8 <wirteOneBigNumber+0x118>
    16e4:	95 95       	asr	r25
    16e6:	87 95       	ror	r24
    16e8:	0a 94       	dec	r0
    16ea:	e2 f7       	brpl	.-8      	; 0x16e4 <wirteOneBigNumber+0x114>
    16ec:	8c 93       	st	X, r24
    16ee:	31 96       	adiw	r30, 0x01	; 1
    16f0:	84 91       	lpm	r24, Z
    16f2:	90 e0       	ldi	r25, 0x00	; 0
    16f4:	06 2e       	mov	r0, r22
    16f6:	02 c0       	rjmp	.+4      	; 0x16fc <wirteOneBigNumber+0x12c>
    16f8:	95 95       	asr	r25
    16fa:	87 95       	ror	r24
    16fc:	0a 94       	dec	r0
    16fe:	e2 f7       	brpl	.-8      	; 0x16f8 <wirteOneBigNumber+0x128>
    1700:	04 2e       	mov	r0, r20
    1702:	02 c0       	rjmp	.+4      	; 0x1708 <wirteOneBigNumber+0x138>
    1704:	22 0f       	add	r18, r18
    1706:	33 1f       	adc	r19, r19
    1708:	0a 94       	dec	r0
    170a:	e2 f7       	brpl	.-8      	; 0x1704 <wirteOneBigNumber+0x134>
    170c:	82 2b       	or	r24, r18
    170e:	ed 01       	movw	r28, r26
    1710:	89 83       	std	Y+1, r24	; 0x01
    1712:	1f 5f       	subi	r17, 0xFF	; 255
    1714:	31 96       	adiw	r30, 0x01	; 1
    1716:	18 96       	adiw	r26, 0x08	; 8
    1718:	15 31       	cpi	r17, 0x15	; 21
    171a:	f9 f6       	brne	.-66     	; 0x16da <wirteOneBigNumber+0x10a>
    171c:	df 91       	pop	r29
    171e:	cf 91       	pop	r28
    1720:	1f 91       	pop	r17
    1722:	08 95       	ret

00001724 <display>:
    1724:	cf 93       	push	r28
    1726:	df 93       	push	r29
    1728:	20 91 8f 00 	lds	r18, 0x008F
    172c:	30 91 90 00 	lds	r19, 0x0090
    1730:	2f 5f       	subi	r18, 0xFF	; 255
    1732:	3f 4f       	sbci	r19, 0xFF	; 255
    1734:	30 93 90 00 	sts	0x0090, r19
    1738:	20 93 8f 00 	sts	0x008F, r18
    173c:	40 91 74 00 	lds	r20, 0x0074
    1740:	89 e0       	ldi	r24, 0x09	; 9
    1742:	90 e0       	ldi	r25, 0x00	; 0
    1744:	84 1b       	sub	r24, r20
    1746:	91 09       	sbc	r25, r1
    1748:	ac 01       	movw	r20, r24
    174a:	73 e0       	ldi	r23, 0x03	; 3
    174c:	44 0f       	add	r20, r20
    174e:	55 1f       	adc	r21, r21
    1750:	7a 95       	dec	r23
    1752:	e1 f7       	brne	.-8      	; 0x174c <display+0x28>
    1754:	88 0f       	add	r24, r24
    1756:	99 1f       	adc	r25, r25
    1758:	84 0f       	add	r24, r20
    175a:	95 1f       	adc	r25, r21
    175c:	82 17       	cp	r24, r18
    175e:	93 07       	cpc	r25, r19
    1760:	68 f4       	brcc	.+26     	; 0x177c <display+0x58>
    1762:	10 92 90 00 	sts	0x0090, r1
    1766:	10 92 8f 00 	sts	0x008F, r1
    176a:	80 91 8e 02 	lds	r24, 0x028E
    176e:	8f 5f       	subi	r24, 0xFF	; 255
    1770:	80 93 8e 02 	sts	0x028E, r24
    1774:	81 3c       	cpi	r24, 0xC1	; 193
    1776:	10 f0       	brcs	.+4      	; 0x177c <display+0x58>
    1778:	10 92 8e 02 	sts	0x028E, r1
    177c:	92 98       	cbi	0x12, 2	; 18
    177e:	80 91 75 00 	lds	r24, 0x0075
    1782:	88 23       	and	r24, r24
    1784:	e9 f4       	brne	.+58     	; 0x17c0 <display+0x9c>
    1786:	80 91 86 02 	lds	r24, 0x0286
    178a:	90 91 87 02 	lds	r25, 0x0287
    178e:	01 96       	adiw	r24, 0x01	; 1
    1790:	90 93 87 02 	sts	0x0287, r25
    1794:	80 93 86 02 	sts	0x0286, r24
    1798:	8d 5a       	subi	r24, 0xAD	; 173
    179a:	93 40       	sbci	r25, 0x03	; 3
    179c:	88 f0       	brcs	.+34     	; 0x17c0 <display+0x9c>
    179e:	10 92 87 02 	sts	0x0287, r1
    17a2:	10 92 86 02 	sts	0x0286, r1
    17a6:	80 91 89 02 	lds	r24, 0x0289
    17aa:	88 23       	and	r24, r24
    17ac:	21 f0       	breq	.+8      	; 0x17b6 <display+0x92>
    17ae:	10 92 89 02 	sts	0x0289, r1
    17b2:	80 e0       	ldi	r24, 0x00	; 0
    17b4:	03 c0       	rjmp	.+6      	; 0x17bc <display+0x98>
    17b6:	81 e0       	ldi	r24, 0x01	; 1
    17b8:	80 93 89 02 	sts	0x0289, r24
    17bc:	0e 94 e2 09 	call	0x13c4	; 0x13c4 <writeCloclColon>
    17c0:	80 91 8a 02 	lds	r24, 0x028A
    17c4:	86 30       	cpi	r24, 0x06	; 6
    17c6:	08 f4       	brcc	.+2      	; 0x17ca <display+0xa6>
    17c8:	41 c0       	rjmp	.+130    	; 0x184c <display+0x128>
    17ca:	80 91 75 00 	lds	r24, 0x0075
    17ce:	88 23       	and	r24, r24
    17d0:	e9 f5       	brne	.+122    	; 0x184c <display+0x128>
    17d2:	90 91 8e 02 	lds	r25, 0x028E
    17d6:	30 91 8a 02 	lds	r19, 0x028A
    17da:	80 91 8a 02 	lds	r24, 0x028A
    17de:	48 2f       	mov	r20, r24
    17e0:	50 e0       	ldi	r21, 0x00	; 0
    17e2:	23 e0       	ldi	r18, 0x03	; 3
    17e4:	44 0f       	add	r20, r20
    17e6:	55 1f       	adc	r21, r21
    17e8:	2a 95       	dec	r18
    17ea:	e1 f7       	brne	.-8      	; 0x17e4 <display+0xc0>
    17ec:	29 2f       	mov	r18, r25
    17ee:	26 95       	lsr	r18
    17f0:	26 95       	lsr	r18
    17f2:	26 95       	lsr	r18
    17f4:	88 e1       	ldi	r24, 0x18	; 24
    17f6:	38 9f       	mul	r19, r24
    17f8:	f0 01       	movw	r30, r0
    17fa:	11 24       	eor	r1, r1
    17fc:	e2 0f       	add	r30, r18
    17fe:	f1 1d       	adc	r31, r1
    1800:	ee 54       	subi	r30, 0x4E	; 78
    1802:	ff 4f       	sbci	r31, 0xFF	; 255
    1804:	a7 e8       	ldi	r26, 0x87	; 135
    1806:	b0 e0       	ldi	r27, 0x00	; 0
    1808:	97 70       	andi	r25, 0x07	; 7
    180a:	c9 2f       	mov	r28, r25
    180c:	d0 e0       	ldi	r29, 0x00	; 0
    180e:	68 e0       	ldi	r22, 0x08	; 8
    1810:	70 e0       	ldi	r23, 0x00	; 0
    1812:	6c 1b       	sub	r22, r28
    1814:	7d 0b       	sbc	r23, r29
    1816:	21 81       	ldd	r18, Z+1	; 0x01
    1818:	30 e0       	ldi	r19, 0x00	; 0
    181a:	06 2e       	mov	r0, r22
    181c:	02 c0       	rjmp	.+4      	; 0x1822 <display+0xfe>
    181e:	35 95       	asr	r19
    1820:	27 95       	ror	r18
    1822:	0a 94       	dec	r0
    1824:	e2 f7       	brpl	.-8      	; 0x181e <display+0xfa>
    1826:	81 91       	ld	r24, Z+
    1828:	90 e0       	ldi	r25, 0x00	; 0
    182a:	0c 2e       	mov	r0, r28
    182c:	02 c0       	rjmp	.+4      	; 0x1832 <display+0x10e>
    182e:	88 0f       	add	r24, r24
    1830:	99 1f       	adc	r25, r25
    1832:	0a 94       	dec	r0
    1834:	e2 f7       	brpl	.-8      	; 0x182e <display+0x10a>
    1836:	28 2b       	or	r18, r24
    1838:	2d 93       	st	X+, r18
    183a:	80 e0       	ldi	r24, 0x00	; 0
    183c:	af 38       	cpi	r26, 0x8F	; 143
    183e:	b8 07       	cpc	r27, r24
    1840:	51 f7       	brne	.-44     	; 0x1816 <display+0xf2>
    1842:	fa 01       	movw	r30, r20
    1844:	ee 56       	subi	r30, 0x6E	; 110
    1846:	ff 4f       	sbci	r31, 0xFF	; 255
    1848:	18 97       	sbiw	r26, 0x08	; 8
    184a:	16 c0       	rjmp	.+44     	; 0x1878 <display+0x154>
    184c:	80 91 8a 02 	lds	r24, 0x028A
    1850:	e8 2f       	mov	r30, r24
    1852:	f0 e0       	ldi	r31, 0x00	; 0
    1854:	93 e0       	ldi	r25, 0x03	; 3
    1856:	ee 0f       	add	r30, r30
    1858:	ff 1f       	adc	r31, r31
    185a:	9a 95       	dec	r25
    185c:	e1 f7       	brne	.-8      	; 0x1856 <display+0x132>
    185e:	ee 56       	subi	r30, 0x6E	; 110
    1860:	ff 4f       	sbci	r31, 0xFF	; 255
    1862:	80 91 8a 02 	lds	r24, 0x028A
    1866:	a8 2f       	mov	r26, r24
    1868:	b0 e0       	ldi	r27, 0x00	; 0
    186a:	83 e0       	ldi	r24, 0x03	; 3
    186c:	aa 0f       	add	r26, r26
    186e:	bb 1f       	adc	r27, r27
    1870:	8a 95       	dec	r24
    1872:	e1 f7       	brne	.-8      	; 0x186c <display+0x148>
    1874:	ae 5e       	subi	r26, 0xEE	; 238
    1876:	be 4f       	sbci	r27, 0xFE	; 254
    1878:	80 91 7a 00 	lds	r24, 0x007A
    187c:	88 23       	and	r24, r24
    187e:	09 f4       	brne	.+2      	; 0x1882 <display+0x15e>
    1880:	a5 c1       	rjmp	.+842    	; 0x1bcc <display+0x4a8>
    1882:	29 c0       	rjmp	.+82     	; 0x18d6 <display+0x1b2>
    1884:	94 98       	cbi	0x12, 4	; 18
    1886:	95 98       	cbi	0x12, 5	; 18
    1888:	d9 98       	cbi	0x1b, 1	; 27
    188a:	da 98       	cbi	0x1b, 2	; 27
    188c:	db 98       	cbi	0x1b, 3	; 27
    188e:	dc 98       	cbi	0x1b, 4	; 27
    1890:	80 81       	ld	r24, Z
    1892:	90 e0       	ldi	r25, 0x00	; 0
    1894:	02 2e       	mov	r0, r18
    1896:	02 c0       	rjmp	.+4      	; 0x189c <display+0x178>
    1898:	95 95       	asr	r25
    189a:	87 95       	ror	r24
    189c:	0a 94       	dec	r0
    189e:	e2 f7       	brpl	.-8      	; 0x1898 <display+0x174>
    18a0:	80 fd       	sbrc	r24, 0
    18a2:	94 9a       	sbi	0x12, 4	; 18
    18a4:	8c 91       	ld	r24, X
    18a6:	90 e0       	ldi	r25, 0x00	; 0
    18a8:	02 2e       	mov	r0, r18
    18aa:	02 c0       	rjmp	.+4      	; 0x18b0 <display+0x18c>
    18ac:	95 95       	asr	r25
    18ae:	87 95       	ror	r24
    18b0:	0a 94       	dec	r0
    18b2:	e2 f7       	brpl	.-8      	; 0x18ac <display+0x188>
    18b4:	80 fd       	sbrc	r24, 0
    18b6:	95 9a       	sbi	0x12, 5	; 18
    18b8:	93 98       	cbi	0x12, 3	; 18
    18ba:	93 9a       	sbi	0x12, 3	; 18
    18bc:	21 50       	subi	r18, 0x01	; 1
    18be:	30 40       	sbci	r19, 0x00	; 0
    18c0:	8f ef       	ldi	r24, 0xFF	; 255
    18c2:	2f 3f       	cpi	r18, 0xFF	; 255
    18c4:	38 07       	cpc	r19, r24
    18c6:	f1 f6       	brne	.-68     	; 0x1884 <display+0x160>
    18c8:	4f 5f       	subi	r20, 0xFF	; 255
    18ca:	48 30       	cpi	r20, 0x08	; 8
    18cc:	09 f4       	brne	.+2      	; 0x18d0 <display+0x1ac>
    18ce:	1b c1       	rjmp	.+566    	; 0x1b06 <display+0x3e2>
    18d0:	31 96       	adiw	r30, 0x01	; 1
    18d2:	11 96       	adiw	r26, 0x01	; 1
    18d4:	7c c1       	rjmp	.+760    	; 0x1bce <display+0x4aa>
    18d6:	81 30       	cpi	r24, 0x01	; 1
    18d8:	51 f5       	brne	.+84     	; 0x192e <display+0x20a>
    18da:	7c c1       	rjmp	.+760    	; 0x1bd4 <display+0x4b0>
    18dc:	94 98       	cbi	0x12, 4	; 18
    18de:	95 98       	cbi	0x12, 5	; 18
    18e0:	d9 98       	cbi	0x1b, 1	; 27
    18e2:	da 98       	cbi	0x1b, 2	; 27
    18e4:	db 98       	cbi	0x1b, 3	; 27
    18e6:	dc 98       	cbi	0x1b, 4	; 27
    18e8:	80 81       	ld	r24, Z
    18ea:	90 e0       	ldi	r25, 0x00	; 0
    18ec:	02 2e       	mov	r0, r18
    18ee:	02 c0       	rjmp	.+4      	; 0x18f4 <display+0x1d0>
    18f0:	95 95       	asr	r25
    18f2:	87 95       	ror	r24
    18f4:	0a 94       	dec	r0
    18f6:	e2 f7       	brpl	.-8      	; 0x18f0 <display+0x1cc>
    18f8:	80 fd       	sbrc	r24, 0
    18fa:	d9 9a       	sbi	0x1b, 1	; 27
    18fc:	8c 91       	ld	r24, X
    18fe:	90 e0       	ldi	r25, 0x00	; 0
    1900:	02 2e       	mov	r0, r18
    1902:	02 c0       	rjmp	.+4      	; 0x1908 <display+0x1e4>
    1904:	95 95       	asr	r25
    1906:	87 95       	ror	r24
    1908:	0a 94       	dec	r0
    190a:	e2 f7       	brpl	.-8      	; 0x1904 <display+0x1e0>
    190c:	80 fd       	sbrc	r24, 0
    190e:	da 9a       	sbi	0x1b, 2	; 27
    1910:	93 98       	cbi	0x12, 3	; 18
    1912:	93 9a       	sbi	0x12, 3	; 18
    1914:	21 50       	subi	r18, 0x01	; 1
    1916:	30 40       	sbci	r19, 0x00	; 0
    1918:	8f ef       	ldi	r24, 0xFF	; 255
    191a:	2f 3f       	cpi	r18, 0xFF	; 255
    191c:	38 07       	cpc	r19, r24
    191e:	f1 f6       	brne	.-68     	; 0x18dc <display+0x1b8>
    1920:	4f 5f       	subi	r20, 0xFF	; 255
    1922:	48 30       	cpi	r20, 0x08	; 8
    1924:	09 f4       	brne	.+2      	; 0x1928 <display+0x204>
    1926:	ef c0       	rjmp	.+478    	; 0x1b06 <display+0x3e2>
    1928:	31 96       	adiw	r30, 0x01	; 1
    192a:	11 96       	adiw	r26, 0x01	; 1
    192c:	54 c1       	rjmp	.+680    	; 0x1bd6 <display+0x4b2>
    192e:	82 30       	cpi	r24, 0x02	; 2
    1930:	71 f5       	brne	.+92     	; 0x198e <display+0x26a>
    1932:	54 c1       	rjmp	.+680    	; 0x1bdc <display+0x4b8>
    1934:	94 98       	cbi	0x12, 4	; 18
    1936:	95 98       	cbi	0x12, 5	; 18
    1938:	d9 98       	cbi	0x1b, 1	; 27
    193a:	da 98       	cbi	0x1b, 2	; 27
    193c:	db 98       	cbi	0x1b, 3	; 27
    193e:	dc 98       	cbi	0x1b, 4	; 27
    1940:	80 81       	ld	r24, Z
    1942:	90 e0       	ldi	r25, 0x00	; 0
    1944:	02 2e       	mov	r0, r18
    1946:	02 c0       	rjmp	.+4      	; 0x194c <display+0x228>
    1948:	95 95       	asr	r25
    194a:	87 95       	ror	r24
    194c:	0a 94       	dec	r0
    194e:	e2 f7       	brpl	.-8      	; 0x1948 <display+0x224>
    1950:	80 ff       	sbrs	r24, 0
    1952:	02 c0       	rjmp	.+4      	; 0x1958 <display+0x234>
    1954:	94 9a       	sbi	0x12, 4	; 18
    1956:	d9 9a       	sbi	0x1b, 1	; 27
    1958:	8c 91       	ld	r24, X
    195a:	90 e0       	ldi	r25, 0x00	; 0
    195c:	02 2e       	mov	r0, r18
    195e:	02 c0       	rjmp	.+4      	; 0x1964 <display+0x240>
    1960:	95 95       	asr	r25
    1962:	87 95       	ror	r24
    1964:	0a 94       	dec	r0
    1966:	e2 f7       	brpl	.-8      	; 0x1960 <display+0x23c>
    1968:	80 ff       	sbrs	r24, 0
    196a:	02 c0       	rjmp	.+4      	; 0x1970 <display+0x24c>
    196c:	95 9a       	sbi	0x12, 5	; 18
    196e:	da 9a       	sbi	0x1b, 2	; 27
    1970:	93 98       	cbi	0x12, 3	; 18
    1972:	93 9a       	sbi	0x12, 3	; 18
    1974:	21 50       	subi	r18, 0x01	; 1
    1976:	30 40       	sbci	r19, 0x00	; 0
    1978:	8f ef       	ldi	r24, 0xFF	; 255
    197a:	2f 3f       	cpi	r18, 0xFF	; 255
    197c:	38 07       	cpc	r19, r24
    197e:	d1 f6       	brne	.-76     	; 0x1934 <display+0x210>
    1980:	4f 5f       	subi	r20, 0xFF	; 255
    1982:	48 30       	cpi	r20, 0x08	; 8
    1984:	09 f4       	brne	.+2      	; 0x1988 <display+0x264>
    1986:	bf c0       	rjmp	.+382    	; 0x1b06 <display+0x3e2>
    1988:	31 96       	adiw	r30, 0x01	; 1
    198a:	11 96       	adiw	r26, 0x01	; 1
    198c:	28 c1       	rjmp	.+592    	; 0x1bde <display+0x4ba>
    198e:	83 30       	cpi	r24, 0x03	; 3
    1990:	51 f5       	brne	.+84     	; 0x19e6 <display+0x2c2>
    1992:	28 c1       	rjmp	.+592    	; 0x1be4 <display+0x4c0>
    1994:	94 98       	cbi	0x12, 4	; 18
    1996:	95 98       	cbi	0x12, 5	; 18
    1998:	d9 98       	cbi	0x1b, 1	; 27
    199a:	da 98       	cbi	0x1b, 2	; 27
    199c:	db 98       	cbi	0x1b, 3	; 27
    199e:	dc 98       	cbi	0x1b, 4	; 27
    19a0:	80 81       	ld	r24, Z
    19a2:	90 e0       	ldi	r25, 0x00	; 0
    19a4:	02 2e       	mov	r0, r18
    19a6:	02 c0       	rjmp	.+4      	; 0x19ac <display+0x288>
    19a8:	95 95       	asr	r25
    19aa:	87 95       	ror	r24
    19ac:	0a 94       	dec	r0
    19ae:	e2 f7       	brpl	.-8      	; 0x19a8 <display+0x284>
    19b0:	80 fd       	sbrc	r24, 0
    19b2:	db 9a       	sbi	0x1b, 3	; 27
    19b4:	8c 91       	ld	r24, X
    19b6:	90 e0       	ldi	r25, 0x00	; 0
    19b8:	02 2e       	mov	r0, r18
    19ba:	02 c0       	rjmp	.+4      	; 0x19c0 <display+0x29c>
    19bc:	95 95       	asr	r25
    19be:	87 95       	ror	r24
    19c0:	0a 94       	dec	r0
    19c2:	e2 f7       	brpl	.-8      	; 0x19bc <display+0x298>
    19c4:	80 fd       	sbrc	r24, 0
    19c6:	dc 9a       	sbi	0x1b, 4	; 27
    19c8:	93 98       	cbi	0x12, 3	; 18
    19ca:	93 9a       	sbi	0x12, 3	; 18
    19cc:	21 50       	subi	r18, 0x01	; 1
    19ce:	30 40       	sbci	r19, 0x00	; 0
    19d0:	8f ef       	ldi	r24, 0xFF	; 255
    19d2:	2f 3f       	cpi	r18, 0xFF	; 255
    19d4:	38 07       	cpc	r19, r24
    19d6:	f1 f6       	brne	.-68     	; 0x1994 <display+0x270>
    19d8:	4f 5f       	subi	r20, 0xFF	; 255
    19da:	48 30       	cpi	r20, 0x08	; 8
    19dc:	09 f4       	brne	.+2      	; 0x19e0 <display+0x2bc>
    19de:	93 c0       	rjmp	.+294    	; 0x1b06 <display+0x3e2>
    19e0:	31 96       	adiw	r30, 0x01	; 1
    19e2:	11 96       	adiw	r26, 0x01	; 1
    19e4:	00 c1       	rjmp	.+512    	; 0x1be6 <display+0x4c2>
    19e6:	84 30       	cpi	r24, 0x04	; 4
    19e8:	71 f5       	brne	.+92     	; 0x1a46 <display+0x322>
    19ea:	00 c1       	rjmp	.+512    	; 0x1bec <display+0x4c8>
    19ec:	94 98       	cbi	0x12, 4	; 18
    19ee:	95 98       	cbi	0x12, 5	; 18
    19f0:	d9 98       	cbi	0x1b, 1	; 27
    19f2:	da 98       	cbi	0x1b, 2	; 27
    19f4:	db 98       	cbi	0x1b, 3	; 27
    19f6:	dc 98       	cbi	0x1b, 4	; 27
    19f8:	80 81       	ld	r24, Z
    19fa:	90 e0       	ldi	r25, 0x00	; 0
    19fc:	02 2e       	mov	r0, r18
    19fe:	02 c0       	rjmp	.+4      	; 0x1a04 <display+0x2e0>
    1a00:	95 95       	asr	r25
    1a02:	87 95       	ror	r24
    1a04:	0a 94       	dec	r0
    1a06:	e2 f7       	brpl	.-8      	; 0x1a00 <display+0x2dc>
    1a08:	80 ff       	sbrs	r24, 0
    1a0a:	02 c0       	rjmp	.+4      	; 0x1a10 <display+0x2ec>
    1a0c:	d9 9a       	sbi	0x1b, 1	; 27
    1a0e:	db 9a       	sbi	0x1b, 3	; 27
    1a10:	8c 91       	ld	r24, X
    1a12:	90 e0       	ldi	r25, 0x00	; 0
    1a14:	02 2e       	mov	r0, r18
    1a16:	02 c0       	rjmp	.+4      	; 0x1a1c <display+0x2f8>
    1a18:	95 95       	asr	r25
    1a1a:	87 95       	ror	r24
    1a1c:	0a 94       	dec	r0
    1a1e:	e2 f7       	brpl	.-8      	; 0x1a18 <display+0x2f4>
    1a20:	80 ff       	sbrs	r24, 0
    1a22:	02 c0       	rjmp	.+4      	; 0x1a28 <display+0x304>
    1a24:	da 9a       	sbi	0x1b, 2	; 27
    1a26:	dc 9a       	sbi	0x1b, 4	; 27
    1a28:	93 98       	cbi	0x12, 3	; 18
    1a2a:	93 9a       	sbi	0x12, 3	; 18
    1a2c:	21 50       	subi	r18, 0x01	; 1
    1a2e:	30 40       	sbci	r19, 0x00	; 0
    1a30:	8f ef       	ldi	r24, 0xFF	; 255
    1a32:	2f 3f       	cpi	r18, 0xFF	; 255
    1a34:	38 07       	cpc	r19, r24
    1a36:	d1 f6       	brne	.-76     	; 0x19ec <display+0x2c8>
    1a38:	4f 5f       	subi	r20, 0xFF	; 255
    1a3a:	48 30       	cpi	r20, 0x08	; 8
    1a3c:	09 f4       	brne	.+2      	; 0x1a40 <display+0x31c>
    1a3e:	63 c0       	rjmp	.+198    	; 0x1b06 <display+0x3e2>
    1a40:	31 96       	adiw	r30, 0x01	; 1
    1a42:	11 96       	adiw	r26, 0x01	; 1
    1a44:	d4 c0       	rjmp	.+424    	; 0x1bee <display+0x4ca>
    1a46:	85 30       	cpi	r24, 0x05	; 5
    1a48:	69 f5       	brne	.+90     	; 0x1aa4 <display+0x380>
    1a4a:	d4 c0       	rjmp	.+424    	; 0x1bf4 <display+0x4d0>
    1a4c:	94 98       	cbi	0x12, 4	; 18
    1a4e:	95 98       	cbi	0x12, 5	; 18
    1a50:	d9 98       	cbi	0x1b, 1	; 27
    1a52:	da 98       	cbi	0x1b, 2	; 27
    1a54:	db 98       	cbi	0x1b, 3	; 27
    1a56:	dc 98       	cbi	0x1b, 4	; 27
    1a58:	80 81       	ld	r24, Z
    1a5a:	90 e0       	ldi	r25, 0x00	; 0
    1a5c:	02 2e       	mov	r0, r18
    1a5e:	02 c0       	rjmp	.+4      	; 0x1a64 <display+0x340>
    1a60:	95 95       	asr	r25
    1a62:	87 95       	ror	r24
    1a64:	0a 94       	dec	r0
    1a66:	e2 f7       	brpl	.-8      	; 0x1a60 <display+0x33c>
    1a68:	80 ff       	sbrs	r24, 0
    1a6a:	02 c0       	rjmp	.+4      	; 0x1a70 <display+0x34c>
    1a6c:	94 9a       	sbi	0x12, 4	; 18
    1a6e:	db 9a       	sbi	0x1b, 3	; 27
    1a70:	8c 91       	ld	r24, X
    1a72:	90 e0       	ldi	r25, 0x00	; 0
    1a74:	02 2e       	mov	r0, r18
    1a76:	02 c0       	rjmp	.+4      	; 0x1a7c <display+0x358>
    1a78:	95 95       	asr	r25
    1a7a:	87 95       	ror	r24
    1a7c:	0a 94       	dec	r0
    1a7e:	e2 f7       	brpl	.-8      	; 0x1a78 <display+0x354>
    1a80:	80 ff       	sbrs	r24, 0
    1a82:	02 c0       	rjmp	.+4      	; 0x1a88 <display+0x364>
    1a84:	95 9a       	sbi	0x12, 5	; 18
    1a86:	dc 9a       	sbi	0x1b, 4	; 27
    1a88:	93 98       	cbi	0x12, 3	; 18
    1a8a:	93 9a       	sbi	0x12, 3	; 18
    1a8c:	21 50       	subi	r18, 0x01	; 1
    1a8e:	30 40       	sbci	r19, 0x00	; 0
    1a90:	8f ef       	ldi	r24, 0xFF	; 255
    1a92:	2f 3f       	cpi	r18, 0xFF	; 255
    1a94:	38 07       	cpc	r19, r24
    1a96:	d1 f6       	brne	.-76     	; 0x1a4c <display+0x328>
    1a98:	4f 5f       	subi	r20, 0xFF	; 255
    1a9a:	48 30       	cpi	r20, 0x08	; 8
    1a9c:	a1 f1       	breq	.+104    	; 0x1b06 <display+0x3e2>
    1a9e:	31 96       	adiw	r30, 0x01	; 1
    1aa0:	11 96       	adiw	r26, 0x01	; 1
    1aa2:	a9 c0       	rjmp	.+338    	; 0x1bf6 <display+0x4d2>
    1aa4:	86 30       	cpi	r24, 0x06	; 6
    1aa6:	79 f5       	brne	.+94     	; 0x1b06 <display+0x3e2>
    1aa8:	a9 c0       	rjmp	.+338    	; 0x1bfc <display+0x4d8>
    1aaa:	94 98       	cbi	0x12, 4	; 18
    1aac:	95 98       	cbi	0x12, 5	; 18
    1aae:	d9 98       	cbi	0x1b, 1	; 27
    1ab0:	da 98       	cbi	0x1b, 2	; 27
    1ab2:	db 98       	cbi	0x1b, 3	; 27
    1ab4:	dc 98       	cbi	0x1b, 4	; 27
    1ab6:	80 81       	ld	r24, Z
    1ab8:	90 e0       	ldi	r25, 0x00	; 0
    1aba:	02 2e       	mov	r0, r18
    1abc:	02 c0       	rjmp	.+4      	; 0x1ac2 <display+0x39e>
    1abe:	95 95       	asr	r25
    1ac0:	87 95       	ror	r24
    1ac2:	0a 94       	dec	r0
    1ac4:	e2 f7       	brpl	.-8      	; 0x1abe <display+0x39a>
    1ac6:	80 ff       	sbrs	r24, 0
    1ac8:	03 c0       	rjmp	.+6      	; 0x1ad0 <display+0x3ac>
    1aca:	94 9a       	sbi	0x12, 4	; 18
    1acc:	d9 9a       	sbi	0x1b, 1	; 27
    1ace:	db 9a       	sbi	0x1b, 3	; 27
    1ad0:	8c 91       	ld	r24, X
    1ad2:	90 e0       	ldi	r25, 0x00	; 0
    1ad4:	02 2e       	mov	r0, r18
    1ad6:	02 c0       	rjmp	.+4      	; 0x1adc <display+0x3b8>
    1ad8:	95 95       	asr	r25
    1ada:	87 95       	ror	r24
    1adc:	0a 94       	dec	r0
    1ade:	e2 f7       	brpl	.-8      	; 0x1ad8 <display+0x3b4>
    1ae0:	80 ff       	sbrs	r24, 0
    1ae2:	03 c0       	rjmp	.+6      	; 0x1aea <display+0x3c6>
    1ae4:	95 9a       	sbi	0x12, 5	; 18
    1ae6:	da 9a       	sbi	0x1b, 2	; 27
    1ae8:	dc 9a       	sbi	0x1b, 4	; 27
    1aea:	93 98       	cbi	0x12, 3	; 18
    1aec:	93 9a       	sbi	0x12, 3	; 18
    1aee:	21 50       	subi	r18, 0x01	; 1
    1af0:	30 40       	sbci	r19, 0x00	; 0
    1af2:	8f ef       	ldi	r24, 0xFF	; 255
    1af4:	2f 3f       	cpi	r18, 0xFF	; 255
    1af6:	38 07       	cpc	r19, r24
    1af8:	c1 f6       	brne	.-80     	; 0x1aaa <display+0x386>
    1afa:	4f 5f       	subi	r20, 0xFF	; 255
    1afc:	48 30       	cpi	r20, 0x08	; 8
    1afe:	19 f0       	breq	.+6      	; 0x1b06 <display+0x3e2>
    1b00:	31 96       	adiw	r30, 0x01	; 1
    1b02:	11 96       	adiw	r26, 0x01	; 1
    1b04:	7c c0       	rjmp	.+248    	; 0x1bfe <display+0x4da>
    1b06:	92 9a       	sbi	0x12, 2	; 18
    1b08:	80 91 8a 02 	lds	r24, 0x028A
    1b0c:	87 30       	cpi	r24, 0x07	; 7
    1b0e:	99 f1       	breq	.+102    	; 0x1b76 <display+0x452>
    1b10:	88 30       	cpi	r24, 0x08	; 8
    1b12:	70 f4       	brcc	.+28     	; 0x1b30 <display+0x40c>
    1b14:	83 30       	cpi	r24, 0x03	; 3
    1b16:	39 f1       	breq	.+78     	; 0x1b66 <display+0x442>
    1b18:	84 30       	cpi	r24, 0x04	; 4
    1b1a:	28 f4       	brcc	.+10     	; 0x1b26 <display+0x402>
    1b1c:	81 30       	cpi	r24, 0x01	; 1
    1b1e:	e1 f0       	breq	.+56     	; 0x1b58 <display+0x434>
    1b20:	82 30       	cpi	r24, 0x02	; 2
    1b22:	e0 f4       	brcc	.+56     	; 0x1b5c <display+0x438>
    1b24:	17 c0       	rjmp	.+46     	; 0x1b54 <display+0x430>
    1b26:	85 30       	cpi	r24, 0x05	; 5
    1b28:	11 f1       	breq	.+68     	; 0x1b6e <display+0x44a>
    1b2a:	86 30       	cpi	r24, 0x06	; 6
    1b2c:	10 f5       	brcc	.+68     	; 0x1b72 <display+0x44e>
    1b2e:	1d c0       	rjmp	.+58     	; 0x1b6a <display+0x446>
    1b30:	8b 30       	cpi	r24, 0x0B	; 11
    1b32:	59 f1       	breq	.+86     	; 0x1b8a <display+0x466>
    1b34:	8c 30       	cpi	r24, 0x0C	; 12
    1b36:	28 f4       	brcc	.+10     	; 0x1b42 <display+0x41e>
    1b38:	89 30       	cpi	r24, 0x09	; 9
    1b3a:	11 f1       	breq	.+68     	; 0x1b80 <display+0x45c>
    1b3c:	8a 30       	cpi	r24, 0x0A	; 10
    1b3e:	18 f5       	brcc	.+70     	; 0x1b86 <display+0x462>
    1b40:	1c c0       	rjmp	.+56     	; 0x1b7a <display+0x456>
    1b42:	8d 30       	cpi	r24, 0x0D	; 13
    1b44:	49 f1       	breq	.+82     	; 0x1b98 <display+0x474>
    1b46:	8d 30       	cpi	r24, 0x0D	; 13
    1b48:	18 f1       	brcs	.+70     	; 0x1b90 <display+0x46c>
    1b4a:	8e 30       	cpi	r24, 0x0E	; 14
    1b4c:	49 f1       	breq	.+82     	; 0x1ba0 <display+0x47c>
    1b4e:	8f 30       	cpi	r24, 0x0F	; 15
    1b50:	79 f5       	brne	.+94     	; 0x1bb0 <display+0x48c>
    1b52:	29 c0       	rjmp	.+82     	; 0x1ba6 <display+0x482>
    1b54:	c4 98       	cbi	0x18, 4	; 24
    1b56:	12 c0       	rjmp	.+36     	; 0x1b7c <display+0x458>
    1b58:	c4 98       	cbi	0x18, 4	; 24
    1b5a:	13 c0       	rjmp	.+38     	; 0x1b82 <display+0x45e>
    1b5c:	c4 98       	cbi	0x18, 4	; 24
    1b5e:	c2 98       	cbi	0x18, 2	; 24
    1b60:	c1 9a       	sbi	0x18, 1	; 24
    1b62:	c0 98       	cbi	0x18, 0	; 24
    1b64:	27 c0       	rjmp	.+78     	; 0x1bb4 <display+0x490>
    1b66:	c4 98       	cbi	0x18, 4	; 24
    1b68:	11 c0       	rjmp	.+34     	; 0x1b8c <display+0x468>
    1b6a:	c4 98       	cbi	0x18, 4	; 24
    1b6c:	12 c0       	rjmp	.+36     	; 0x1b92 <display+0x46e>
    1b6e:	c4 98       	cbi	0x18, 4	; 24
    1b70:	14 c0       	rjmp	.+40     	; 0x1b9a <display+0x476>
    1b72:	c4 98       	cbi	0x18, 4	; 24
    1b74:	16 c0       	rjmp	.+44     	; 0x1ba2 <display+0x47e>
    1b76:	c4 98       	cbi	0x18, 4	; 24
    1b78:	17 c0       	rjmp	.+46     	; 0x1ba8 <display+0x484>
    1b7a:	c4 9a       	sbi	0x18, 4	; 24
    1b7c:	c2 98       	cbi	0x18, 2	; 24
    1b7e:	0a c0       	rjmp	.+20     	; 0x1b94 <display+0x470>
    1b80:	c4 9a       	sbi	0x18, 4	; 24
    1b82:	c2 98       	cbi	0x18, 2	; 24
    1b84:	0b c0       	rjmp	.+22     	; 0x1b9c <display+0x478>
    1b86:	c4 9a       	sbi	0x18, 4	; 24
    1b88:	ea cf       	rjmp	.-44     	; 0x1b5e <display+0x43a>
    1b8a:	c4 9a       	sbi	0x18, 4	; 24
    1b8c:	c2 98       	cbi	0x18, 2	; 24
    1b8e:	0d c0       	rjmp	.+26     	; 0x1baa <display+0x486>
    1b90:	c4 9a       	sbi	0x18, 4	; 24
    1b92:	c2 9a       	sbi	0x18, 2	; 24
    1b94:	c1 98       	cbi	0x18, 1	; 24
    1b96:	e5 cf       	rjmp	.-54     	; 0x1b62 <display+0x43e>
    1b98:	c4 9a       	sbi	0x18, 4	; 24
    1b9a:	c2 9a       	sbi	0x18, 2	; 24
    1b9c:	c1 98       	cbi	0x18, 1	; 24
    1b9e:	06 c0       	rjmp	.+12     	; 0x1bac <display+0x488>
    1ba0:	c4 9a       	sbi	0x18, 4	; 24
    1ba2:	c2 9a       	sbi	0x18, 2	; 24
    1ba4:	dd cf       	rjmp	.-70     	; 0x1b60 <display+0x43c>
    1ba6:	c4 9a       	sbi	0x18, 4	; 24
    1ba8:	c2 9a       	sbi	0x18, 2	; 24
    1baa:	c1 9a       	sbi	0x18, 1	; 24
    1bac:	c0 9a       	sbi	0x18, 0	; 24
    1bae:	02 c0       	rjmp	.+4      	; 0x1bb4 <display+0x490>
    1bb0:	10 92 8a 02 	sts	0x028A, r1
    1bb4:	80 91 8a 02 	lds	r24, 0x028A
    1bb8:	8f 5f       	subi	r24, 0xFF	; 255
    1bba:	80 93 8a 02 	sts	0x028A, r24
    1bbe:	80 91 8a 02 	lds	r24, 0x028A
    1bc2:	80 31       	cpi	r24, 0x10	; 16
    1bc4:	f9 f4       	brne	.+62     	; 0x1c04 <display+0x4e0>
    1bc6:	10 92 8a 02 	sts	0x028A, r1
    1bca:	1c c0       	rjmp	.+56     	; 0x1c04 <display+0x4e0>
    1bcc:	40 e0       	ldi	r20, 0x00	; 0
    1bce:	27 e0       	ldi	r18, 0x07	; 7
    1bd0:	30 e0       	ldi	r19, 0x00	; 0
    1bd2:	58 ce       	rjmp	.-848    	; 0x1884 <display+0x160>
    1bd4:	40 e0       	ldi	r20, 0x00	; 0
    1bd6:	27 e0       	ldi	r18, 0x07	; 7
    1bd8:	30 e0       	ldi	r19, 0x00	; 0
    1bda:	80 ce       	rjmp	.-768    	; 0x18dc <display+0x1b8>
    1bdc:	40 e0       	ldi	r20, 0x00	; 0
    1bde:	27 e0       	ldi	r18, 0x07	; 7
    1be0:	30 e0       	ldi	r19, 0x00	; 0
    1be2:	a8 ce       	rjmp	.-688    	; 0x1934 <display+0x210>
    1be4:	40 e0       	ldi	r20, 0x00	; 0
    1be6:	27 e0       	ldi	r18, 0x07	; 7
    1be8:	30 e0       	ldi	r19, 0x00	; 0
    1bea:	d4 ce       	rjmp	.-600    	; 0x1994 <display+0x270>
    1bec:	40 e0       	ldi	r20, 0x00	; 0
    1bee:	27 e0       	ldi	r18, 0x07	; 7
    1bf0:	30 e0       	ldi	r19, 0x00	; 0
    1bf2:	fc ce       	rjmp	.-520    	; 0x19ec <display+0x2c8>
    1bf4:	40 e0       	ldi	r20, 0x00	; 0
    1bf6:	27 e0       	ldi	r18, 0x07	; 7
    1bf8:	30 e0       	ldi	r19, 0x00	; 0
    1bfa:	28 cf       	rjmp	.-432    	; 0x1a4c <display+0x328>
    1bfc:	40 e0       	ldi	r20, 0x00	; 0
    1bfe:	27 e0       	ldi	r18, 0x07	; 7
    1c00:	30 e0       	ldi	r19, 0x00	; 0
    1c02:	53 cf       	rjmp	.-346    	; 0x1aaa <display+0x386>
    1c04:	df 91       	pop	r29
    1c06:	cf 91       	pop	r28
    1c08:	08 95       	ret

00001c0a <twi_init>:
    1c0a:	16 be       	out	0x36, r1	; 54
    1c0c:	84 e6       	ldi	r24, 0x64	; 100
    1c0e:	80 b9       	out	0x00, r24	; 0
    1c10:	11 b8       	out	0x01, r1	; 1
    1c12:	12 b8       	out	0x02, r1	; 2
    1c14:	84 e0       	ldi	r24, 0x04	; 4
    1c16:	86 bf       	out	0x36, r24	; 54
    1c18:	08 95       	ret

00001c1a <i2cstart>:
    1c1a:	84 ea       	ldi	r24, 0xA4	; 164
    1c1c:	86 bf       	out	0x36, r24	; 54
    1c1e:	06 b6       	in	r0, 0x36	; 54
    1c20:	07 fe       	sbrs	r0, 7
    1c22:	fd cf       	rjmp	.-6      	; 0x1c1e <i2cstart+0x4>
    1c24:	08 95       	ret

00001c26 <i2cwt>:
    1c26:	83 b9       	out	0x03, r24	; 3
    1c28:	84 e8       	ldi	r24, 0x84	; 132
    1c2a:	86 bf       	out	0x36, r24	; 54
    1c2c:	06 b6       	in	r0, 0x36	; 54
    1c2e:	07 fe       	sbrs	r0, 7
    1c30:	fd cf       	rjmp	.-6      	; 0x1c2c <i2cwt+0x6>
    1c32:	00 00       	nop
    1c34:	81 b1       	in	r24, 0x01	; 1
    1c36:	90 e0       	ldi	r25, 0x00	; 0
    1c38:	88 7f       	andi	r24, 0xF8	; 248
    1c3a:	90 70       	andi	r25, 0x00	; 0
    1c3c:	08 95       	ret

00001c3e <i2crd>:
    1c3e:	84 ec       	ldi	r24, 0xC4	; 196
    1c40:	86 bf       	out	0x36, r24	; 54
    1c42:	06 b6       	in	r0, 0x36	; 54
    1c44:	07 fe       	sbrs	r0, 7
    1c46:	fd cf       	rjmp	.-6      	; 0x1c42 <i2crd+0x4>
    1c48:	83 b1       	in	r24, 0x03	; 3
    1c4a:	90 e0       	ldi	r25, 0x00	; 0
    1c4c:	08 95       	ret

00001c4e <i2cstop>:
    1c4e:	84 e9       	ldi	r24, 0x94	; 148
    1c50:	86 bf       	out	0x36, r24	; 54
    1c52:	08 95       	ret

00001c54 <clear>:
    1c54:	fc 01       	movw	r30, r24
    1c56:	02 c0       	rjmp	.+4      	; 0x1c5c <clear+0x8>
    1c58:	11 92       	st	Z+, r1
    1c5a:	61 50       	subi	r22, 0x01	; 1
    1c5c:	66 23       	and	r22, r22
    1c5e:	e1 f7       	brne	.-8      	; 0x1c58 <clear+0x4>
    1c60:	08 95       	ret

00001c62 <PCF8536_wt>:
    1c62:	1f 93       	push	r17
    1c64:	cf 93       	push	r28
    1c66:	df 93       	push	r29
    1c68:	ec 01       	movw	r28, r24
    1c6a:	16 2f       	mov	r17, r22
    1c6c:	84 ea       	ldi	r24, 0xA4	; 164
    1c6e:	86 bf       	out	0x36, r24	; 54
    1c70:	06 b6       	in	r0, 0x36	; 54
    1c72:	07 fe       	sbrs	r0, 7
    1c74:	fd cf       	rjmp	.-6      	; 0x1c70 <PCF8536_wt+0xe>
    1c76:	8d 2f       	mov	r24, r29
    1c78:	99 27       	eor	r25, r25
    1c7a:	88 0f       	add	r24, r24
    1c7c:	8e 55       	subi	r24, 0x5E	; 94
    1c7e:	0e 94 13 0e 	call	0x1c26	; 0x1c26 <i2cwt>
    1c82:	88 31       	cpi	r24, 0x18	; 24
    1c84:	39 f4       	brne	.+14     	; 0x1c94 <PCF8536_wt+0x32>
    1c86:	8c 2f       	mov	r24, r28
    1c88:	0e 94 13 0e 	call	0x1c26	; 0x1c26 <i2cwt>
    1c8c:	81 2f       	mov	r24, r17
    1c8e:	0e 94 13 0e 	call	0x1c26	; 0x1c26 <i2cwt>
    1c92:	03 c0       	rjmp	.+6      	; 0x1c9a <PCF8536_wt+0x38>
    1c94:	81 e0       	ldi	r24, 0x01	; 1
    1c96:	80 93 99 02 	sts	0x0299, r24
    1c9a:	84 e9       	ldi	r24, 0x94	; 148
    1c9c:	86 bf       	out	0x36, r24	; 54
    1c9e:	df 91       	pop	r29
    1ca0:	cf 91       	pop	r28
    1ca2:	1f 91       	pop	r17
    1ca4:	08 95       	ret

00001ca6 <PCF8536_wt_p>:
    1ca6:	ef 92       	push	r14
    1ca8:	ff 92       	push	r15
    1caa:	1f 93       	push	r17
    1cac:	cf 93       	push	r28
    1cae:	df 93       	push	r29
    1cb0:	ec 01       	movw	r28, r24
    1cb2:	7b 01       	movw	r14, r22
    1cb4:	14 2f       	mov	r17, r20
    1cb6:	84 ea       	ldi	r24, 0xA4	; 164
    1cb8:	86 bf       	out	0x36, r24	; 54
    1cba:	06 b6       	in	r0, 0x36	; 54
    1cbc:	07 fe       	sbrs	r0, 7
    1cbe:	fd cf       	rjmp	.-6      	; 0x1cba <PCF8536_wt_p+0x14>
    1cc0:	8d 2f       	mov	r24, r29
    1cc2:	99 27       	eor	r25, r25
    1cc4:	88 0f       	add	r24, r24
    1cc6:	8e 55       	subi	r24, 0x5E	; 94
    1cc8:	0e 94 13 0e 	call	0x1c26	; 0x1c26 <i2cwt>
    1ccc:	88 31       	cpi	r24, 0x18	; 24
    1cce:	71 f4       	brne	.+28     	; 0x1cec <PCF8536_wt_p+0x46>
    1cd0:	8c 2f       	mov	r24, r28
    1cd2:	0e 94 13 0e 	call	0x1c26	; 0x1c26 <i2cwt>
    1cd6:	07 c0       	rjmp	.+14     	; 0x1ce6 <PCF8536_wt_p+0x40>
    1cd8:	f7 01       	movw	r30, r14
    1cda:	81 91       	ld	r24, Z+
    1cdc:	7f 01       	movw	r14, r30
    1cde:	0e 94 13 0e 	call	0x1c26	; 0x1c26 <i2cwt>
    1ce2:	00 00       	nop
    1ce4:	11 50       	subi	r17, 0x01	; 1
    1ce6:	11 23       	and	r17, r17
    1ce8:	b9 f7       	brne	.-18     	; 0x1cd8 <PCF8536_wt_p+0x32>
    1cea:	03 c0       	rjmp	.+6      	; 0x1cf2 <PCF8536_wt_p+0x4c>
    1cec:	81 e0       	ldi	r24, 0x01	; 1
    1cee:	80 93 99 02 	sts	0x0299, r24
    1cf2:	84 e9       	ldi	r24, 0x94	; 148
    1cf4:	86 bf       	out	0x36, r24	; 54
    1cf6:	df 91       	pop	r29
    1cf8:	cf 91       	pop	r28
    1cfa:	1f 91       	pop	r17
    1cfc:	ff 90       	pop	r15
    1cfe:	ef 90       	pop	r14
    1d00:	08 95       	ret

00001d02 <PCF8536_rd>:
    1d02:	ef 92       	push	r14
    1d04:	ff 92       	push	r15
    1d06:	0f 93       	push	r16
    1d08:	1f 93       	push	r17
    1d0a:	cf 93       	push	r28
    1d0c:	df 93       	push	r29
    1d0e:	ec 01       	movw	r28, r24
    1d10:	7b 01       	movw	r14, r22
    1d12:	14 2f       	mov	r17, r20
    1d14:	89 2f       	mov	r24, r25
    1d16:	99 27       	eor	r25, r25
    1d18:	08 2f       	mov	r16, r24
    1d1a:	00 0f       	add	r16, r16
    1d1c:	84 ea       	ldi	r24, 0xA4	; 164
    1d1e:	86 bf       	out	0x36, r24	; 54
    1d20:	06 b6       	in	r0, 0x36	; 54
    1d22:	07 fe       	sbrs	r0, 7
    1d24:	fd cf       	rjmp	.-6      	; 0x1d20 <PCF8536_rd+0x1e>
    1d26:	80 2f       	mov	r24, r16
    1d28:	8e 55       	subi	r24, 0x5E	; 94
    1d2a:	0e 94 13 0e 	call	0x1c26	; 0x1c26 <i2cwt>
    1d2e:	88 31       	cpi	r24, 0x18	; 24
    1d30:	21 f4       	brne	.+8      	; 0x1d3a <PCF8536_rd+0x38>
    1d32:	8c 2f       	mov	r24, r28
    1d34:	0e 94 13 0e 	call	0x1c26	; 0x1c26 <i2cwt>
    1d38:	03 c0       	rjmp	.+6      	; 0x1d40 <PCF8536_rd+0x3e>
    1d3a:	81 e0       	ldi	r24, 0x01	; 1
    1d3c:	80 93 99 02 	sts	0x0299, r24
    1d40:	84 ea       	ldi	r24, 0xA4	; 164
    1d42:	86 bf       	out	0x36, r24	; 54
    1d44:	06 b6       	in	r0, 0x36	; 54
    1d46:	07 fe       	sbrs	r0, 7
    1d48:	fd cf       	rjmp	.-6      	; 0x1d44 <PCF8536_rd+0x42>
    1d4a:	80 2f       	mov	r24, r16
    1d4c:	8d 55       	subi	r24, 0x5D	; 93
    1d4e:	0e 94 13 0e 	call	0x1c26	; 0x1c26 <i2cwt>
    1d52:	88 31       	cpi	r24, 0x18	; 24
    1d54:	21 f4       	brne	.+8      	; 0x1d5e <PCF8536_rd+0x5c>
    1d56:	8c 2f       	mov	r24, r28
    1d58:	0e 94 13 0e 	call	0x1c26	; 0x1c26 <i2cwt>
    1d5c:	0e c0       	rjmp	.+28     	; 0x1d7a <PCF8536_rd+0x78>
    1d5e:	81 e0       	ldi	r24, 0x01	; 1
    1d60:	80 93 99 02 	sts	0x0299, r24
    1d64:	0a c0       	rjmp	.+20     	; 0x1d7a <PCF8536_rd+0x78>
    1d66:	84 ec       	ldi	r24, 0xC4	; 196
    1d68:	86 bf       	out	0x36, r24	; 54
    1d6a:	06 b6       	in	r0, 0x36	; 54
    1d6c:	07 fe       	sbrs	r0, 7
    1d6e:	fd cf       	rjmp	.-6      	; 0x1d6a <PCF8536_rd+0x68>
    1d70:	83 b1       	in	r24, 0x03	; 3
    1d72:	f7 01       	movw	r30, r14
    1d74:	81 93       	st	Z+, r24
    1d76:	7f 01       	movw	r14, r30
    1d78:	11 50       	subi	r17, 0x01	; 1
    1d7a:	11 23       	and	r17, r17
    1d7c:	a1 f7       	brne	.-24     	; 0x1d66 <PCF8536_rd+0x64>
    1d7e:	df 91       	pop	r29
    1d80:	cf 91       	pop	r28
    1d82:	1f 91       	pop	r17
    1d84:	0f 91       	pop	r16
    1d86:	ff 90       	pop	r15
    1d88:	ef 90       	pop	r14
    1d8a:	08 95       	ret

00001d8c <PCF8563_init>:
    1d8c:	68 e0       	ldi	r22, 0x08	; 8
    1d8e:	81 ea       	ldi	r24, 0xA1	; 161
    1d90:	92 e0       	ldi	r25, 0x02	; 2
    1d92:	0e 94 2a 0e 	call	0x1c54	; 0x1c54 <clear>
    1d96:	68 e0       	ldi	r22, 0x08	; 8
    1d98:	8f e8       	ldi	r24, 0x8F	; 143
    1d9a:	92 e0       	ldi	r25, 0x02	; 2
    1d9c:	0e 94 2a 0e 	call	0x1c54	; 0x1c54 <clear>
    1da0:	60 e2       	ldi	r22, 0x20	; 32
    1da2:	80 e0       	ldi	r24, 0x00	; 0
    1da4:	90 e0       	ldi	r25, 0x00	; 0
    1da6:	0e 94 31 0e 	call	0x1c62	; 0x1c62 <PCF8536_wt>
    1daa:	60 e0       	ldi	r22, 0x00	; 0
    1dac:	80 e0       	ldi	r24, 0x00	; 0
    1dae:	90 e0       	ldi	r25, 0x00	; 0
    1db0:	0e 94 31 0e 	call	0x1c62	; 0x1c62 <PCF8536_wt>
    1db4:	08 95       	ret

00001db6 <Updata_time>:
    1db6:	47 e0       	ldi	r20, 0x07	; 7
    1db8:	6d e7       	ldi	r22, 0x7D	; 125
    1dba:	70 e0       	ldi	r23, 0x00	; 0
    1dbc:	82 e0       	ldi	r24, 0x02	; 2
    1dbe:	90 e0       	ldi	r25, 0x00	; 0
    1dc0:	0e 94 81 0e 	call	0x1d02	; 0x1d02 <PCF8536_rd>
    1dc4:	80 91 7d 00 	lds	r24, 0x007D
    1dc8:	98 2f       	mov	r25, r24
    1dca:	9f 77       	andi	r25, 0x7F	; 127
    1dcc:	90 93 7d 00 	sts	0x007D, r25
    1dd0:	20 91 7e 00 	lds	r18, 0x007E
    1dd4:	42 2f       	mov	r20, r18
    1dd6:	4f 77       	andi	r20, 0x7F	; 127
    1dd8:	40 93 7e 00 	sts	0x007E, r20
    1ddc:	50 91 7f 00 	lds	r21, 0x007F
    1de0:	75 2f       	mov	r23, r21
    1de2:	7f 73       	andi	r23, 0x3F	; 63
    1de4:	70 93 7f 00 	sts	0x007F, r23
    1de8:	e0 91 80 00 	lds	r30, 0x0080
    1dec:	ae 2f       	mov	r26, r30
    1dee:	af 73       	andi	r26, 0x3F	; 63
    1df0:	a0 93 80 00 	sts	0x0080, r26
    1df4:	f0 91 81 00 	lds	r31, 0x0081
    1df8:	f7 70       	andi	r31, 0x07	; 7
    1dfa:	f0 93 81 00 	sts	0x0081, r31
    1dfe:	30 91 82 00 	lds	r19, 0x0082
    1e02:	63 2f       	mov	r22, r19
    1e04:	6f 71       	andi	r22, 0x1F	; 31
    1e06:	60 93 82 00 	sts	0x0082, r22
    1e0a:	8f 70       	andi	r24, 0x0F	; 15
    1e0c:	80 93 6d 00 	sts	0x006D, r24
    1e10:	92 95       	swap	r25
    1e12:	9f 70       	andi	r25, 0x0F	; 15
    1e14:	90 93 6c 00 	sts	0x006C, r25
    1e18:	2f 70       	andi	r18, 0x0F	; 15
    1e1a:	20 93 6b 00 	sts	0x006B, r18
    1e1e:	42 95       	swap	r20
    1e20:	4f 70       	andi	r20, 0x0F	; 15
    1e22:	40 93 6a 00 	sts	0x006A, r20
    1e26:	5f 70       	andi	r21, 0x0F	; 15
    1e28:	50 93 69 00 	sts	0x0069, r21
    1e2c:	72 95       	swap	r23
    1e2e:	7f 70       	andi	r23, 0x0F	; 15
    1e30:	70 93 68 00 	sts	0x0068, r23
    1e34:	ef 70       	andi	r30, 0x0F	; 15
    1e36:	e0 93 67 00 	sts	0x0067, r30
    1e3a:	a2 95       	swap	r26
    1e3c:	af 70       	andi	r26, 0x0F	; 15
    1e3e:	a0 93 66 00 	sts	0x0066, r26
    1e42:	3f 70       	andi	r19, 0x0F	; 15
    1e44:	30 93 65 00 	sts	0x0065, r19
    1e48:	62 95       	swap	r22
    1e4a:	6f 70       	andi	r22, 0x0F	; 15
    1e4c:	60 93 64 00 	sts	0x0064, r22
    1e50:	80 91 83 00 	lds	r24, 0x0083
    1e54:	98 2f       	mov	r25, r24
    1e56:	9f 70       	andi	r25, 0x0F	; 15
    1e58:	90 93 63 00 	sts	0x0063, r25
    1e5c:	82 95       	swap	r24
    1e5e:	8f 70       	andi	r24, 0x0F	; 15
    1e60:	80 93 62 00 	sts	0x0062, r24
    1e64:	ff 5f       	subi	r31, 0xFF	; 255
    1e66:	f0 93 6e 00 	sts	0x006E, r31
    1e6a:	08 95       	ret

00001e6c <Write_time>:
    1e6c:	cf 93       	push	r28
    1e6e:	df 93       	push	r29
    1e70:	cd b7       	in	r28, 0x3d	; 61
    1e72:	de b7       	in	r29, 0x3e	; 62
    1e74:	27 97       	sbiw	r28, 0x07	; 7
    1e76:	0f b6       	in	r0, 0x3f	; 63
    1e78:	f8 94       	cli
    1e7a:	de bf       	out	0x3e, r29	; 62
    1e7c:	0f be       	out	0x3f, r0	; 63
    1e7e:	cd bf       	out	0x3d, r28	; 61
    1e80:	60 91 6a 00 	lds	r22, 0x006A
    1e84:	62 95       	swap	r22
    1e86:	60 7f       	andi	r22, 0xF0	; 240
    1e88:	80 91 6b 00 	lds	r24, 0x006B
    1e8c:	68 2b       	or	r22, r24
    1e8e:	50 91 68 00 	lds	r21, 0x0068
    1e92:	52 95       	swap	r21
    1e94:	50 7f       	andi	r21, 0xF0	; 240
    1e96:	80 91 69 00 	lds	r24, 0x0069
    1e9a:	58 2b       	or	r21, r24
    1e9c:	40 91 66 00 	lds	r20, 0x0066
    1ea0:	42 95       	swap	r20
    1ea2:	40 7f       	andi	r20, 0xF0	; 240
    1ea4:	80 91 67 00 	lds	r24, 0x0067
    1ea8:	48 2b       	or	r20, r24
    1eaa:	70 91 6e 00 	lds	r23, 0x006E
    1eae:	71 50       	subi	r23, 0x01	; 1
    1eb0:	30 91 64 00 	lds	r19, 0x0064
    1eb4:	32 95       	swap	r19
    1eb6:	30 7f       	andi	r19, 0xF0	; 240
    1eb8:	80 91 65 00 	lds	r24, 0x0065
    1ebc:	38 2b       	or	r19, r24
    1ebe:	20 91 62 00 	lds	r18, 0x0062
    1ec2:	22 95       	swap	r18
    1ec4:	20 7f       	andi	r18, 0xF0	; 240
    1ec6:	80 91 63 00 	lds	r24, 0x0063
    1eca:	28 2b       	or	r18, r24
    1ecc:	80 91 6c 00 	lds	r24, 0x006C
    1ed0:	82 95       	swap	r24
    1ed2:	80 7f       	andi	r24, 0xF0	; 240
    1ed4:	90 91 6d 00 	lds	r25, 0x006D
    1ed8:	89 2b       	or	r24, r25
    1eda:	89 83       	std	Y+1, r24	; 0x01
    1edc:	6a 83       	std	Y+2, r22	; 0x02
    1ede:	5b 83       	std	Y+3, r21	; 0x03
    1ee0:	4c 83       	std	Y+4, r20	; 0x04
    1ee2:	7d 83       	std	Y+5, r23	; 0x05
    1ee4:	3e 83       	std	Y+6, r19	; 0x06
    1ee6:	2f 83       	std	Y+7, r18	; 0x07
    1ee8:	47 e0       	ldi	r20, 0x07	; 7
    1eea:	be 01       	movw	r22, r28
    1eec:	6f 5f       	subi	r22, 0xFF	; 255
    1eee:	7f 4f       	sbci	r23, 0xFF	; 255
    1ef0:	82 e0       	ldi	r24, 0x02	; 2
    1ef2:	90 e0       	ldi	r25, 0x00	; 0
    1ef4:	0e 94 53 0e 	call	0x1ca6	; 0x1ca6 <PCF8536_wt_p>
    1ef8:	27 96       	adiw	r28, 0x07	; 7
    1efa:	0f b6       	in	r0, 0x3f	; 63
    1efc:	f8 94       	cli
    1efe:	de bf       	out	0x3e, r29	; 62
    1f00:	0f be       	out	0x3f, r0	; 63
    1f02:	cd bf       	out	0x3d, r28	; 61
    1f04:	df 91       	pop	r29
    1f06:	cf 91       	pop	r28
    1f08:	08 95       	ret

00001f0a <AjustTimerMonthly>:
    1f0a:	1f 93       	push	r17
    1f0c:	80 91 66 00 	lds	r24, 0x0066
    1f10:	88 23       	and	r24, r24
    1f12:	09 f0       	breq	.+2      	; 0x1f16 <AjustTimerMonthly+0xc>
    1f14:	4a c0       	rjmp	.+148    	; 0x1faa <AjustTimerMonthly+0xa0>
    1f16:	10 91 67 00 	lds	r17, 0x0067
    1f1a:	11 30       	cpi	r17, 0x01	; 1
    1f1c:	09 f0       	breq	.+2      	; 0x1f20 <AjustTimerMonthly+0x16>
    1f1e:	45 c0       	rjmp	.+138    	; 0x1faa <AjustTimerMonthly+0xa0>
    1f20:	80 91 68 00 	lds	r24, 0x0068
    1f24:	88 23       	and	r24, r24
    1f26:	09 f0       	breq	.+2      	; 0x1f2a <AjustTimerMonthly+0x20>
    1f28:	40 c0       	rjmp	.+128    	; 0x1faa <AjustTimerMonthly+0xa0>
    1f2a:	80 91 69 00 	lds	r24, 0x0069
    1f2e:	83 30       	cpi	r24, 0x03	; 3
    1f30:	e1 f5       	brne	.+120    	; 0x1faa <AjustTimerMonthly+0xa0>
    1f32:	80 91 6a 00 	lds	r24, 0x006A
    1f36:	83 30       	cpi	r24, 0x03	; 3
    1f38:	a1 f5       	brne	.+104    	; 0x1fa2 <AjustTimerMonthly+0x98>
    1f3a:	80 91 6b 00 	lds	r24, 0x006B
    1f3e:	88 23       	and	r24, r24
    1f40:	a1 f5       	brne	.+104    	; 0x1faa <AjustTimerMonthly+0xa0>
    1f42:	80 91 76 00 	lds	r24, 0x0076
    1f46:	90 91 79 00 	lds	r25, 0x0079
    1f4a:	88 23       	and	r24, r24
    1f4c:	69 f0       	breq	.+26     	; 0x1f68 <AjustTimerMonthly+0x5e>
    1f4e:	99 23       	and	r25, r25
    1f50:	61 f5       	brne	.+88     	; 0x1faa <AjustTimerMonthly+0xa0>
    1f52:	20 91 78 00 	lds	r18, 0x0078
    1f56:	22 5e       	subi	r18, 0xE2	; 226
    1f58:	80 91 77 00 	lds	r24, 0x0077
    1f5c:	3a e0       	ldi	r19, 0x0A	; 10
    1f5e:	83 9f       	mul	r24, r19
    1f60:	c0 01       	movw	r24, r0
    1f62:	11 24       	eor	r1, r1
    1f64:	28 0f       	add	r18, r24
    1f66:	0d c0       	rjmp	.+26     	; 0x1f82 <AjustTimerMonthly+0x78>
    1f68:	99 23       	and	r25, r25
    1f6a:	f9 f4       	brne	.+62     	; 0x1faa <AjustTimerMonthly+0xa0>
    1f6c:	80 91 77 00 	lds	r24, 0x0077
    1f70:	2a e0       	ldi	r18, 0x0A	; 10
    1f72:	82 9f       	mul	r24, r18
    1f74:	c0 01       	movw	r24, r0
    1f76:	11 24       	eor	r1, r1
    1f78:	2e e1       	ldi	r18, 0x1E	; 30
    1f7a:	28 1b       	sub	r18, r24
    1f7c:	80 91 78 00 	lds	r24, 0x0078
    1f80:	28 1b       	sub	r18, r24
    1f82:	82 2f       	mov	r24, r18
    1f84:	6a e0       	ldi	r22, 0x0A	; 10
    1f86:	0e 94 3f 18 	call	0x307e	; 0x307e <__udivmodqi4>
    1f8a:	80 93 6a 00 	sts	0x006A, r24
    1f8e:	82 2f       	mov	r24, r18
    1f90:	0e 94 3f 18 	call	0x307e	; 0x307e <__udivmodqi4>
    1f94:	90 93 6b 00 	sts	0x006B, r25
    1f98:	0e 94 36 0f 	call	0x1e6c	; 0x1e6c <Write_time>
    1f9c:	10 93 79 00 	sts	0x0079, r17
    1fa0:	04 c0       	rjmp	.+8      	; 0x1faa <AjustTimerMonthly+0xa0>
    1fa2:	85 30       	cpi	r24, 0x05	; 5
    1fa4:	11 f4       	brne	.+4      	; 0x1faa <AjustTimerMonthly+0xa0>
    1fa6:	10 92 79 00 	sts	0x0079, r1
    1faa:	1f 91       	pop	r17
    1fac:	08 95       	ret

00001fae <Voice_Init>:
    1fae:	aa 9a       	sbi	0x15, 2	; 21
    1fb0:	a2 98       	cbi	0x14, 2	; 20
    1fb2:	a3 9a       	sbi	0x14, 3	; 20
    1fb4:	a4 9a       	sbi	0x14, 4	; 20
    1fb6:	08 95       	ret

00001fb8 <SPEEK_Time>:
    1fb8:	90 91 a0 02 	lds	r25, 0x02A0
    1fbc:	9b 30       	cpi	r25, 0x0B	; 11
    1fbe:	09 f4       	brne	.+2      	; 0x1fc2 <SPEEK_Time+0xa>
    1fc0:	32 c1       	rjmp	.+612    	; 0x2226 <SPEEK_Time+0x26e>
    1fc2:	9c 30       	cpi	r25, 0x0C	; 12
    1fc4:	58 f5       	brcc	.+86     	; 0x201c <SPEEK_Time+0x64>
    1fc6:	95 30       	cpi	r25, 0x05	; 5
    1fc8:	09 f4       	brne	.+2      	; 0x1fcc <SPEEK_Time+0x14>
    1fca:	aa c0       	rjmp	.+340    	; 0x2120 <SPEEK_Time+0x168>
    1fcc:	96 30       	cpi	r25, 0x06	; 6
    1fce:	98 f4       	brcc	.+38     	; 0x1ff6 <SPEEK_Time+0x3e>
    1fd0:	92 30       	cpi	r25, 0x02	; 2
    1fd2:	09 f4       	brne	.+2      	; 0x1fd6 <SPEEK_Time+0x1e>
    1fd4:	58 c0       	rjmp	.+176    	; 0x2086 <SPEEK_Time+0xce>
    1fd6:	93 30       	cpi	r25, 0x03	; 3
    1fd8:	38 f4       	brcc	.+14     	; 0x1fe8 <SPEEK_Time+0x30>
    1fda:	99 23       	and	r25, r25
    1fdc:	09 f4       	brne	.+2      	; 0x1fe0 <SPEEK_Time+0x28>
    1fde:	49 c0       	rjmp	.+146    	; 0x2072 <SPEEK_Time+0xba>
    1fe0:	91 30       	cpi	r25, 0x01	; 1
    1fe2:	09 f0       	breq	.+2      	; 0x1fe6 <SPEEK_Time+0x2e>
    1fe4:	e5 c1       	rjmp	.+970    	; 0x23b0 <SPEEK_Time+0x3f8>
    1fe6:	48 c0       	rjmp	.+144    	; 0x2078 <SPEEK_Time+0xc0>
    1fe8:	93 30       	cpi	r25, 0x03	; 3
    1fea:	09 f4       	brne	.+2      	; 0x1fee <SPEEK_Time+0x36>
    1fec:	5d c0       	rjmp	.+186    	; 0x20a8 <SPEEK_Time+0xf0>
    1fee:	94 30       	cpi	r25, 0x04	; 4
    1ff0:	09 f0       	breq	.+2      	; 0x1ff4 <SPEEK_Time+0x3c>
    1ff2:	de c1       	rjmp	.+956    	; 0x23b0 <SPEEK_Time+0x3f8>
    1ff4:	82 c0       	rjmp	.+260    	; 0x20fa <SPEEK_Time+0x142>
    1ff6:	98 30       	cpi	r25, 0x08	; 8
    1ff8:	09 f4       	brne	.+2      	; 0x1ffc <SPEEK_Time+0x44>
    1ffa:	cb c0       	rjmp	.+406    	; 0x2192 <SPEEK_Time+0x1da>
    1ffc:	99 30       	cpi	r25, 0x09	; 9
    1ffe:	38 f4       	brcc	.+14     	; 0x200e <SPEEK_Time+0x56>
    2000:	96 30       	cpi	r25, 0x06	; 6
    2002:	09 f4       	brne	.+2      	; 0x2006 <SPEEK_Time+0x4e>
    2004:	a0 c0       	rjmp	.+320    	; 0x2146 <SPEEK_Time+0x18e>
    2006:	97 30       	cpi	r25, 0x07	; 7
    2008:	09 f0       	breq	.+2      	; 0x200c <SPEEK_Time+0x54>
    200a:	d2 c1       	rjmp	.+932    	; 0x23b0 <SPEEK_Time+0x3f8>
    200c:	b3 c0       	rjmp	.+358    	; 0x2174 <SPEEK_Time+0x1bc>
    200e:	99 30       	cpi	r25, 0x09	; 9
    2010:	09 f4       	brne	.+2      	; 0x2014 <SPEEK_Time+0x5c>
    2012:	da c0       	rjmp	.+436    	; 0x21c8 <SPEEK_Time+0x210>
    2014:	9a 30       	cpi	r25, 0x0A	; 10
    2016:	09 f0       	breq	.+2      	; 0x201a <SPEEK_Time+0x62>
    2018:	cb c1       	rjmp	.+918    	; 0x23b0 <SPEEK_Time+0x3f8>
    201a:	f2 c0       	rjmp	.+484    	; 0x2200 <SPEEK_Time+0x248>
    201c:	91 31       	cpi	r25, 0x11	; 17
    201e:	09 f4       	brne	.+2      	; 0x2022 <SPEEK_Time+0x6a>
    2020:	89 c1       	rjmp	.+786    	; 0x2334 <SPEEK_Time+0x37c>
    2022:	92 31       	cpi	r25, 0x12	; 18
    2024:	98 f4       	brcc	.+38     	; 0x204c <SPEEK_Time+0x94>
    2026:	9e 30       	cpi	r25, 0x0E	; 14
    2028:	09 f4       	brne	.+2      	; 0x202c <SPEEK_Time+0x74>
    202a:	37 c1       	rjmp	.+622    	; 0x229a <SPEEK_Time+0x2e2>
    202c:	9f 30       	cpi	r25, 0x0F	; 15
    202e:	38 f4       	brcc	.+14     	; 0x203e <SPEEK_Time+0x86>
    2030:	9c 30       	cpi	r25, 0x0C	; 12
    2032:	09 f4       	brne	.+2      	; 0x2036 <SPEEK_Time+0x7e>
    2034:	0f c1       	rjmp	.+542    	; 0x2254 <SPEEK_Time+0x29c>
    2036:	9d 30       	cpi	r25, 0x0D	; 13
    2038:	09 f0       	breq	.+2      	; 0x203c <SPEEK_Time+0x84>
    203a:	ba c1       	rjmp	.+884    	; 0x23b0 <SPEEK_Time+0x3f8>
    203c:	1a c1       	rjmp	.+564    	; 0x2272 <SPEEK_Time+0x2ba>
    203e:	9f 30       	cpi	r25, 0x0F	; 15
    2040:	09 f4       	brne	.+2      	; 0x2044 <SPEEK_Time+0x8c>
    2042:	46 c1       	rjmp	.+652    	; 0x22d0 <SPEEK_Time+0x318>
    2044:	90 31       	cpi	r25, 0x10	; 16
    2046:	09 f0       	breq	.+2      	; 0x204a <SPEEK_Time+0x92>
    2048:	b3 c1       	rjmp	.+870    	; 0x23b0 <SPEEK_Time+0x3f8>
    204a:	57 c1       	rjmp	.+686    	; 0x22fa <SPEEK_Time+0x342>
    204c:	94 31       	cpi	r25, 0x14	; 20
    204e:	09 f4       	brne	.+2      	; 0x2052 <SPEEK_Time+0x9a>
    2050:	9e c1       	rjmp	.+828    	; 0x238e <SPEEK_Time+0x3d6>
    2052:	95 31       	cpi	r25, 0x15	; 21
    2054:	38 f4       	brcc	.+14     	; 0x2064 <SPEEK_Time+0xac>
    2056:	92 31       	cpi	r25, 0x12	; 18
    2058:	09 f4       	brne	.+2      	; 0x205c <SPEEK_Time+0xa4>
    205a:	7a c1       	rjmp	.+756    	; 0x2350 <SPEEK_Time+0x398>
    205c:	93 31       	cpi	r25, 0x13	; 19
    205e:	09 f0       	breq	.+2      	; 0x2062 <SPEEK_Time+0xaa>
    2060:	a7 c1       	rjmp	.+846    	; 0x23b0 <SPEEK_Time+0x3f8>
    2062:	86 c1       	rjmp	.+780    	; 0x2370 <SPEEK_Time+0x3b8>
    2064:	94 36       	cpi	r25, 0x64	; 100
    2066:	09 f4       	brne	.+2      	; 0x206a <SPEEK_Time+0xb2>
    2068:	98 c1       	rjmp	.+816    	; 0x239a <SPEEK_Time+0x3e2>
    206a:	95 36       	cpi	r25, 0x65	; 101
    206c:	09 f0       	breq	.+2      	; 0x2070 <SPEEK_Time+0xb8>
    206e:	a0 c1       	rjmp	.+832    	; 0x23b0 <SPEEK_Time+0x3f8>
    2070:	97 c1       	rjmp	.+814    	; 0x23a0 <SPEEK_Time+0x3e8>
    2072:	10 92 9a 02 	sts	0x029A, r1
    2076:	08 95       	ret
    2078:	89 e1       	ldi	r24, 0x19	; 25
    207a:	80 93 88 02 	sts	0x0288, r24
    207e:	90 93 8b 02 	sts	0x028B, r25
    2082:	82 e0       	ldi	r24, 0x02	; 2
    2084:	0e c0       	rjmp	.+28     	; 0x20a2 <SPEEK_Time+0xea>
    2086:	80 91 8b 02 	lds	r24, 0x028B
    208a:	88 23       	and	r24, r24
    208c:	09 f0       	breq	.+2      	; 0x2090 <SPEEK_Time+0xd8>
    208e:	90 c1       	rjmp	.+800    	; 0x23b0 <SPEEK_Time+0x3f8>
    2090:	9a 9b       	sbis	0x13, 2	; 19
    2092:	8e c1       	rjmp	.+796    	; 0x23b0 <SPEEK_Time+0x3f8>
    2094:	86 e1       	ldi	r24, 0x16	; 22
    2096:	80 93 88 02 	sts	0x0288, r24
    209a:	81 e0       	ldi	r24, 0x01	; 1
    209c:	80 93 8b 02 	sts	0x028B, r24
    20a0:	83 e0       	ldi	r24, 0x03	; 3
    20a2:	80 93 a0 02 	sts	0x02A0, r24
    20a6:	08 95       	ret
    20a8:	80 91 8b 02 	lds	r24, 0x028B
    20ac:	88 23       	and	r24, r24
    20ae:	09 f0       	breq	.+2      	; 0x20b2 <SPEEK_Time+0xfa>
    20b0:	7f c1       	rjmp	.+766    	; 0x23b0 <SPEEK_Time+0x3f8>
    20b2:	9a 9b       	sbis	0x13, 2	; 19
    20b4:	7d c1       	rjmp	.+762    	; 0x23b0 <SPEEK_Time+0x3f8>
    20b6:	80 91 68 00 	lds	r24, 0x0068
    20ba:	2a e0       	ldi	r18, 0x0A	; 10
    20bc:	82 9f       	mul	r24, r18
    20be:	c0 01       	movw	r24, r0
    20c0:	11 24       	eor	r1, r1
    20c2:	20 91 69 00 	lds	r18, 0x0069
    20c6:	28 0f       	add	r18, r24
    20c8:	27 30       	cpi	r18, 0x07	; 7
    20ca:	a8 f0       	brcs	.+42     	; 0x20f6 <SPEEK_Time+0x13e>
    20cc:	82 2f       	mov	r24, r18
    20ce:	87 50       	subi	r24, 0x07	; 7
    20d0:	86 30       	cpi	r24, 0x06	; 6
    20d2:	10 f4       	brcc	.+4      	; 0x20d8 <SPEEK_Time+0x120>
    20d4:	8c e1       	ldi	r24, 0x1C	; 28
    20d6:	0a c0       	rjmp	.+20     	; 0x20ec <SPEEK_Time+0x134>
    20d8:	82 2f       	mov	r24, r18
    20da:	8d 50       	subi	r24, 0x0D	; 13
    20dc:	86 30       	cpi	r24, 0x06	; 6
    20de:	10 f4       	brcc	.+4      	; 0x20e4 <SPEEK_Time+0x12c>
    20e0:	8d e1       	ldi	r24, 0x1D	; 29
    20e2:	04 c0       	rjmp	.+8      	; 0x20ec <SPEEK_Time+0x134>
    20e4:	23 51       	subi	r18, 0x13	; 19
    20e6:	25 30       	cpi	r18, 0x05	; 5
    20e8:	30 f4       	brcc	.+12     	; 0x20f6 <SPEEK_Time+0x13e>
    20ea:	8e e1       	ldi	r24, 0x1E	; 30
    20ec:	80 93 88 02 	sts	0x0288, r24
    20f0:	81 e0       	ldi	r24, 0x01	; 1
    20f2:	80 93 8b 02 	sts	0x028B, r24
    20f6:	84 e0       	ldi	r24, 0x04	; 4
    20f8:	d4 cf       	rjmp	.-88     	; 0x20a2 <SPEEK_Time+0xea>
    20fa:	80 91 8b 02 	lds	r24, 0x028B
    20fe:	88 23       	and	r24, r24
    2100:	09 f0       	breq	.+2      	; 0x2104 <SPEEK_Time+0x14c>
    2102:	56 c1       	rjmp	.+684    	; 0x23b0 <SPEEK_Time+0x3f8>
    2104:	9a 9b       	sbis	0x13, 2	; 19
    2106:	54 c1       	rjmp	.+680    	; 0x23b0 <SPEEK_Time+0x3f8>
    2108:	80 91 68 00 	lds	r24, 0x0068
    210c:	82 30       	cpi	r24, 0x02	; 2
    210e:	30 f0       	brcs	.+12     	; 0x211c <SPEEK_Time+0x164>
    2110:	8f 5f       	subi	r24, 0xFF	; 255
    2112:	80 93 88 02 	sts	0x0288, r24
    2116:	81 e0       	ldi	r24, 0x01	; 1
    2118:	80 93 8b 02 	sts	0x028B, r24
    211c:	85 e0       	ldi	r24, 0x05	; 5
    211e:	c1 cf       	rjmp	.-126    	; 0x20a2 <SPEEK_Time+0xea>
    2120:	80 91 8b 02 	lds	r24, 0x028B
    2124:	88 23       	and	r24, r24
    2126:	09 f0       	breq	.+2      	; 0x212a <SPEEK_Time+0x172>
    2128:	43 c1       	rjmp	.+646    	; 0x23b0 <SPEEK_Time+0x3f8>
    212a:	9a 9b       	sbis	0x13, 2	; 19
    212c:	41 c1       	rjmp	.+642    	; 0x23b0 <SPEEK_Time+0x3f8>
    212e:	80 91 68 00 	lds	r24, 0x0068
    2132:	88 23       	and	r24, r24
    2134:	31 f0       	breq	.+12     	; 0x2142 <SPEEK_Time+0x18a>
    2136:	8b e0       	ldi	r24, 0x0B	; 11
    2138:	80 93 88 02 	sts	0x0288, r24
    213c:	81 e0       	ldi	r24, 0x01	; 1
    213e:	80 93 8b 02 	sts	0x028B, r24
    2142:	86 e0       	ldi	r24, 0x06	; 6
    2144:	ae cf       	rjmp	.-164    	; 0x20a2 <SPEEK_Time+0xea>
    2146:	80 91 8b 02 	lds	r24, 0x028B
    214a:	88 23       	and	r24, r24
    214c:	09 f0       	breq	.+2      	; 0x2150 <SPEEK_Time+0x198>
    214e:	30 c1       	rjmp	.+608    	; 0x23b0 <SPEEK_Time+0x3f8>
    2150:	9a 9b       	sbis	0x13, 2	; 19
    2152:	2e c1       	rjmp	.+604    	; 0x23b0 <SPEEK_Time+0x3f8>
    2154:	90 91 69 00 	lds	r25, 0x0069
    2158:	99 23       	and	r25, r25
    215a:	21 f4       	brne	.+8      	; 0x2164 <SPEEK_Time+0x1ac>
    215c:	80 91 68 00 	lds	r24, 0x0068
    2160:	88 23       	and	r24, r24
    2162:	31 f4       	brne	.+12     	; 0x2170 <SPEEK_Time+0x1b8>
    2164:	9f 5f       	subi	r25, 0xFF	; 255
    2166:	90 93 88 02 	sts	0x0288, r25
    216a:	81 e0       	ldi	r24, 0x01	; 1
    216c:	80 93 8b 02 	sts	0x028B, r24
    2170:	87 e0       	ldi	r24, 0x07	; 7
    2172:	97 cf       	rjmp	.-210    	; 0x20a2 <SPEEK_Time+0xea>
    2174:	80 91 8b 02 	lds	r24, 0x028B
    2178:	88 23       	and	r24, r24
    217a:	09 f0       	breq	.+2      	; 0x217e <SPEEK_Time+0x1c6>
    217c:	19 c1       	rjmp	.+562    	; 0x23b0 <SPEEK_Time+0x3f8>
    217e:	9a 9b       	sbis	0x13, 2	; 19
    2180:	17 c1       	rjmp	.+558    	; 0x23b0 <SPEEK_Time+0x3f8>
    2182:	8d e0       	ldi	r24, 0x0D	; 13
    2184:	80 93 88 02 	sts	0x0288, r24
    2188:	81 e0       	ldi	r24, 0x01	; 1
    218a:	80 93 8b 02 	sts	0x028B, r24
    218e:	88 e0       	ldi	r24, 0x08	; 8
    2190:	88 cf       	rjmp	.-240    	; 0x20a2 <SPEEK_Time+0xea>
    2192:	80 91 8b 02 	lds	r24, 0x028B
    2196:	88 23       	and	r24, r24
    2198:	09 f0       	breq	.+2      	; 0x219c <SPEEK_Time+0x1e4>
    219a:	0a c1       	rjmp	.+532    	; 0x23b0 <SPEEK_Time+0x3f8>
    219c:	9a 9b       	sbis	0x13, 2	; 19
    219e:	08 c1       	rjmp	.+528    	; 0x23b0 <SPEEK_Time+0x3f8>
    21a0:	80 91 6a 00 	lds	r24, 0x006A
    21a4:	88 23       	and	r24, r24
    21a6:	31 f4       	brne	.+12     	; 0x21b4 <SPEEK_Time+0x1fc>
    21a8:	80 91 6b 00 	lds	r24, 0x006B
    21ac:	88 23       	and	r24, r24
    21ae:	51 f4       	brne	.+20     	; 0x21c4 <SPEEK_Time+0x20c>
    21b0:	8a e1       	ldi	r24, 0x1A	; 26
    21b2:	03 c0       	rjmp	.+6      	; 0x21ba <SPEEK_Time+0x202>
    21b4:	82 30       	cpi	r24, 0x02	; 2
    21b6:	30 f0       	brcs	.+12     	; 0x21c4 <SPEEK_Time+0x20c>
    21b8:	8f 5f       	subi	r24, 0xFF	; 255
    21ba:	80 93 88 02 	sts	0x0288, r24
    21be:	81 e0       	ldi	r24, 0x01	; 1
    21c0:	80 93 8b 02 	sts	0x028B, r24
    21c4:	89 e0       	ldi	r24, 0x09	; 9
    21c6:	6d cf       	rjmp	.-294    	; 0x20a2 <SPEEK_Time+0xea>
    21c8:	80 91 8b 02 	lds	r24, 0x028B
    21cc:	88 23       	and	r24, r24
    21ce:	09 f0       	breq	.+2      	; 0x21d2 <SPEEK_Time+0x21a>
    21d0:	ef c0       	rjmp	.+478    	; 0x23b0 <SPEEK_Time+0x3f8>
    21d2:	9a 9b       	sbis	0x13, 2	; 19
    21d4:	ed c0       	rjmp	.+474    	; 0x23b0 <SPEEK_Time+0x3f8>
    21d6:	80 91 6a 00 	lds	r24, 0x006A
    21da:	88 23       	and	r24, r24
    21dc:	29 f4       	brne	.+10     	; 0x21e8 <SPEEK_Time+0x230>
    21de:	80 91 6b 00 	lds	r24, 0x006B
    21e2:	88 23       	and	r24, r24
    21e4:	31 f4       	brne	.+12     	; 0x21f2 <SPEEK_Time+0x23a>
    21e6:	0a c0       	rjmp	.+20     	; 0x21fc <SPEEK_Time+0x244>
    21e8:	8b e0       	ldi	r24, 0x0B	; 11
    21ea:	80 93 88 02 	sts	0x0288, r24
    21ee:	81 e0       	ldi	r24, 0x01	; 1
    21f0:	03 c0       	rjmp	.+6      	; 0x21f8 <SPEEK_Time+0x240>
    21f2:	81 e0       	ldi	r24, 0x01	; 1
    21f4:	80 93 88 02 	sts	0x0288, r24
    21f8:	80 93 8b 02 	sts	0x028B, r24
    21fc:	8a e0       	ldi	r24, 0x0A	; 10
    21fe:	51 cf       	rjmp	.-350    	; 0x20a2 <SPEEK_Time+0xea>
    2200:	80 91 8b 02 	lds	r24, 0x028B
    2204:	88 23       	and	r24, r24
    2206:	09 f0       	breq	.+2      	; 0x220a <SPEEK_Time+0x252>
    2208:	d3 c0       	rjmp	.+422    	; 0x23b0 <SPEEK_Time+0x3f8>
    220a:	9a 9b       	sbis	0x13, 2	; 19
    220c:	d1 c0       	rjmp	.+418    	; 0x23b0 <SPEEK_Time+0x3f8>
    220e:	80 91 6b 00 	lds	r24, 0x006B
    2212:	88 23       	and	r24, r24
    2214:	31 f0       	breq	.+12     	; 0x2222 <SPEEK_Time+0x26a>
    2216:	8f 5f       	subi	r24, 0xFF	; 255
    2218:	80 93 88 02 	sts	0x0288, r24
    221c:	81 e0       	ldi	r24, 0x01	; 1
    221e:	80 93 8b 02 	sts	0x028B, r24
    2222:	8b e0       	ldi	r24, 0x0B	; 11
    2224:	3e cf       	rjmp	.-388    	; 0x20a2 <SPEEK_Time+0xea>
    2226:	80 91 8b 02 	lds	r24, 0x028B
    222a:	88 23       	and	r24, r24
    222c:	09 f0       	breq	.+2      	; 0x2230 <SPEEK_Time+0x278>
    222e:	c0 c0       	rjmp	.+384    	; 0x23b0 <SPEEK_Time+0x3f8>
    2230:	9a 9b       	sbis	0x13, 2	; 19
    2232:	be c0       	rjmp	.+380    	; 0x23b0 <SPEEK_Time+0x3f8>
    2234:	80 91 6a 00 	lds	r24, 0x006A
    2238:	88 23       	and	r24, r24
    223a:	21 f4       	brne	.+8      	; 0x2244 <SPEEK_Time+0x28c>
    223c:	80 91 6b 00 	lds	r24, 0x006B
    2240:	88 23       	and	r24, r24
    2242:	31 f0       	breq	.+12     	; 0x2250 <SPEEK_Time+0x298>
    2244:	8e e0       	ldi	r24, 0x0E	; 14
    2246:	80 93 88 02 	sts	0x0288, r24
    224a:	81 e0       	ldi	r24, 0x01	; 1
    224c:	80 93 8b 02 	sts	0x028B, r24
    2250:	8c e0       	ldi	r24, 0x0C	; 12
    2252:	27 cf       	rjmp	.-434    	; 0x20a2 <SPEEK_Time+0xea>
    2254:	80 91 8b 02 	lds	r24, 0x028B
    2258:	88 23       	and	r24, r24
    225a:	09 f0       	breq	.+2      	; 0x225e <SPEEK_Time+0x2a6>
    225c:	a9 c0       	rjmp	.+338    	; 0x23b0 <SPEEK_Time+0x3f8>
    225e:	9a 9b       	sbis	0x13, 2	; 19
    2260:	a7 c0       	rjmp	.+334    	; 0x23b0 <SPEEK_Time+0x3f8>
    2262:	88 ee       	ldi	r24, 0xE8	; 232
    2264:	93 e0       	ldi	r25, 0x03	; 3
    2266:	90 93 98 02 	sts	0x0298, r25
    226a:	80 93 97 02 	sts	0x0297, r24
    226e:	8d e0       	ldi	r24, 0x0D	; 13
    2270:	18 cf       	rjmp	.-464    	; 0x20a2 <SPEEK_Time+0xea>
    2272:	80 91 97 02 	lds	r24, 0x0297
    2276:	90 91 98 02 	lds	r25, 0x0298
    227a:	01 97       	sbiw	r24, 0x01	; 1
    227c:	90 93 98 02 	sts	0x0298, r25
    2280:	80 93 97 02 	sts	0x0297, r24
    2284:	89 2b       	or	r24, r25
    2286:	09 f0       	breq	.+2      	; 0x228a <SPEEK_Time+0x2d2>
    2288:	93 c0       	rjmp	.+294    	; 0x23b0 <SPEEK_Time+0x3f8>
    228a:	87 e1       	ldi	r24, 0x17	; 23
    228c:	80 93 88 02 	sts	0x0288, r24
    2290:	81 e0       	ldi	r24, 0x01	; 1
    2292:	80 93 8b 02 	sts	0x028B, r24
    2296:	8e e0       	ldi	r24, 0x0E	; 14
    2298:	04 cf       	rjmp	.-504    	; 0x20a2 <SPEEK_Time+0xea>
    229a:	80 91 8b 02 	lds	r24, 0x028B
    229e:	88 23       	and	r24, r24
    22a0:	09 f0       	breq	.+2      	; 0x22a4 <SPEEK_Time+0x2ec>
    22a2:	86 c0       	rjmp	.+268    	; 0x23b0 <SPEEK_Time+0x3f8>
    22a4:	9a 9b       	sbis	0x13, 2	; 19
    22a6:	84 c0       	rjmp	.+264    	; 0x23b0 <SPEEK_Time+0x3f8>
    22a8:	90 91 6f 00 	lds	r25, 0x006F
    22ac:	89 2f       	mov	r24, r25
    22ae:	82 50       	subi	r24, 0x02	; 2
    22b0:	88 30       	cpi	r24, 0x08	; 8
    22b2:	20 f4       	brcc	.+8      	; 0x22bc <SPEEK_Time+0x304>
    22b4:	9f 5f       	subi	r25, 0xFF	; 255
    22b6:	90 93 88 02 	sts	0x0288, r25
    22ba:	05 c0       	rjmp	.+10     	; 0x22c6 <SPEEK_Time+0x30e>
    22bc:	9b 30       	cpi	r25, 0x0B	; 11
    22be:	30 f0       	brcs	.+12     	; 0x22cc <SPEEK_Time+0x314>
    22c0:	8f e1       	ldi	r24, 0x1F	; 31
    22c2:	80 93 88 02 	sts	0x0288, r24
    22c6:	81 e0       	ldi	r24, 0x01	; 1
    22c8:	80 93 8b 02 	sts	0x028B, r24
    22cc:	8f e0       	ldi	r24, 0x0F	; 15
    22ce:	e9 ce       	rjmp	.-558    	; 0x20a2 <SPEEK_Time+0xea>
    22d0:	80 91 8b 02 	lds	r24, 0x028B
    22d4:	88 23       	and	r24, r24
    22d6:	09 f0       	breq	.+2      	; 0x22da <SPEEK_Time+0x322>
    22d8:	6b c0       	rjmp	.+214    	; 0x23b0 <SPEEK_Time+0x3f8>
    22da:	9a 9b       	sbis	0x13, 2	; 19
    22dc:	69 c0       	rjmp	.+210    	; 0x23b0 <SPEEK_Time+0x3f8>
    22de:	80 91 6f 00 	lds	r24, 0x006F
    22e2:	88 23       	and	r24, r24
    22e4:	41 f0       	breq	.+16     	; 0x22f6 <SPEEK_Time+0x33e>
    22e6:	8e 30       	cpi	r24, 0x0E	; 14
    22e8:	31 f0       	breq	.+12     	; 0x22f6 <SPEEK_Time+0x33e>
    22ea:	8b e0       	ldi	r24, 0x0B	; 11
    22ec:	80 93 88 02 	sts	0x0288, r24
    22f0:	81 e0       	ldi	r24, 0x01	; 1
    22f2:	80 93 8b 02 	sts	0x028B, r24
    22f6:	80 e1       	ldi	r24, 0x10	; 16
    22f8:	d4 ce       	rjmp	.-600    	; 0x20a2 <SPEEK_Time+0xea>
    22fa:	80 91 8b 02 	lds	r24, 0x028B
    22fe:	88 23       	and	r24, r24
    2300:	09 f0       	breq	.+2      	; 0x2304 <SPEEK_Time+0x34c>
    2302:	56 c0       	rjmp	.+172    	; 0x23b0 <SPEEK_Time+0x3f8>
    2304:	9a 9b       	sbis	0x13, 2	; 19
    2306:	54 c0       	rjmp	.+168    	; 0x23b0 <SPEEK_Time+0x3f8>
    2308:	80 91 70 00 	lds	r24, 0x0070
    230c:	88 23       	and	r24, r24
    230e:	29 f0       	breq	.+10     	; 0x231a <SPEEK_Time+0x362>
    2310:	8f 5f       	subi	r24, 0xFF	; 255
    2312:	80 93 88 02 	sts	0x0288, r24
    2316:	81 e0       	ldi	r24, 0x01	; 1
    2318:	09 c0       	rjmp	.+18     	; 0x232c <SPEEK_Time+0x374>
    231a:	80 91 6f 00 	lds	r24, 0x006F
    231e:	88 23       	and	r24, r24
    2320:	11 f0       	breq	.+4      	; 0x2326 <SPEEK_Time+0x36e>
    2322:	8e 30       	cpi	r24, 0x0E	; 14
    2324:	29 f4       	brne	.+10     	; 0x2330 <SPEEK_Time+0x378>
    2326:	81 e0       	ldi	r24, 0x01	; 1
    2328:	80 93 88 02 	sts	0x0288, r24
    232c:	80 93 8b 02 	sts	0x028B, r24
    2330:	81 e1       	ldi	r24, 0x11	; 17
    2332:	b7 ce       	rjmp	.-658    	; 0x20a2 <SPEEK_Time+0xea>
    2334:	80 91 8b 02 	lds	r24, 0x028B
    2338:	88 23       	and	r24, r24
    233a:	d1 f5       	brne	.+116    	; 0x23b0 <SPEEK_Time+0x3f8>
    233c:	9a 9b       	sbis	0x13, 2	; 19
    233e:	38 c0       	rjmp	.+112    	; 0x23b0 <SPEEK_Time+0x3f8>
    2340:	8d e0       	ldi	r24, 0x0D	; 13
    2342:	80 93 88 02 	sts	0x0288, r24
    2346:	81 e0       	ldi	r24, 0x01	; 1
    2348:	80 93 8b 02 	sts	0x028B, r24
    234c:	82 e1       	ldi	r24, 0x12	; 18
    234e:	a9 ce       	rjmp	.-686    	; 0x20a2 <SPEEK_Time+0xea>
    2350:	80 91 8b 02 	lds	r24, 0x028B
    2354:	88 23       	and	r24, r24
    2356:	61 f5       	brne	.+88     	; 0x23b0 <SPEEK_Time+0x3f8>
    2358:	9a 9b       	sbis	0x13, 2	; 19
    235a:	2a c0       	rjmp	.+84     	; 0x23b0 <SPEEK_Time+0x3f8>
    235c:	80 91 71 00 	lds	r24, 0x0071
    2360:	8f 5f       	subi	r24, 0xFF	; 255
    2362:	80 93 88 02 	sts	0x0288, r24
    2366:	81 e0       	ldi	r24, 0x01	; 1
    2368:	80 93 8b 02 	sts	0x028B, r24
    236c:	83 e1       	ldi	r24, 0x13	; 19
    236e:	99 ce       	rjmp	.-718    	; 0x20a2 <SPEEK_Time+0xea>
    2370:	80 91 8b 02 	lds	r24, 0x028B
    2374:	88 23       	and	r24, r24
    2376:	e1 f4       	brne	.+56     	; 0x23b0 <SPEEK_Time+0x3f8>
    2378:	9a 9b       	sbis	0x13, 2	; 19
    237a:	1a c0       	rjmp	.+52     	; 0x23b0 <SPEEK_Time+0x3f8>
    237c:	94 e1       	ldi	r25, 0x14	; 20
    237e:	90 93 88 02 	sts	0x0288, r25
    2382:	81 e0       	ldi	r24, 0x01	; 1
    2384:	80 93 8b 02 	sts	0x028B, r24
    2388:	90 93 a0 02 	sts	0x02A0, r25
    238c:	08 95       	ret
    238e:	80 91 8b 02 	lds	r24, 0x028B
    2392:	88 23       	and	r24, r24
    2394:	69 f4       	brne	.+26     	; 0x23b0 <SPEEK_Time+0x3f8>
    2396:	9a 9b       	sbis	0x13, 2	; 19
    2398:	0b c0       	rjmp	.+22     	; 0x23b0 <SPEEK_Time+0x3f8>
    239a:	10 92 a0 02 	sts	0x02A0, r1
    239e:	08 95       	ret
    23a0:	80 91 8b 02 	lds	r24, 0x028B
    23a4:	88 23       	and	r24, r24
    23a6:	21 f4       	brne	.+8      	; 0x23b0 <SPEEK_Time+0x3f8>
    23a8:	9a 9b       	sbis	0x13, 2	; 19
    23aa:	02 c0       	rjmp	.+4      	; 0x23b0 <SPEEK_Time+0x3f8>
    23ac:	10 92 a0 02 	sts	0x02A0, r1
    23b0:	08 95       	ret

000023b2 <PLUSE_Out>:
    23b2:	80 91 8b 02 	lds	r24, 0x028B
    23b6:	82 30       	cpi	r24, 0x02	; 2
    23b8:	11 f1       	breq	.+68     	; 0x23fe <PLUSE_Out+0x4c>
    23ba:	83 30       	cpi	r24, 0x03	; 3
    23bc:	30 f4       	brcc	.+12     	; 0x23ca <PLUSE_Out+0x18>
    23be:	88 23       	and	r24, r24
    23c0:	61 f0       	breq	.+24     	; 0x23da <PLUSE_Out+0x28>
    23c2:	81 30       	cpi	r24, 0x01	; 1
    23c4:	09 f0       	breq	.+2      	; 0x23c8 <PLUSE_Out+0x16>
    23c6:	49 c0       	rjmp	.+146    	; 0x245a <PLUSE_Out+0xa8>
    23c8:	0e c0       	rjmp	.+28     	; 0x23e6 <PLUSE_Out+0x34>
    23ca:	84 30       	cpi	r24, 0x04	; 4
    23cc:	89 f1       	breq	.+98     	; 0x2430 <PLUSE_Out+0x7e>
    23ce:	84 30       	cpi	r24, 0x04	; 4
    23d0:	10 f1       	brcs	.+68     	; 0x2416 <PLUSE_Out+0x64>
    23d2:	85 30       	cpi	r24, 0x05	; 5
    23d4:	09 f0       	breq	.+2      	; 0x23d8 <PLUSE_Out+0x26>
    23d6:	41 c0       	rjmp	.+130    	; 0x245a <PLUSE_Out+0xa8>
    23d8:	37 c0       	rjmp	.+110    	; 0x2448 <PLUSE_Out+0x96>
    23da:	82 e0       	ldi	r24, 0x02	; 2
    23dc:	80 93 9d 02 	sts	0x029D, r24
    23e0:	ac 98       	cbi	0x15, 4	; 21
    23e2:	ab 98       	cbi	0x15, 3	; 21
    23e4:	08 95       	ret
    23e6:	ac 98       	cbi	0x15, 4	; 21
    23e8:	ab 9a       	sbi	0x15, 3	; 21
    23ea:	80 91 9d 02 	lds	r24, 0x029D
    23ee:	81 50       	subi	r24, 0x01	; 1
    23f0:	80 93 9d 02 	sts	0x029D, r24
    23f4:	88 23       	and	r24, r24
    23f6:	89 f5       	brne	.+98     	; 0x245a <PLUSE_Out+0xa8>
    23f8:	ab 98       	cbi	0x15, 3	; 21
    23fa:	82 e0       	ldi	r24, 0x02	; 2
    23fc:	22 c0       	rjmp	.+68     	; 0x2442 <PLUSE_Out+0x90>
    23fe:	80 91 88 02 	lds	r24, 0x0288
    2402:	88 23       	and	r24, r24
    2404:	29 f0       	breq	.+10     	; 0x2410 <PLUSE_Out+0x5e>
    2406:	81 e0       	ldi	r24, 0x01	; 1
    2408:	80 93 9d 02 	sts	0x029D, r24
    240c:	83 e0       	ldi	r24, 0x03	; 3
    240e:	19 c0       	rjmp	.+50     	; 0x2442 <PLUSE_Out+0x90>
    2410:	10 92 8b 02 	sts	0x028B, r1
    2414:	08 95       	ret
    2416:	ac 98       	cbi	0x15, 4	; 21
    2418:	80 91 9d 02 	lds	r24, 0x029D
    241c:	81 50       	subi	r24, 0x01	; 1
    241e:	80 93 9d 02 	sts	0x029D, r24
    2422:	88 23       	and	r24, r24
    2424:	d1 f4       	brne	.+52     	; 0x245a <PLUSE_Out+0xa8>
    2426:	81 e0       	ldi	r24, 0x01	; 1
    2428:	80 93 9d 02 	sts	0x029D, r24
    242c:	84 e0       	ldi	r24, 0x04	; 4
    242e:	09 c0       	rjmp	.+18     	; 0x2442 <PLUSE_Out+0x90>
    2430:	ac 9a       	sbi	0x15, 4	; 21
    2432:	80 91 9d 02 	lds	r24, 0x029D
    2436:	81 50       	subi	r24, 0x01	; 1
    2438:	80 93 9d 02 	sts	0x029D, r24
    243c:	88 23       	and	r24, r24
    243e:	69 f4       	brne	.+26     	; 0x245a <PLUSE_Out+0xa8>
    2440:	85 e0       	ldi	r24, 0x05	; 5
    2442:	80 93 8b 02 	sts	0x028B, r24
    2446:	08 95       	ret
    2448:	ac 98       	cbi	0x15, 4	; 21
    244a:	80 91 88 02 	lds	r24, 0x0288
    244e:	81 50       	subi	r24, 0x01	; 1
    2450:	80 93 88 02 	sts	0x0288, r24
    2454:	82 e0       	ldi	r24, 0x02	; 2
    2456:	80 93 8b 02 	sts	0x028B, r24
    245a:	08 95       	ret

0000245c <Key_Init>:
    245c:	ae 9a       	sbi	0x15, 6	; 21
    245e:	a6 98       	cbi	0x14, 6	; 20
    2460:	af 9a       	sbi	0x15, 7	; 21
    2462:	a7 98       	cbi	0x14, 7	; 20
    2464:	90 9a       	sbi	0x12, 0	; 18
    2466:	88 98       	cbi	0x11, 0	; 17
    2468:	91 9a       	sbi	0x12, 1	; 18
    246a:	89 98       	cbi	0x11, 1	; 17
    246c:	08 95       	ret

0000246e <Key_Operation>:
    246e:	cf 92       	push	r12
    2470:	df 92       	push	r13
    2472:	ef 92       	push	r14
    2474:	ff 92       	push	r15
    2476:	0f 93       	push	r16
    2478:	1f 93       	push	r17
    247a:	cf 93       	push	r28
    247c:	df 93       	push	r29
    247e:	d8 2e       	mov	r13, r24
    2480:	c6 2e       	mov	r12, r22
    2482:	ea 01       	movw	r28, r20
    2484:	79 01       	movw	r14, r18
    2486:	9e 99       	sbic	0x13, 6	; 19
    2488:	27 c0       	rjmp	.+78     	; 0x24d8 <Key_Operation+0x6a>
    248a:	80 e2       	ldi	r24, 0x20	; 32
    248c:	9e e4       	ldi	r25, 0x4E	; 78
    248e:	01 97       	sbiw	r24, 0x01	; 1
    2490:	f1 f7       	brne	.-4      	; 0x248e <Key_Operation+0x20>
    2492:	9e 99       	sbic	0x13, 6	; 19
    2494:	1f c0       	rjmp	.+62     	; 0x24d4 <Key_Operation+0x66>
    2496:	84 e6       	ldi	r24, 0x64	; 100
    2498:	80 93 a0 02 	sts	0x02A0, r24
    249c:	10 92 8d 02 	sts	0x028D, r1
    24a0:	10 92 8c 02 	sts	0x028C, r1
    24a4:	88 81       	ld	r24, Y
    24a6:	f9 01       	movw	r30, r18
    24a8:	30 81       	ld	r19, Z
    24aa:	3f 5f       	subi	r19, 0xFF	; 255
    24ac:	2a e0       	ldi	r18, 0x0A	; 10
    24ae:	82 9f       	mul	r24, r18
    24b0:	c0 01       	movw	r24, r0
    24b2:	11 24       	eor	r1, r1
    24b4:	38 0f       	add	r19, r24
    24b6:	d3 16       	cp	r13, r19
    24b8:	08 f4       	brcc	.+2      	; 0x24bc <Key_Operation+0x4e>
    24ba:	36 2f       	mov	r19, r22
    24bc:	83 2f       	mov	r24, r19
    24be:	6a e0       	ldi	r22, 0x0A	; 10
    24c0:	0e 94 3f 18 	call	0x307e	; 0x307e <__udivmodqi4>
    24c4:	88 83       	st	Y, r24
    24c6:	83 2f       	mov	r24, r19
    24c8:	0e 94 3f 18 	call	0x307e	; 0x307e <__udivmodqi4>
    24cc:	f7 01       	movw	r30, r14
    24ce:	90 83       	st	Z, r25
    24d0:	f8 01       	movw	r30, r16
    24d2:	09 95       	icall
    24d4:	9e 9b       	sbis	0x13, 6	; 19
    24d6:	fe cf       	rjmp	.-4      	; 0x24d4 <Key_Operation+0x66>
    24d8:	9f 99       	sbic	0x13, 7	; 19
    24da:	29 c0       	rjmp	.+82     	; 0x252e <Key_Operation+0xc0>
    24dc:	80 e2       	ldi	r24, 0x20	; 32
    24de:	9e e4       	ldi	r25, 0x4E	; 78
    24e0:	01 97       	sbiw	r24, 0x01	; 1
    24e2:	f1 f7       	brne	.-4      	; 0x24e0 <Key_Operation+0x72>
    24e4:	9f 99       	sbic	0x13, 7	; 19
    24e6:	21 c0       	rjmp	.+66     	; 0x252a <Key_Operation+0xbc>
    24e8:	84 e6       	ldi	r24, 0x64	; 100
    24ea:	80 93 a0 02 	sts	0x02A0, r24
    24ee:	10 92 8d 02 	sts	0x028D, r1
    24f2:	10 92 8c 02 	sts	0x028C, r1
    24f6:	88 81       	ld	r24, Y
    24f8:	f7 01       	movw	r30, r14
    24fa:	30 81       	ld	r19, Z
    24fc:	31 50       	subi	r19, 0x01	; 1
    24fe:	2a e0       	ldi	r18, 0x0A	; 10
    2500:	82 9f       	mul	r24, r18
    2502:	c0 01       	movw	r24, r0
    2504:	11 24       	eor	r1, r1
    2506:	38 0f       	add	r19, r24
    2508:	d3 16       	cp	r13, r19
    250a:	10 f0       	brcs	.+4      	; 0x2510 <Key_Operation+0xa2>
    250c:	3c 15       	cp	r19, r12
    250e:	08 f4       	brcc	.+2      	; 0x2512 <Key_Operation+0xa4>
    2510:	3d 2d       	mov	r19, r13
    2512:	83 2f       	mov	r24, r19
    2514:	6a e0       	ldi	r22, 0x0A	; 10
    2516:	0e 94 3f 18 	call	0x307e	; 0x307e <__udivmodqi4>
    251a:	88 83       	st	Y, r24
    251c:	83 2f       	mov	r24, r19
    251e:	0e 94 3f 18 	call	0x307e	; 0x307e <__udivmodqi4>
    2522:	f7 01       	movw	r30, r14
    2524:	90 83       	st	Z, r25
    2526:	f8 01       	movw	r30, r16
    2528:	09 95       	icall
    252a:	9f 9b       	sbis	0x13, 7	; 19
    252c:	fe cf       	rjmp	.-4      	; 0x252a <Key_Operation+0xbc>
    252e:	df 91       	pop	r29
    2530:	cf 91       	pop	r28
    2532:	1f 91       	pop	r17
    2534:	0f 91       	pop	r16
    2536:	ff 90       	pop	r15
    2538:	ef 90       	pop	r14
    253a:	df 90       	pop	r13
    253c:	cf 90       	pop	r12
    253e:	08 95       	ret

00002540 <StartAD>:
    2540:	16 b8       	out	0x06, r1	; 6
    2542:	80 e4       	ldi	r24, 0x40	; 64
    2544:	87 b9       	out	0x07, r24	; 7
    2546:	87 ed       	ldi	r24, 0xD7	; 215
    2548:	86 b9       	out	0x06, r24	; 6
    254a:	08 95       	ret

0000254c <GetDispalyLight>:
    254c:	24 b1       	in	r18, 0x04	; 4
    254e:	85 b1       	in	r24, 0x05	; 5
    2550:	90 e0       	ldi	r25, 0x00	; 0
    2552:	98 2f       	mov	r25, r24
    2554:	88 27       	eor	r24, r24
    2556:	30 e0       	ldi	r19, 0x00	; 0
    2558:	82 2b       	or	r24, r18
    255a:	93 2b       	or	r25, r19
    255c:	96 95       	lsr	r25
    255e:	87 95       	ror	r24
    2560:	83 97       	sbiw	r24, 0x23	; 35
    2562:	6c e3       	ldi	r22, 0x3C	; 60
    2564:	70 e0       	ldi	r23, 0x00	; 0
    2566:	0e 94 4b 18 	call	0x3096	; 0x3096 <__udivmodhi4>
    256a:	98 e0       	ldi	r25, 0x08	; 8
    256c:	89 2f       	mov	r24, r25
    256e:	86 1b       	sub	r24, r22
    2570:	80 93 73 00 	sts	0x0073, r24
    2574:	89 30       	cpi	r24, 0x09	; 9
    2576:	18 f0       	brcs	.+6      	; 0x257e <GetDispalyLight+0x32>
    2578:	90 93 73 00 	sts	0x0073, r25
    257c:	05 c0       	rjmp	.+10     	; 0x2588 <GetDispalyLight+0x3c>
    257e:	88 23       	and	r24, r24
    2580:	19 f4       	brne	.+6      	; 0x2588 <GetDispalyLight+0x3c>
    2582:	81 e0       	ldi	r24, 0x01	; 1
    2584:	80 93 73 00 	sts	0x0073, r24
    2588:	80 91 73 00 	lds	r24, 0x0073
    258c:	29 e1       	ldi	r18, 0x19	; 25
    258e:	82 9f       	mul	r24, r18
    2590:	c0 01       	movw	r24, r0
    2592:	11 24       	eor	r1, r1
    2594:	89 51       	subi	r24, 0x19	; 25
    2596:	8c bf       	out	0x3c, r24	; 60
    2598:	08 95       	ret

0000259a <timer0_init>:
    259a:	13 be       	out	0x33, r1	; 51
    259c:	12 be       	out	0x32, r1	; 50
    259e:	89 e7       	ldi	r24, 0x79	; 121
    25a0:	83 bf       	out	0x33, r24	; 51
    25a2:	80 91 72 00 	lds	r24, 0x0072
    25a6:	89 30       	cpi	r24, 0x09	; 9
    25a8:	40 f4       	brcc	.+16     	; 0x25ba <timer0_init+0x20>
    25aa:	80 91 73 00 	lds	r24, 0x0073
    25ae:	29 e1       	ldi	r18, 0x19	; 25
    25b0:	82 9f       	mul	r24, r18
    25b2:	c0 01       	movw	r24, r0
    25b4:	11 24       	eor	r1, r1
    25b6:	89 51       	subi	r24, 0x19	; 25
    25b8:	01 c0       	rjmp	.+2      	; 0x25bc <timer0_init+0x22>
    25ba:	84 e6       	ldi	r24, 0x64	; 100
    25bc:	8c bf       	out	0x3c, r24	; 60
    25be:	08 95       	ret

000025c0 <timer2_init>:
    25c0:	15 bc       	out	0x25, r1	; 37
    25c2:	12 bc       	out	0x22, r1	; 34
    25c4:	83 e8       	ldi	r24, 0x83	; 131
    25c6:	84 bd       	out	0x24, r24	; 36
    25c8:	82 e8       	ldi	r24, 0x82	; 130
    25ca:	83 bd       	out	0x23, r24	; 35
    25cc:	89 b7       	in	r24, 0x39	; 57
    25ce:	80 64       	ori	r24, 0x40	; 64
    25d0:	89 bf       	out	0x39, r24	; 57
    25d2:	84 e0       	ldi	r24, 0x04	; 4
    25d4:	85 bd       	out	0x25, r24	; 37
    25d6:	08 95       	ret

000025d8 <INFRARED_INI>:
    25d8:	d7 9a       	sbi	0x1a, 7	; 26
    25da:	08 95       	ret

000025dc <fullScreen>:
    25dc:	40 e0       	ldi	r20, 0x00	; 0
    25de:	51 e0       	ldi	r21, 0x01	; 1
    25e0:	6f ef       	ldi	r22, 0xFF	; 255
    25e2:	70 e0       	ldi	r23, 0x00	; 0
    25e4:	82 e9       	ldi	r24, 0x92	; 146
    25e6:	90 e0       	ldi	r25, 0x00	; 0
    25e8:	0e 94 38 18 	call	0x3070	; 0x3070 <memset>
    25ec:	08 95       	ret

000025ee <clearScreen>:
    25ee:	80 e0       	ldi	r24, 0x00	; 0
    25f0:	91 e0       	ldi	r25, 0x01	; 1
    25f2:	e2 e9       	ldi	r30, 0x92	; 146
    25f4:	f0 e0       	ldi	r31, 0x00	; 0
    25f6:	11 92       	st	Z+, r1
    25f8:	01 97       	sbiw	r24, 0x01	; 1
    25fa:	e9 f7       	brne	.-6      	; 0x25f6 <clearScreen+0x8>
    25fc:	08 95       	ret

000025fe <init_devices>:
    25fe:	f8 94       	cli
    2600:	15 be       	out	0x35, r1	; 53
    2602:	1b be       	out	0x3b, r1	; 59
    2604:	0e 94 c2 09 	call	0x1384	; 0x1384 <LED_SCREEN_INI>
    2608:	0e 94 2e 12 	call	0x245c	; 0x245c <Key_Init>
    260c:	0e 94 d7 0f 	call	0x1fae	; 0x1fae <Voice_Init>
    2610:	0e 94 cd 12 	call	0x259a	; 0x259a <timer0_init>
    2614:	0e 94 e0 12 	call	0x25c0	; 0x25c0 <timer2_init>
    2618:	0e 94 c6 0e 	call	0x1d8c	; 0x1d8c <PCF8563_init>
    261c:	d7 9a       	sbi	0x1a, 7	; 26
    261e:	10 92 85 02 	sts	0x0285, r1
    2622:	10 92 84 02 	sts	0x0284, r1
    2626:	10 92 83 02 	sts	0x0283, r1
    262a:	10 92 82 02 	sts	0x0282, r1
    262e:	10 92 8d 02 	sts	0x028D, r1
    2632:	10 92 8c 02 	sts	0x028C, r1
    2636:	0e 94 26 08 	call	0x104c	; 0x104c <ds1820_reset>
    263a:	0e 94 f7 12 	call	0x25ee	; 0x25ee <clearScreen>
    263e:	78 94       	sei
    2640:	08 95       	ret

00002642 <Show_welcome>:
    2642:	cf 93       	push	r28
    2644:	df 93       	push	r29
    2646:	8c e1       	ldi	r24, 0x1C	; 28
    2648:	80 93 75 00 	sts	0x0075, r24
    264c:	40 e0       	ldi	r20, 0x00	; 0
    264e:	60 e0       	ldi	r22, 0x00	; 0
    2650:	80 e0       	ldi	r24, 0x00	; 0
    2652:	0e 94 46 0a 	call	0x148c	; 0x148c <writeOneChinese>
    2656:	41 e0       	ldi	r20, 0x01	; 1
    2658:	60 e0       	ldi	r22, 0x00	; 0
    265a:	82 e0       	ldi	r24, 0x02	; 2
    265c:	0e 94 46 0a 	call	0x148c	; 0x148c <writeOneChinese>
    2660:	42 e0       	ldi	r20, 0x02	; 2
    2662:	60 e0       	ldi	r22, 0x00	; 0
    2664:	84 e0       	ldi	r24, 0x04	; 4
    2666:	0e 94 46 0a 	call	0x148c	; 0x148c <writeOneChinese>
    266a:	43 e0       	ldi	r20, 0x03	; 3
    266c:	60 e0       	ldi	r22, 0x00	; 0
    266e:	86 e0       	ldi	r24, 0x06	; 6
    2670:	0e 94 46 0a 	call	0x148c	; 0x148c <writeOneChinese>
    2674:	44 e0       	ldi	r20, 0x04	; 4
    2676:	60 e1       	ldi	r22, 0x10	; 16
    2678:	80 e0       	ldi	r24, 0x00	; 0
    267a:	0e 94 46 0a 	call	0x148c	; 0x148c <writeOneChinese>
    267e:	45 e0       	ldi	r20, 0x05	; 5
    2680:	60 e1       	ldi	r22, 0x10	; 16
    2682:	82 e0       	ldi	r24, 0x02	; 2
    2684:	0e 94 46 0a 	call	0x148c	; 0x148c <writeOneChinese>
    2688:	46 e0       	ldi	r20, 0x06	; 6
    268a:	60 e1       	ldi	r22, 0x10	; 16
    268c:	84 e0       	ldi	r24, 0x04	; 4
    268e:	0e 94 46 0a 	call	0x148c	; 0x148c <writeOneChinese>
    2692:	47 e0       	ldi	r20, 0x07	; 7
    2694:	60 e1       	ldi	r22, 0x10	; 16
    2696:	86 e0       	ldi	r24, 0x06	; 6
    2698:	0e 94 46 0a 	call	0x148c	; 0x148c <writeOneChinese>
    269c:	c0 e0       	ldi	r28, 0x00	; 0
    269e:	d0 e0       	ldi	r29, 0x00	; 0
    26a0:	0e 94 92 0b 	call	0x1724	; 0x1724 <display>
    26a4:	8a e0       	ldi	r24, 0x0A	; 10
    26a6:	90 e0       	ldi	r25, 0x00	; 0
    26a8:	0e 94 0e 08 	call	0x101c	; 0x101c <s_10us>
    26ac:	21 96       	adiw	r28, 0x01	; 1
    26ae:	83 e1       	ldi	r24, 0x13	; 19
    26b0:	c8 38       	cpi	r28, 0x88	; 136
    26b2:	d8 07       	cpc	r29, r24
    26b4:	a9 f7       	brne	.-22     	; 0x26a0 <Show_welcome+0x5e>
    26b6:	0e 94 f7 12 	call	0x25ee	; 0x25ee <clearScreen>
    26ba:	10 92 75 00 	sts	0x0075, r1
    26be:	df 91       	pop	r29
    26c0:	cf 91       	pop	r28
    26c2:	08 95       	ret

000026c4 <FreshDisplayBufferNormal>:
    26c4:	0e 94 f7 12 	call	0x25ee	; 0x25ee <clearScreen>
    26c8:	40 91 68 00 	lds	r20, 0x0068
    26cc:	60 e0       	ldi	r22, 0x00	; 0
    26ce:	80 e0       	ldi	r24, 0x00	; 0
    26d0:	0e 94 e8 0a 	call	0x15d0	; 0x15d0 <wirteOneBigNumber>
    26d4:	40 91 69 00 	lds	r20, 0x0069
    26d8:	60 e0       	ldi	r22, 0x00	; 0
    26da:	82 e0       	ldi	r24, 0x02	; 2
    26dc:	0e 94 e8 0a 	call	0x15d0	; 0x15d0 <wirteOneBigNumber>
    26e0:	40 91 6a 00 	lds	r20, 0x006A
    26e4:	63 e0       	ldi	r22, 0x03	; 3
    26e6:	84 e0       	ldi	r24, 0x04	; 4
    26e8:	0e 94 e8 0a 	call	0x15d0	; 0x15d0 <wirteOneBigNumber>
    26ec:	40 91 6b 00 	lds	r20, 0x006B
    26f0:	63 e0       	ldi	r22, 0x03	; 3
    26f2:	86 e0       	ldi	r24, 0x06	; 6
    26f4:	0e 94 e8 0a 	call	0x15d0	; 0x15d0 <wirteOneBigNumber>
    26f8:	40 91 60 00 	lds	r20, 0x0060
    26fc:	67 e1       	ldi	r22, 0x17	; 23
    26fe:	80 e0       	ldi	r24, 0x00	; 0
    2700:	0e 94 87 0a 	call	0x150e	; 0x150e <writeOneSCROLL>
    2704:	40 91 61 00 	lds	r20, 0x0061
    2708:	67 e1       	ldi	r22, 0x17	; 23
    270a:	81 e0       	ldi	r24, 0x01	; 1
    270c:	0e 94 87 0a 	call	0x150e	; 0x150e <writeOneSCROLL>
    2710:	40 91 62 00 	lds	r20, 0x0062
    2714:	67 e1       	ldi	r22, 0x17	; 23
    2716:	82 e0       	ldi	r24, 0x02	; 2
    2718:	0e 94 87 0a 	call	0x150e	; 0x150e <writeOneSCROLL>
    271c:	40 91 63 00 	lds	r20, 0x0063
    2720:	67 e1       	ldi	r22, 0x17	; 23
    2722:	83 e0       	ldi	r24, 0x03	; 3
    2724:	0e 94 87 0a 	call	0x150e	; 0x150e <writeOneSCROLL>
    2728:	4a e0       	ldi	r20, 0x0A	; 10
    272a:	67 e1       	ldi	r22, 0x17	; 23
    272c:	84 e0       	ldi	r24, 0x04	; 4
    272e:	0e 94 87 0a 	call	0x150e	; 0x150e <writeOneSCROLL>
    2732:	40 91 64 00 	lds	r20, 0x0064
    2736:	67 e1       	ldi	r22, 0x17	; 23
    2738:	85 e0       	ldi	r24, 0x05	; 5
    273a:	0e 94 87 0a 	call	0x150e	; 0x150e <writeOneSCROLL>
    273e:	40 91 65 00 	lds	r20, 0x0065
    2742:	67 e1       	ldi	r22, 0x17	; 23
    2744:	86 e0       	ldi	r24, 0x06	; 6
    2746:	0e 94 87 0a 	call	0x150e	; 0x150e <writeOneSCROLL>
    274a:	4b e0       	ldi	r20, 0x0B	; 11
    274c:	67 e1       	ldi	r22, 0x17	; 23
    274e:	87 e0       	ldi	r24, 0x07	; 7
    2750:	0e 94 87 0a 	call	0x150e	; 0x150e <writeOneSCROLL>
    2754:	40 91 66 00 	lds	r20, 0x0066
    2758:	68 e1       	ldi	r22, 0x18	; 24
    275a:	80 e0       	ldi	r24, 0x00	; 0
    275c:	0e 94 87 0a 	call	0x150e	; 0x150e <writeOneSCROLL>
    2760:	40 91 67 00 	lds	r20, 0x0067
    2764:	68 e1       	ldi	r22, 0x18	; 24
    2766:	81 e0       	ldi	r24, 0x01	; 1
    2768:	0e 94 87 0a 	call	0x150e	; 0x150e <writeOneSCROLL>
    276c:	44 e1       	ldi	r20, 0x14	; 20
    276e:	68 e1       	ldi	r22, 0x18	; 24
    2770:	82 e0       	ldi	r24, 0x02	; 2
    2772:	0e 94 87 0a 	call	0x150e	; 0x150e <writeOneSCROLL>
    2776:	4c e0       	ldi	r20, 0x0C	; 12
    2778:	68 e1       	ldi	r22, 0x18	; 24
    277a:	84 e0       	ldi	r24, 0x04	; 4
    277c:	0e 94 87 0a 	call	0x150e	; 0x150e <writeOneSCROLL>
    2780:	40 91 6e 00 	lds	r20, 0x006E
    2784:	43 5f       	subi	r20, 0xF3	; 243
    2786:	68 e1       	ldi	r22, 0x18	; 24
    2788:	85 e0       	ldi	r24, 0x05	; 5
    278a:	0e 94 87 0a 	call	0x150e	; 0x150e <writeOneSCROLL>
    278e:	40 91 6f 00 	lds	r20, 0x006F
    2792:	68 e1       	ldi	r22, 0x18	; 24
    2794:	87 e0       	ldi	r24, 0x07	; 7
    2796:	0e 94 87 0a 	call	0x150e	; 0x150e <writeOneSCROLL>
    279a:	40 91 70 00 	lds	r20, 0x0070
    279e:	69 e1       	ldi	r22, 0x19	; 25
    27a0:	80 e0       	ldi	r24, 0x00	; 0
    27a2:	0e 94 87 0a 	call	0x150e	; 0x150e <writeOneSCROLL>
    27a6:	45 e1       	ldi	r20, 0x15	; 21
    27a8:	69 e1       	ldi	r22, 0x19	; 25
    27aa:	81 e0       	ldi	r24, 0x01	; 1
    27ac:	0e 94 87 0a 	call	0x150e	; 0x150e <writeOneSCROLL>
    27b0:	40 91 71 00 	lds	r20, 0x0071
    27b4:	69 e1       	ldi	r22, 0x19	; 25
    27b6:	82 e0       	ldi	r24, 0x02	; 2
    27b8:	0e 94 87 0a 	call	0x150e	; 0x150e <writeOneSCROLL>
    27bc:	4d e0       	ldi	r20, 0x0D	; 13
    27be:	69 e1       	ldi	r22, 0x19	; 25
    27c0:	83 e0       	ldi	r24, 0x03	; 3
    27c2:	0e 94 87 0a 	call	0x150e	; 0x150e <writeOneSCROLL>
    27c6:	08 95       	ret

000027c8 <FreshDisplayBufferAjustProofTime>:
    27c8:	0e 94 f7 12 	call	0x25ee	; 0x25ee <clearScreen>
    27cc:	4d e1       	ldi	r20, 0x1D	; 29
    27ce:	60 e0       	ldi	r22, 0x00	; 0
    27d0:	80 e0       	ldi	r24, 0x00	; 0
    27d2:	0e 94 46 0a 	call	0x148c	; 0x148c <writeOneChinese>
    27d6:	4d e0       	ldi	r20, 0x0D	; 13
    27d8:	60 e1       	ldi	r22, 0x10	; 16
    27da:	80 e0       	ldi	r24, 0x00	; 0
    27dc:	0e 94 46 0a 	call	0x148c	; 0x148c <writeOneChinese>
    27e0:	4a e1       	ldi	r20, 0x1A	; 26
    27e2:	66 e1       	ldi	r22, 0x16	; 22
    27e4:	86 e0       	ldi	r24, 0x06	; 6
    27e6:	0e 94 6b 0a 	call	0x14d6	; 0x14d6 <writeOneUnSCROLL>
    27ea:	4b e0       	ldi	r20, 0x0B	; 11
    27ec:	66 e1       	ldi	r22, 0x16	; 22
    27ee:	87 e0       	ldi	r24, 0x07	; 7
    27f0:	0e 94 6b 0a 	call	0x14d6	; 0x14d6 <writeOneUnSCROLL>
    27f4:	80 91 76 00 	lds	r24, 0x0076
    27f8:	88 23       	and	r24, r24
    27fa:	11 f0       	breq	.+4      	; 0x2800 <FreshDisplayBufferAjustProofTime+0x38>
    27fc:	4b e1       	ldi	r20, 0x1B	; 27
    27fe:	01 c0       	rjmp	.+2      	; 0x2802 <FreshDisplayBufferAjustProofTime+0x3a>
    2800:	41 e2       	ldi	r20, 0x21	; 33
    2802:	66 e1       	ldi	r22, 0x16	; 22
    2804:	82 e0       	ldi	r24, 0x02	; 2
    2806:	0e 94 6b 0a 	call	0x14d6	; 0x14d6 <writeOneUnSCROLL>
    280a:	40 91 77 00 	lds	r20, 0x0077
    280e:	60 e0       	ldi	r22, 0x00	; 0
    2810:	83 e0       	ldi	r24, 0x03	; 3
    2812:	0e 94 e8 0a 	call	0x15d0	; 0x15d0 <wirteOneBigNumber>
    2816:	40 91 78 00 	lds	r20, 0x0078
    281a:	60 e0       	ldi	r22, 0x00	; 0
    281c:	85 e0       	ldi	r24, 0x05	; 5
    281e:	0e 94 e8 0a 	call	0x15d0	; 0x15d0 <wirteOneBigNumber>
    2822:	48 e1       	ldi	r20, 0x18	; 24
    2824:	6b e0       	ldi	r22, 0x0B	; 11
    2826:	87 e0       	ldi	r24, 0x07	; 7
    2828:	0e 94 6b 0a 	call	0x14d6	; 0x14d6 <writeOneUnSCROLL>
    282c:	08 95       	ret

0000282e <FreshDisplayBufferChangeFont>:
    282e:	0e 94 f7 12 	call	0x25ee	; 0x25ee <clearScreen>
    2832:	48 e0       	ldi	r20, 0x08	; 8
    2834:	60 e0       	ldi	r22, 0x00	; 0
    2836:	80 e0       	ldi	r24, 0x00	; 0
    2838:	0e 94 46 0a 	call	0x148c	; 0x148c <writeOneChinese>
    283c:	49 e0       	ldi	r20, 0x09	; 9
    283e:	60 e0       	ldi	r22, 0x00	; 0
    2840:	82 e0       	ldi	r24, 0x02	; 2
    2842:	0e 94 46 0a 	call	0x148c	; 0x148c <writeOneChinese>
    2846:	4b e1       	ldi	r20, 0x1B	; 27
    2848:	60 e1       	ldi	r22, 0x10	; 16
    284a:	80 e0       	ldi	r24, 0x00	; 0
    284c:	0e 94 46 0a 	call	0x148c	; 0x148c <writeOneChinese>
    2850:	4c e1       	ldi	r20, 0x1C	; 28
    2852:	60 e1       	ldi	r22, 0x10	; 16
    2854:	82 e0       	ldi	r24, 0x02	; 2
    2856:	0e 94 46 0a 	call	0x148c	; 0x148c <writeOneChinese>
    285a:	4e e1       	ldi	r20, 0x1E	; 30
    285c:	66 e1       	ldi	r22, 0x16	; 22
    285e:	84 e0       	ldi	r24, 0x04	; 4
    2860:	0e 94 6b 0a 	call	0x14d6	; 0x14d6 <writeOneUnSCROLL>
    2864:	43 e0       	ldi	r20, 0x03	; 3
    2866:	60 e0       	ldi	r22, 0x00	; 0
    2868:	85 e0       	ldi	r24, 0x05	; 5
    286a:	0e 94 e8 0a 	call	0x15d0	; 0x15d0 <wirteOneBigNumber>
    286e:	08 95       	ret

00002870 <FreshDisplayBufferAjustLightMode>:
    2870:	0e 94 f7 12 	call	0x25ee	; 0x25ee <clearScreen>
    2874:	48 e0       	ldi	r20, 0x08	; 8
    2876:	60 e0       	ldi	r22, 0x00	; 0
    2878:	80 e0       	ldi	r24, 0x00	; 0
    287a:	0e 94 46 0a 	call	0x148c	; 0x148c <writeOneChinese>
    287e:	49 e0       	ldi	r20, 0x09	; 9
    2880:	60 e0       	ldi	r22, 0x00	; 0
    2882:	82 e0       	ldi	r24, 0x02	; 2
    2884:	0e 94 46 0a 	call	0x148c	; 0x148c <writeOneChinese>
    2888:	4c e0       	ldi	r20, 0x0C	; 12
    288a:	60 e1       	ldi	r22, 0x10	; 16
    288c:	80 e0       	ldi	r24, 0x00	; 0
    288e:	0e 94 46 0a 	call	0x148c	; 0x148c <writeOneChinese>
    2892:	4b e0       	ldi	r20, 0x0B	; 11
    2894:	60 e1       	ldi	r22, 0x10	; 16
    2896:	82 e0       	ldi	r24, 0x02	; 2
    2898:	0e 94 46 0a 	call	0x148c	; 0x148c <writeOneChinese>
    289c:	4e e1       	ldi	r20, 0x1E	; 30
    289e:	66 e1       	ldi	r22, 0x16	; 22
    28a0:	84 e0       	ldi	r24, 0x04	; 4
    28a2:	0e 94 6b 0a 	call	0x14d6	; 0x14d6 <writeOneUnSCROLL>
    28a6:	80 91 72 00 	lds	r24, 0x0072
    28aa:	88 23       	and	r24, r24
    28ac:	11 f0       	breq	.+4      	; 0x28b2 <FreshDisplayBufferAjustLightMode+0x42>
    28ae:	49 e1       	ldi	r20, 0x19	; 25
    28b0:	01 c0       	rjmp	.+2      	; 0x28b4 <FreshDisplayBufferAjustLightMode+0x44>
    28b2:	48 e1       	ldi	r20, 0x18	; 24
    28b4:	60 e0       	ldi	r22, 0x00	; 0
    28b6:	86 e0       	ldi	r24, 0x06	; 6
    28b8:	0e 94 46 0a 	call	0x148c	; 0x148c <writeOneChinese>
    28bc:	4a e1       	ldi	r20, 0x1A	; 26
    28be:	60 e1       	ldi	r22, 0x10	; 16
    28c0:	86 e0       	ldi	r24, 0x06	; 6
    28c2:	0e 94 46 0a 	call	0x148c	; 0x148c <writeOneChinese>
    28c6:	08 95       	ret

000028c8 <FreshDisplayBufferAjustLight>:
    28c8:	0e 94 f7 12 	call	0x25ee	; 0x25ee <clearScreen>
    28cc:	80 91 72 00 	lds	r24, 0x0072
    28d0:	88 23       	and	r24, r24
    28d2:	01 f1       	breq	.+64     	; 0x2914 <FreshDisplayBufferAjustLight+0x4c>
    28d4:	48 e0       	ldi	r20, 0x08	; 8
    28d6:	60 e0       	ldi	r22, 0x00	; 0
    28d8:	80 e0       	ldi	r24, 0x00	; 0
    28da:	0e 94 46 0a 	call	0x148c	; 0x148c <writeOneChinese>
    28de:	49 e0       	ldi	r20, 0x09	; 9
    28e0:	60 e0       	ldi	r22, 0x00	; 0
    28e2:	82 e0       	ldi	r24, 0x02	; 2
    28e4:	0e 94 46 0a 	call	0x148c	; 0x148c <writeOneChinese>
    28e8:	4c e0       	ldi	r20, 0x0C	; 12
    28ea:	60 e1       	ldi	r22, 0x10	; 16
    28ec:	80 e0       	ldi	r24, 0x00	; 0
    28ee:	0e 94 46 0a 	call	0x148c	; 0x148c <writeOneChinese>
    28f2:	4b e0       	ldi	r20, 0x0B	; 11
    28f4:	60 e1       	ldi	r22, 0x10	; 16
    28f6:	82 e0       	ldi	r24, 0x02	; 2
    28f8:	0e 94 46 0a 	call	0x148c	; 0x148c <writeOneChinese>
    28fc:	4e e1       	ldi	r20, 0x1E	; 30
    28fe:	66 e1       	ldi	r22, 0x16	; 22
    2900:	84 e0       	ldi	r24, 0x04	; 4
    2902:	0e 94 6b 0a 	call	0x14d6	; 0x14d6 <writeOneUnSCROLL>
    2906:	40 91 73 00 	lds	r20, 0x0073
    290a:	60 e0       	ldi	r22, 0x00	; 0
    290c:	85 e0       	ldi	r24, 0x05	; 5
    290e:	0e 94 e8 0a 	call	0x15d0	; 0x15d0 <wirteOneBigNumber>
    2912:	08 95       	ret
    2914:	0e 94 38 14 	call	0x2870	; 0x2870 <FreshDisplayBufferAjustLightMode>
    2918:	08 95       	ret

0000291a <FreshDisplayBufferVoiceMode>:
    291a:	0e 94 f7 12 	call	0x25ee	; 0x25ee <clearScreen>
    291e:	48 e2       	ldi	r20, 0x28	; 40
    2920:	60 e0       	ldi	r22, 0x00	; 0
    2922:	80 e0       	ldi	r24, 0x00	; 0
    2924:	0e 94 46 0a 	call	0x148c	; 0x148c <writeOneChinese>
    2928:	49 e2       	ldi	r20, 0x29	; 41
    292a:	60 e0       	ldi	r22, 0x00	; 0
    292c:	82 e0       	ldi	r24, 0x02	; 2
    292e:	0e 94 46 0a 	call	0x148c	; 0x148c <writeOneChinese>
    2932:	4a e2       	ldi	r20, 0x2A	; 42
    2934:	60 e1       	ldi	r22, 0x10	; 16
    2936:	80 e0       	ldi	r24, 0x00	; 0
    2938:	0e 94 46 0a 	call	0x148c	; 0x148c <writeOneChinese>
    293c:	4d e0       	ldi	r20, 0x0D	; 13
    293e:	60 e1       	ldi	r22, 0x10	; 16
    2940:	82 e0       	ldi	r24, 0x02	; 2
    2942:	0e 94 46 0a 	call	0x148c	; 0x148c <writeOneChinese>
    2946:	4e e1       	ldi	r20, 0x1E	; 30
    2948:	66 e1       	ldi	r22, 0x16	; 22
    294a:	84 e0       	ldi	r24, 0x04	; 4
    294c:	0e 94 6b 0a 	call	0x14d6	; 0x14d6 <writeOneUnSCROLL>
    2950:	80 91 7c 00 	lds	r24, 0x007C
    2954:	88 23       	and	r24, r24
    2956:	39 f4       	brne	.+14     	; 0x2966 <FreshDisplayBufferVoiceMode+0x4c>
    2958:	4b e2       	ldi	r20, 0x2B	; 43
    295a:	60 e0       	ldi	r22, 0x00	; 0
    295c:	86 e0       	ldi	r24, 0x06	; 6
    295e:	0e 94 46 0a 	call	0x148c	; 0x148c <writeOneChinese>
    2962:	4c e2       	ldi	r20, 0x2C	; 44
    2964:	0f c0       	rjmp	.+30     	; 0x2984 <FreshDisplayBufferVoiceMode+0x6a>
    2966:	81 30       	cpi	r24, 0x01	; 1
    2968:	39 f4       	brne	.+14     	; 0x2978 <FreshDisplayBufferVoiceMode+0x5e>
    296a:	4d e2       	ldi	r20, 0x2D	; 45
    296c:	60 e0       	ldi	r22, 0x00	; 0
    296e:	86 e0       	ldi	r24, 0x06	; 6
    2970:	0e 94 46 0a 	call	0x148c	; 0x148c <writeOneChinese>
    2974:	4e e2       	ldi	r20, 0x2E	; 46
    2976:	06 c0       	rjmp	.+12     	; 0x2984 <FreshDisplayBufferVoiceMode+0x6a>
    2978:	4f e2       	ldi	r20, 0x2F	; 47
    297a:	60 e0       	ldi	r22, 0x00	; 0
    297c:	86 e0       	ldi	r24, 0x06	; 6
    297e:	0e 94 46 0a 	call	0x148c	; 0x148c <writeOneChinese>
    2982:	40 e3       	ldi	r20, 0x30	; 48
    2984:	60 e1       	ldi	r22, 0x10	; 16
    2986:	86 e0       	ldi	r24, 0x06	; 6
    2988:	0e 94 46 0a 	call	0x148c	; 0x148c <writeOneChinese>
    298c:	08 95       	ret

0000298e <FreshDisplayBufferAjustSpeed>:
    298e:	0e 94 f7 12 	call	0x25ee	; 0x25ee <clearScreen>
    2992:	48 e0       	ldi	r20, 0x08	; 8
    2994:	60 e0       	ldi	r22, 0x00	; 0
    2996:	80 e0       	ldi	r24, 0x00	; 0
    2998:	0e 94 46 0a 	call	0x148c	; 0x148c <writeOneChinese>
    299c:	49 e0       	ldi	r20, 0x09	; 9
    299e:	60 e0       	ldi	r22, 0x00	; 0
    29a0:	82 e0       	ldi	r24, 0x02	; 2
    29a2:	0e 94 46 0a 	call	0x148c	; 0x148c <writeOneChinese>
    29a6:	4a e0       	ldi	r20, 0x0A	; 10
    29a8:	60 e1       	ldi	r22, 0x10	; 16
    29aa:	80 e0       	ldi	r24, 0x00	; 0
    29ac:	0e 94 46 0a 	call	0x148c	; 0x148c <writeOneChinese>
    29b0:	4b e0       	ldi	r20, 0x0B	; 11
    29b2:	60 e1       	ldi	r22, 0x10	; 16
    29b4:	82 e0       	ldi	r24, 0x02	; 2
    29b6:	0e 94 46 0a 	call	0x148c	; 0x148c <writeOneChinese>
    29ba:	4e e1       	ldi	r20, 0x1E	; 30
    29bc:	66 e1       	ldi	r22, 0x16	; 22
    29be:	84 e0       	ldi	r24, 0x04	; 4
    29c0:	0e 94 6b 0a 	call	0x14d6	; 0x14d6 <writeOneUnSCROLL>
    29c4:	40 91 74 00 	lds	r20, 0x0074
    29c8:	60 e0       	ldi	r22, 0x00	; 0
    29ca:	85 e0       	ldi	r24, 0x05	; 5
    29cc:	0e 94 e8 0a 	call	0x15d0	; 0x15d0 <wirteOneBigNumber>
    29d0:	08 95       	ret

000029d2 <FreshDisplayBufferAjustWeek>:
    29d2:	0e 94 f7 12 	call	0x25ee	; 0x25ee <clearScreen>
    29d6:	48 e0       	ldi	r20, 0x08	; 8
    29d8:	60 e0       	ldi	r22, 0x00	; 0
    29da:	80 e0       	ldi	r24, 0x00	; 0
    29dc:	0e 94 46 0a 	call	0x148c	; 0x148c <writeOneChinese>
    29e0:	49 e0       	ldi	r20, 0x09	; 9
    29e2:	60 e0       	ldi	r22, 0x00	; 0
    29e4:	82 e0       	ldi	r24, 0x02	; 2
    29e6:	0e 94 46 0a 	call	0x148c	; 0x148c <writeOneChinese>
    29ea:	45 e1       	ldi	r20, 0x15	; 21
    29ec:	60 e1       	ldi	r22, 0x10	; 16
    29ee:	80 e0       	ldi	r24, 0x00	; 0
    29f0:	0e 94 46 0a 	call	0x148c	; 0x148c <writeOneChinese>
    29f4:	46 e1       	ldi	r20, 0x16	; 22
    29f6:	60 e1       	ldi	r22, 0x10	; 16
    29f8:	82 e0       	ldi	r24, 0x02	; 2
    29fa:	0e 94 46 0a 	call	0x148c	; 0x148c <writeOneChinese>
    29fe:	4e e1       	ldi	r20, 0x1E	; 30
    2a00:	66 e1       	ldi	r22, 0x16	; 22
    2a02:	84 e0       	ldi	r24, 0x04	; 4
    2a04:	0e 94 6b 0a 	call	0x14d6	; 0x14d6 <writeOneUnSCROLL>
    2a08:	40 91 6e 00 	lds	r20, 0x006E
    2a0c:	60 e0       	ldi	r22, 0x00	; 0
    2a0e:	85 e0       	ldi	r24, 0x05	; 5
    2a10:	0e 94 e8 0a 	call	0x15d0	; 0x15d0 <wirteOneBigNumber>
    2a14:	08 95       	ret

00002a16 <FreshDisplayComment>:
    2a16:	df 92       	push	r13
    2a18:	ef 92       	push	r14
    2a1a:	ff 92       	push	r15
    2a1c:	0f 93       	push	r16
    2a1e:	1f 93       	push	r17
    2a20:	8c 01       	movw	r16, r24
    2a22:	7b 01       	movw	r14, r22
    2a24:	d4 2e       	mov	r13, r20
    2a26:	0e 94 f7 12 	call	0x25ee	; 0x25ee <clearScreen>
    2a2a:	48 e0       	ldi	r20, 0x08	; 8
    2a2c:	60 e0       	ldi	r22, 0x00	; 0
    2a2e:	80 e0       	ldi	r24, 0x00	; 0
    2a30:	0e 94 46 0a 	call	0x148c	; 0x148c <writeOneChinese>
    2a34:	49 e0       	ldi	r20, 0x09	; 9
    2a36:	60 e1       	ldi	r22, 0x10	; 16
    2a38:	80 e0       	ldi	r24, 0x00	; 0
    2a3a:	0e 94 46 0a 	call	0x148c	; 0x148c <writeOneChinese>
    2a3e:	f8 01       	movw	r30, r16
    2a40:	40 81       	ld	r20, Z
    2a42:	60 e0       	ldi	r22, 0x00	; 0
    2a44:	82 e0       	ldi	r24, 0x02	; 2
    2a46:	0e 94 e8 0a 	call	0x15d0	; 0x15d0 <wirteOneBigNumber>
    2a4a:	f7 01       	movw	r30, r14
    2a4c:	40 81       	ld	r20, Z
    2a4e:	60 e0       	ldi	r22, 0x00	; 0
    2a50:	84 e0       	ldi	r24, 0x04	; 4
    2a52:	0e 94 e8 0a 	call	0x15d0	; 0x15d0 <wirteOneBigNumber>
    2a56:	4d 2d       	mov	r20, r13
    2a58:	60 e1       	ldi	r22, 0x10	; 16
    2a5a:	86 e0       	ldi	r24, 0x06	; 6
    2a5c:	0e 94 46 0a 	call	0x148c	; 0x148c <writeOneChinese>
    2a60:	1f 91       	pop	r17
    2a62:	0f 91       	pop	r16
    2a64:	ff 90       	pop	r15
    2a66:	ef 90       	pop	r14
    2a68:	df 90       	pop	r13
    2a6a:	08 95       	ret

00002a6c <FreshDisplayBufferAjustMinute>:
    2a6c:	8b e6       	ldi	r24, 0x6B	; 107
    2a6e:	90 e0       	ldi	r25, 0x00	; 0
    2a70:	42 e1       	ldi	r20, 0x12	; 18
    2a72:	bc 01       	movw	r22, r24
    2a74:	01 97       	sbiw	r24, 0x01	; 1
    2a76:	0e 94 0b 15 	call	0x2a16	; 0x2a16 <FreshDisplayComment>
    2a7a:	08 95       	ret

00002a7c <FreshDisplayBufferAjustHour>:
    2a7c:	89 e6       	ldi	r24, 0x69	; 105
    2a7e:	90 e0       	ldi	r25, 0x00	; 0
    2a80:	4d e0       	ldi	r20, 0x0D	; 13
    2a82:	bc 01       	movw	r22, r24
    2a84:	01 97       	sbiw	r24, 0x01	; 1
    2a86:	0e 94 0b 15 	call	0x2a16	; 0x2a16 <FreshDisplayComment>
    2a8a:	08 95       	ret

00002a8c <FreshDisplayBufferAjustDay>:
    2a8c:	87 e6       	ldi	r24, 0x67	; 103
    2a8e:	90 e0       	ldi	r25, 0x00	; 0
    2a90:	41 e1       	ldi	r20, 0x11	; 17
    2a92:	bc 01       	movw	r22, r24
    2a94:	01 97       	sbiw	r24, 0x01	; 1
    2a96:	0e 94 0b 15 	call	0x2a16	; 0x2a16 <FreshDisplayComment>
    2a9a:	08 95       	ret

00002a9c <FreshDisplayBufferAjustMonth>:
    2a9c:	85 e6       	ldi	r24, 0x65	; 101
    2a9e:	90 e0       	ldi	r25, 0x00	; 0
    2aa0:	40 e1       	ldi	r20, 0x10	; 16
    2aa2:	bc 01       	movw	r22, r24
    2aa4:	01 97       	sbiw	r24, 0x01	; 1
    2aa6:	0e 94 0b 15 	call	0x2a16	; 0x2a16 <FreshDisplayComment>
    2aaa:	08 95       	ret

00002aac <FreshDisplayBufferAjustYear>:
    2aac:	83 e6       	ldi	r24, 0x63	; 99
    2aae:	90 e0       	ldi	r25, 0x00	; 0
    2ab0:	4f e0       	ldi	r20, 0x0F	; 15
    2ab2:	bc 01       	movw	r22, r24
    2ab4:	01 97       	sbiw	r24, 0x01	; 1
    2ab6:	0e 94 0b 15 	call	0x2a16	; 0x2a16 <FreshDisplayComment>
    2aba:	08 95       	ret

00002abc <Scan_Key>:
    2abc:	0f 93       	push	r16
    2abe:	1f 93       	push	r17
    2ac0:	cf 93       	push	r28
    2ac2:	df 93       	push	r29
    2ac4:	cd b7       	in	r28, 0x3d	; 61
    2ac6:	de b7       	in	r29, 0x3e	; 62
    2ac8:	21 97       	sbiw	r28, 0x01	; 1
    2aca:	0f b6       	in	r0, 0x3f	; 63
    2acc:	f8 94       	cli
    2ace:	de bf       	out	0x3e, r29	; 62
    2ad0:	0f be       	out	0x3f, r0	; 63
    2ad2:	cd bf       	out	0x3d, r28	; 61
    2ad4:	80 91 75 00 	lds	r24, 0x0075
    2ad8:	88 23       	and	r24, r24
    2ada:	a9 f0       	breq	.+42     	; 0x2b06 <Scan_Key+0x4a>
    2adc:	8b 31       	cpi	r24, 0x1B	; 27
    2ade:	99 f0       	breq	.+38     	; 0x2b06 <Scan_Key+0x4a>
    2ae0:	8a 31       	cpi	r24, 0x1A	; 26
    2ae2:	89 f0       	breq	.+34     	; 0x2b06 <Scan_Key+0x4a>
    2ae4:	80 91 8c 02 	lds	r24, 0x028C
    2ae8:	90 91 8d 02 	lds	r25, 0x028D
    2aec:	89 50       	subi	r24, 0x09	; 9
    2aee:	92 45       	sbci	r25, 0x52	; 82
    2af0:	50 f0       	brcs	.+20     	; 0x2b06 <Scan_Key+0x4a>
    2af2:	10 92 75 00 	sts	0x0075, r1
    2af6:	0e 94 36 0f 	call	0x1e6c	; 0x1e6c <Write_time>
    2afa:	0e 94 17 09 	call	0x122e	; 0x122e <SaveRunParameter>
    2afe:	0e 94 f7 12 	call	0x25ee	; 0x25ee <clearScreen>
    2b02:	0e 94 62 13 	call	0x26c4	; 0x26c4 <FreshDisplayBufferNormal>
    2b06:	80 91 75 00 	lds	r24, 0x0075
    2b0a:	8a 51       	subi	r24, 0x1A	; 26
    2b0c:	82 30       	cpi	r24, 0x02	; 2
    2b0e:	68 f4       	brcc	.+26     	; 0x2b2a <Scan_Key+0x6e>
    2b10:	80 91 9e 02 	lds	r24, 0x029E
    2b14:	90 91 9f 02 	lds	r25, 0x029F
    2b18:	85 5f       	subi	r24, 0xF5	; 245
    2b1a:	91 40       	sbci	r25, 0x01	; 1
    2b1c:	30 f0       	brcs	.+12     	; 0x2b2a <Scan_Key+0x6e>
    2b1e:	10 92 75 00 	sts	0x0075, r1
    2b22:	0e 94 17 09 	call	0x122e	; 0x122e <SaveRunParameter>
    2b26:	0e 94 62 13 	call	0x26c4	; 0x26c4 <FreshDisplayBufferNormal>
    2b2a:	81 99       	sbic	0x10, 1	; 16
    2b2c:	16 c0       	rjmp	.+44     	; 0x2b5a <Scan_Key+0x9e>
    2b2e:	80 e2       	ldi	r24, 0x20	; 32
    2b30:	9e e4       	ldi	r25, 0x4E	; 78
    2b32:	01 97       	sbiw	r24, 0x01	; 1
    2b34:	f1 f7       	brne	.-4      	; 0x2b32 <Scan_Key+0x76>
    2b36:	81 99       	sbic	0x10, 1	; 16
    2b38:	0e c0       	rjmp	.+28     	; 0x2b56 <Scan_Key+0x9a>
    2b3a:	81 e0       	ldi	r24, 0x01	; 1
    2b3c:	80 93 a0 02 	sts	0x02A0, r24
    2b40:	80 91 7a 00 	lds	r24, 0x007A
    2b44:	8f 5f       	subi	r24, 0xFF	; 255
    2b46:	80 93 7a 00 	sts	0x007A, r24
    2b4a:	87 30       	cpi	r24, 0x07	; 7
    2b4c:	10 f0       	brcs	.+4      	; 0x2b52 <Scan_Key+0x96>
    2b4e:	10 92 7a 00 	sts	0x007A, r1
    2b52:	0e 94 17 09 	call	0x122e	; 0x122e <SaveRunParameter>
    2b56:	81 9b       	sbis	0x10, 1	; 16
    2b58:	fe cf       	rjmp	.-4      	; 0x2b56 <Scan_Key+0x9a>
    2b5a:	80 91 75 00 	lds	r24, 0x0075
    2b5e:	88 23       	and	r24, r24
    2b60:	29 f0       	breq	.+10     	; 0x2b6c <Scan_Key+0xb0>
    2b62:	8b 31       	cpi	r24, 0x1B	; 27
    2b64:	19 f0       	breq	.+6      	; 0x2b6c <Scan_Key+0xb0>
    2b66:	8a 31       	cpi	r24, 0x1A	; 26
    2b68:	09 f0       	breq	.+2      	; 0x2b6c <Scan_Key+0xb0>
    2b6a:	4d c0       	rjmp	.+154    	; 0x2c06 <Scan_Key+0x14a>
    2b6c:	9e 99       	sbic	0x13, 6	; 19
    2b6e:	2a c0       	rjmp	.+84     	; 0x2bc4 <Scan_Key+0x108>
    2b70:	80 e2       	ldi	r24, 0x20	; 32
    2b72:	9e e4       	ldi	r25, 0x4E	; 78
    2b74:	01 97       	sbiw	r24, 0x01	; 1
    2b76:	f1 f7       	brne	.-4      	; 0x2b74 <Scan_Key+0xb8>
    2b78:	9e 99       	sbic	0x13, 6	; 19
    2b7a:	22 c0       	rjmp	.+68     	; 0x2bc0 <Scan_Key+0x104>
    2b7c:	84 e6       	ldi	r24, 0x64	; 100
    2b7e:	80 93 a0 02 	sts	0x02A0, r24
    2b82:	80 91 72 00 	lds	r24, 0x0072
    2b86:	88 23       	and	r24, r24
    2b88:	91 f0       	breq	.+36     	; 0x2bae <Scan_Key+0xf2>
    2b8a:	80 91 73 00 	lds	r24, 0x0073
    2b8e:	8f 5f       	subi	r24, 0xFF	; 255
    2b90:	80 93 73 00 	sts	0x0073, r24
    2b94:	89 30       	cpi	r24, 0x09	; 9
    2b96:	18 f0       	brcs	.+6      	; 0x2b9e <Scan_Key+0xe2>
    2b98:	81 e0       	ldi	r24, 0x01	; 1
    2b9a:	80 93 73 00 	sts	0x0073, r24
    2b9e:	80 91 73 00 	lds	r24, 0x0073
    2ba2:	29 e1       	ldi	r18, 0x19	; 25
    2ba4:	82 9f       	mul	r24, r18
    2ba6:	c0 01       	movw	r24, r0
    2ba8:	11 24       	eor	r1, r1
    2baa:	89 51       	subi	r24, 0x19	; 25
    2bac:	8c bf       	out	0x3c, r24	; 60
    2bae:	8b e1       	ldi	r24, 0x1B	; 27
    2bb0:	80 93 75 00 	sts	0x0075, r24
    2bb4:	10 92 9f 02 	sts	0x029F, r1
    2bb8:	10 92 9e 02 	sts	0x029E, r1
    2bbc:	0e 94 64 14 	call	0x28c8	; 0x28c8 <FreshDisplayBufferAjustLight>
    2bc0:	9e 9b       	sbis	0x13, 6	; 19
    2bc2:	fe cf       	rjmp	.-4      	; 0x2bc0 <Scan_Key+0x104>
    2bc4:	9f 99       	sbic	0x13, 7	; 19
    2bc6:	d2 c0       	rjmp	.+420    	; 0x2d6c <Scan_Key+0x2b0>
    2bc8:	80 e2       	ldi	r24, 0x20	; 32
    2bca:	9e e4       	ldi	r25, 0x4E	; 78
    2bcc:	01 97       	sbiw	r24, 0x01	; 1
    2bce:	f1 f7       	brne	.-4      	; 0x2bcc <Scan_Key+0x110>
    2bd0:	9f 99       	sbic	0x13, 7	; 19
    2bd2:	16 c0       	rjmp	.+44     	; 0x2c00 <Scan_Key+0x144>
    2bd4:	84 e6       	ldi	r24, 0x64	; 100
    2bd6:	80 93 a0 02 	sts	0x02A0, r24
    2bda:	80 91 74 00 	lds	r24, 0x0074
    2bde:	8f 5f       	subi	r24, 0xFF	; 255
    2be0:	80 93 74 00 	sts	0x0074, r24
    2be4:	89 30       	cpi	r24, 0x09	; 9
    2be6:	18 f0       	brcs	.+6      	; 0x2bee <Scan_Key+0x132>
    2be8:	81 e0       	ldi	r24, 0x01	; 1
    2bea:	80 93 74 00 	sts	0x0074, r24
    2bee:	8a e1       	ldi	r24, 0x1A	; 26
    2bf0:	80 93 75 00 	sts	0x0075, r24
    2bf4:	10 92 9f 02 	sts	0x029F, r1
    2bf8:	10 92 9e 02 	sts	0x029E, r1
    2bfc:	0e 94 c7 14 	call	0x298e	; 0x298e <FreshDisplayBufferAjustSpeed>
    2c00:	9f 99       	sbic	0x13, 7	; 19
    2c02:	b4 c0       	rjmp	.+360    	; 0x2d6c <Scan_Key+0x2b0>
    2c04:	fd cf       	rjmp	.-6      	; 0x2c00 <Scan_Key+0x144>
    2c06:	81 30       	cpi	r24, 0x01	; 1
    2c08:	49 f4       	brne	.+18     	; 0x2c1c <Scan_Key+0x160>
    2c0a:	06 e5       	ldi	r16, 0x56	; 86
    2c0c:	15 e1       	ldi	r17, 0x15	; 21
    2c0e:	23 e6       	ldi	r18, 0x63	; 99
    2c10:	30 e0       	ldi	r19, 0x00	; 0
    2c12:	42 e6       	ldi	r20, 0x62	; 98
    2c14:	50 e0       	ldi	r21, 0x00	; 0
    2c16:	60 e0       	ldi	r22, 0x00	; 0
    2c18:	83 e6       	ldi	r24, 0x63	; 99
    2c1a:	a6 c0       	rjmp	.+332    	; 0x2d68 <Scan_Key+0x2ac>
    2c1c:	82 30       	cpi	r24, 0x02	; 2
    2c1e:	49 f4       	brne	.+18     	; 0x2c32 <Scan_Key+0x176>
    2c20:	0e e4       	ldi	r16, 0x4E	; 78
    2c22:	15 e1       	ldi	r17, 0x15	; 21
    2c24:	25 e6       	ldi	r18, 0x65	; 101
    2c26:	30 e0       	ldi	r19, 0x00	; 0
    2c28:	44 e6       	ldi	r20, 0x64	; 100
    2c2a:	50 e0       	ldi	r21, 0x00	; 0
    2c2c:	61 e0       	ldi	r22, 0x01	; 1
    2c2e:	8c e0       	ldi	r24, 0x0C	; 12
    2c30:	9b c0       	rjmp	.+310    	; 0x2d68 <Scan_Key+0x2ac>
    2c32:	83 30       	cpi	r24, 0x03	; 3
    2c34:	49 f4       	brne	.+18     	; 0x2c48 <Scan_Key+0x18c>
    2c36:	06 e4       	ldi	r16, 0x46	; 70
    2c38:	15 e1       	ldi	r17, 0x15	; 21
    2c3a:	27 e6       	ldi	r18, 0x67	; 103
    2c3c:	30 e0       	ldi	r19, 0x00	; 0
    2c3e:	46 e6       	ldi	r20, 0x66	; 102
    2c40:	50 e0       	ldi	r21, 0x00	; 0
    2c42:	61 e0       	ldi	r22, 0x01	; 1
    2c44:	8f e1       	ldi	r24, 0x1F	; 31
    2c46:	90 c0       	rjmp	.+288    	; 0x2d68 <Scan_Key+0x2ac>
    2c48:	84 30       	cpi	r24, 0x04	; 4
    2c4a:	49 f4       	brne	.+18     	; 0x2c5e <Scan_Key+0x1a2>
    2c4c:	0e e3       	ldi	r16, 0x3E	; 62
    2c4e:	15 e1       	ldi	r17, 0x15	; 21
    2c50:	29 e6       	ldi	r18, 0x69	; 105
    2c52:	30 e0       	ldi	r19, 0x00	; 0
    2c54:	48 e6       	ldi	r20, 0x68	; 104
    2c56:	50 e0       	ldi	r21, 0x00	; 0
    2c58:	60 e0       	ldi	r22, 0x00	; 0
    2c5a:	87 e1       	ldi	r24, 0x17	; 23
    2c5c:	85 c0       	rjmp	.+266    	; 0x2d68 <Scan_Key+0x2ac>
    2c5e:	85 30       	cpi	r24, 0x05	; 5
    2c60:	49 f4       	brne	.+18     	; 0x2c74 <Scan_Key+0x1b8>
    2c62:	06 e3       	ldi	r16, 0x36	; 54
    2c64:	15 e1       	ldi	r17, 0x15	; 21
    2c66:	2b e6       	ldi	r18, 0x6B	; 107
    2c68:	30 e0       	ldi	r19, 0x00	; 0
    2c6a:	4a e6       	ldi	r20, 0x6A	; 106
    2c6c:	50 e0       	ldi	r21, 0x00	; 0
    2c6e:	60 e0       	ldi	r22, 0x00	; 0
    2c70:	8b e3       	ldi	r24, 0x3B	; 59
    2c72:	7a c0       	rjmp	.+244    	; 0x2d68 <Scan_Key+0x2ac>
    2c74:	86 30       	cpi	r24, 0x06	; 6
    2c76:	59 f4       	brne	.+22     	; 0x2c8e <Scan_Key+0x1d2>
    2c78:	19 82       	std	Y+1, r1	; 0x01
    2c7a:	09 ee       	ldi	r16, 0xE9	; 233
    2c7c:	14 e1       	ldi	r17, 0x14	; 20
    2c7e:	2e e6       	ldi	r18, 0x6E	; 110
    2c80:	30 e0       	ldi	r19, 0x00	; 0
    2c82:	ae 01       	movw	r20, r28
    2c84:	4f 5f       	subi	r20, 0xFF	; 255
    2c86:	5f 4f       	sbci	r21, 0xFF	; 255
    2c88:	61 e0       	ldi	r22, 0x01	; 1
    2c8a:	87 e0       	ldi	r24, 0x07	; 7
    2c8c:	6d c0       	rjmp	.+218    	; 0x2d68 <Scan_Key+0x2ac>
    2c8e:	87 30       	cpi	r24, 0x07	; 7
    2c90:	59 f4       	brne	.+22     	; 0x2ca8 <Scan_Key+0x1ec>
    2c92:	19 82       	std	Y+1, r1	; 0x01
    2c94:	08 e3       	ldi	r16, 0x38	; 56
    2c96:	14 e1       	ldi	r17, 0x14	; 20
    2c98:	22 e7       	ldi	r18, 0x72	; 114
    2c9a:	30 e0       	ldi	r19, 0x00	; 0
    2c9c:	ae 01       	movw	r20, r28
    2c9e:	4f 5f       	subi	r20, 0xFF	; 255
    2ca0:	5f 4f       	sbci	r21, 0xFF	; 255
    2ca2:	60 e0       	ldi	r22, 0x00	; 0
    2ca4:	81 e0       	ldi	r24, 0x01	; 1
    2ca6:	60 c0       	rjmp	.+192    	; 0x2d68 <Scan_Key+0x2ac>
    2ca8:	88 30       	cpi	r24, 0x08	; 8
    2caa:	31 f4       	brne	.+12     	; 0x2cb8 <Scan_Key+0x1fc>
    2cac:	19 82       	std	Y+1, r1	; 0x01
    2cae:	07 e1       	ldi	r16, 0x17	; 23
    2cb0:	14 e1       	ldi	r17, 0x14	; 20
    2cb2:	2b e7       	ldi	r18, 0x7B	; 123
    2cb4:	30 e0       	ldi	r19, 0x00	; 0
    2cb6:	53 c0       	rjmp	.+166    	; 0x2d5e <Scan_Key+0x2a2>
    2cb8:	89 30       	cpi	r24, 0x09	; 9
    2cba:	09 f0       	breq	.+2      	; 0x2cbe <Scan_Key+0x202>
    2cbc:	49 c0       	rjmp	.+146    	; 0x2d50 <Scan_Key+0x294>
    2cbe:	9e 99       	sbic	0x13, 6	; 19
    2cc0:	29 c0       	rjmp	.+82     	; 0x2d14 <Scan_Key+0x258>
    2cc2:	80 e2       	ldi	r24, 0x20	; 32
    2cc4:	9e e4       	ldi	r25, 0x4E	; 78
    2cc6:	01 97       	sbiw	r24, 0x01	; 1
    2cc8:	f1 f7       	brne	.-4      	; 0x2cc6 <Scan_Key+0x20a>
    2cca:	9e 99       	sbic	0x13, 6	; 19
    2ccc:	21 c0       	rjmp	.+66     	; 0x2d10 <Scan_Key+0x254>
    2cce:	10 92 8d 02 	sts	0x028D, r1
    2cd2:	10 92 8c 02 	sts	0x028C, r1
    2cd6:	84 e6       	ldi	r24, 0x64	; 100
    2cd8:	80 93 a0 02 	sts	0x02A0, r24
    2cdc:	30 91 78 00 	lds	r19, 0x0078
    2ce0:	3f 5f       	subi	r19, 0xFF	; 255
    2ce2:	80 91 77 00 	lds	r24, 0x0077
    2ce6:	2a e0       	ldi	r18, 0x0A	; 10
    2ce8:	82 9f       	mul	r24, r18
    2cea:	c0 01       	movw	r24, r0
    2cec:	11 24       	eor	r1, r1
    2cee:	38 0f       	add	r19, r24
    2cf0:	35 31       	cpi	r19, 0x15	; 21
    2cf2:	08 f0       	brcs	.+2      	; 0x2cf6 <Scan_Key+0x23a>
    2cf4:	30 e0       	ldi	r19, 0x00	; 0
    2cf6:	83 2f       	mov	r24, r19
    2cf8:	6a e0       	ldi	r22, 0x0A	; 10
    2cfa:	0e 94 3f 18 	call	0x307e	; 0x307e <__udivmodqi4>
    2cfe:	80 93 77 00 	sts	0x0077, r24
    2d02:	83 2f       	mov	r24, r19
    2d04:	0e 94 3f 18 	call	0x307e	; 0x307e <__udivmodqi4>
    2d08:	90 93 78 00 	sts	0x0078, r25
    2d0c:	0e 94 e4 13 	call	0x27c8	; 0x27c8 <FreshDisplayBufferAjustProofTime>
    2d10:	9e 9b       	sbis	0x13, 6	; 19
    2d12:	fe cf       	rjmp	.-4      	; 0x2d10 <Scan_Key+0x254>
    2d14:	9f 99       	sbic	0x13, 7	; 19
    2d16:	2a c0       	rjmp	.+84     	; 0x2d6c <Scan_Key+0x2b0>
    2d18:	80 e2       	ldi	r24, 0x20	; 32
    2d1a:	9e e4       	ldi	r25, 0x4E	; 78
    2d1c:	01 97       	sbiw	r24, 0x01	; 1
    2d1e:	f1 f7       	brne	.-4      	; 0x2d1c <Scan_Key+0x260>
    2d20:	9f 99       	sbic	0x13, 7	; 19
    2d22:	13 c0       	rjmp	.+38     	; 0x2d4a <Scan_Key+0x28e>
    2d24:	10 92 8d 02 	sts	0x028D, r1
    2d28:	10 92 8c 02 	sts	0x028C, r1
    2d2c:	84 e6       	ldi	r24, 0x64	; 100
    2d2e:	80 93 a0 02 	sts	0x02A0, r24
    2d32:	80 91 76 00 	lds	r24, 0x0076
    2d36:	88 23       	and	r24, r24
    2d38:	19 f0       	breq	.+6      	; 0x2d40 <Scan_Key+0x284>
    2d3a:	10 92 76 00 	sts	0x0076, r1
    2d3e:	03 c0       	rjmp	.+6      	; 0x2d46 <Scan_Key+0x28a>
    2d40:	81 e0       	ldi	r24, 0x01	; 1
    2d42:	80 93 76 00 	sts	0x0076, r24
    2d46:	0e 94 e4 13 	call	0x27c8	; 0x27c8 <FreshDisplayBufferAjustProofTime>
    2d4a:	9f 99       	sbic	0x13, 7	; 19
    2d4c:	0f c0       	rjmp	.+30     	; 0x2d6c <Scan_Key+0x2b0>
    2d4e:	fd cf       	rjmp	.-6      	; 0x2d4a <Scan_Key+0x28e>
    2d50:	8a 30       	cpi	r24, 0x0A	; 10
    2d52:	61 f4       	brne	.+24     	; 0x2d6c <Scan_Key+0x2b0>
    2d54:	19 82       	std	Y+1, r1	; 0x01
    2d56:	0d e8       	ldi	r16, 0x8D	; 141
    2d58:	14 e1       	ldi	r17, 0x14	; 20
    2d5a:	2c e7       	ldi	r18, 0x7C	; 124
    2d5c:	30 e0       	ldi	r19, 0x00	; 0
    2d5e:	ae 01       	movw	r20, r28
    2d60:	4f 5f       	subi	r20, 0xFF	; 255
    2d62:	5f 4f       	sbci	r21, 0xFF	; 255
    2d64:	60 e0       	ldi	r22, 0x00	; 0
    2d66:	82 e0       	ldi	r24, 0x02	; 2
    2d68:	0e 94 37 12 	call	0x246e	; 0x246e <Key_Operation>
    2d6c:	80 99       	sbic	0x10, 0	; 16
    2d6e:	60 c0       	rjmp	.+192    	; 0x2e30 <Scan_Key+0x374>
    2d70:	80 e2       	ldi	r24, 0x20	; 32
    2d72:	9e e4       	ldi	r25, 0x4E	; 78
    2d74:	01 97       	sbiw	r24, 0x01	; 1
    2d76:	f1 f7       	brne	.-4      	; 0x2d74 <Scan_Key+0x2b8>
    2d78:	80 99       	sbic	0x10, 0	; 16
    2d7a:	58 c0       	rjmp	.+176    	; 0x2e2c <Scan_Key+0x370>
    2d7c:	84 e6       	ldi	r24, 0x64	; 100
    2d7e:	80 93 a0 02 	sts	0x02A0, r24
    2d82:	10 92 8d 02 	sts	0x028D, r1
    2d86:	10 92 8c 02 	sts	0x028C, r1
    2d8a:	80 91 75 00 	lds	r24, 0x0075
    2d8e:	8f 5f       	subi	r24, 0xFF	; 255
    2d90:	80 93 75 00 	sts	0x0075, r24
    2d94:	8b 30       	cpi	r24, 0x0B	; 11
    2d96:	10 f0       	brcs	.+4      	; 0x2d9c <Scan_Key+0x2e0>
    2d98:	10 92 75 00 	sts	0x0075, r1
    2d9c:	80 91 75 00 	lds	r24, 0x0075
    2da0:	85 30       	cpi	r24, 0x05	; 5
    2da2:	99 f1       	breq	.+102    	; 0x2e0a <Scan_Key+0x34e>
    2da4:	86 30       	cpi	r24, 0x06	; 6
    2da6:	70 f4       	brcc	.+28     	; 0x2dc4 <Scan_Key+0x308>
    2da8:	82 30       	cpi	r24, 0x02	; 2
    2daa:	31 f1       	breq	.+76     	; 0x2df8 <Scan_Key+0x33c>
    2dac:	83 30       	cpi	r24, 0x03	; 3
    2dae:	28 f4       	brcc	.+10     	; 0x2dba <Scan_Key+0x2fe>
    2db0:	88 23       	and	r24, r24
    2db2:	b1 f0       	breq	.+44     	; 0x2de0 <Scan_Key+0x324>
    2db4:	81 30       	cpi	r24, 0x01	; 1
    2db6:	d1 f5       	brne	.+116    	; 0x2e2c <Scan_Key+0x370>
    2db8:	1c c0       	rjmp	.+56     	; 0x2df2 <Scan_Key+0x336>
    2dba:	83 30       	cpi	r24, 0x03	; 3
    2dbc:	01 f1       	breq	.+64     	; 0x2dfe <Scan_Key+0x342>
    2dbe:	84 30       	cpi	r24, 0x04	; 4
    2dc0:	a9 f5       	brne	.+106    	; 0x2e2c <Scan_Key+0x370>
    2dc2:	20 c0       	rjmp	.+64     	; 0x2e04 <Scan_Key+0x348>
    2dc4:	88 30       	cpi	r24, 0x08	; 8
    2dc6:	51 f1       	breq	.+84     	; 0x2e1c <Scan_Key+0x360>
    2dc8:	89 30       	cpi	r24, 0x09	; 9
    2dca:	28 f4       	brcc	.+10     	; 0x2dd6 <Scan_Key+0x31a>
    2dcc:	86 30       	cpi	r24, 0x06	; 6
    2dce:	01 f1       	breq	.+64     	; 0x2e10 <Scan_Key+0x354>
    2dd0:	87 30       	cpi	r24, 0x07	; 7
    2dd2:	61 f5       	brne	.+88     	; 0x2e2c <Scan_Key+0x370>
    2dd4:	20 c0       	rjmp	.+64     	; 0x2e16 <Scan_Key+0x35a>
    2dd6:	89 30       	cpi	r24, 0x09	; 9
    2dd8:	21 f1       	breq	.+72     	; 0x2e22 <Scan_Key+0x366>
    2dda:	8a 30       	cpi	r24, 0x0A	; 10
    2ddc:	39 f5       	brne	.+78     	; 0x2e2c <Scan_Key+0x370>
    2dde:	24 c0       	rjmp	.+72     	; 0x2e28 <Scan_Key+0x36c>
    2de0:	0e 94 36 0f 	call	0x1e6c	; 0x1e6c <Write_time>
    2de4:	0e 94 17 09 	call	0x122e	; 0x122e <SaveRunParameter>
    2de8:	0e 94 f7 12 	call	0x25ee	; 0x25ee <clearScreen>
    2dec:	0e 94 62 13 	call	0x26c4	; 0x26c4 <FreshDisplayBufferNormal>
    2df0:	1d c0       	rjmp	.+58     	; 0x2e2c <Scan_Key+0x370>
    2df2:	0e 94 56 15 	call	0x2aac	; 0x2aac <FreshDisplayBufferAjustYear>
    2df6:	1a c0       	rjmp	.+52     	; 0x2e2c <Scan_Key+0x370>
    2df8:	0e 94 4e 15 	call	0x2a9c	; 0x2a9c <FreshDisplayBufferAjustMonth>
    2dfc:	17 c0       	rjmp	.+46     	; 0x2e2c <Scan_Key+0x370>
    2dfe:	0e 94 46 15 	call	0x2a8c	; 0x2a8c <FreshDisplayBufferAjustDay>
    2e02:	14 c0       	rjmp	.+40     	; 0x2e2c <Scan_Key+0x370>
    2e04:	0e 94 3e 15 	call	0x2a7c	; 0x2a7c <FreshDisplayBufferAjustHour>
    2e08:	11 c0       	rjmp	.+34     	; 0x2e2c <Scan_Key+0x370>
    2e0a:	0e 94 36 15 	call	0x2a6c	; 0x2a6c <FreshDisplayBufferAjustMinute>
    2e0e:	0e c0       	rjmp	.+28     	; 0x2e2c <Scan_Key+0x370>
    2e10:	0e 94 e9 14 	call	0x29d2	; 0x29d2 <FreshDisplayBufferAjustWeek>
    2e14:	0b c0       	rjmp	.+22     	; 0x2e2c <Scan_Key+0x370>
    2e16:	0e 94 38 14 	call	0x2870	; 0x2870 <FreshDisplayBufferAjustLightMode>
    2e1a:	08 c0       	rjmp	.+16     	; 0x2e2c <Scan_Key+0x370>
    2e1c:	0e 94 17 14 	call	0x282e	; 0x282e <FreshDisplayBufferChangeFont>
    2e20:	05 c0       	rjmp	.+10     	; 0x2e2c <Scan_Key+0x370>
    2e22:	0e 94 e4 13 	call	0x27c8	; 0x27c8 <FreshDisplayBufferAjustProofTime>
    2e26:	02 c0       	rjmp	.+4      	; 0x2e2c <Scan_Key+0x370>
    2e28:	0e 94 8d 14 	call	0x291a	; 0x291a <FreshDisplayBufferVoiceMode>
    2e2c:	80 9b       	sbis	0x10, 0	; 16
    2e2e:	fe cf       	rjmp	.-4      	; 0x2e2c <Scan_Key+0x370>
    2e30:	21 96       	adiw	r28, 0x01	; 1
    2e32:	0f b6       	in	r0, 0x3f	; 63
    2e34:	f8 94       	cli
    2e36:	de bf       	out	0x3e, r29	; 62
    2e38:	0f be       	out	0x3f, r0	; 63
    2e3a:	cd bf       	out	0x3d, r28	; 61
    2e3c:	df 91       	pop	r29
    2e3e:	cf 91       	pop	r28
    2e40:	1f 91       	pop	r17
    2e42:	0f 91       	pop	r16
    2e44:	08 95       	ret

00002e46 <main>:
    2e46:	0e 94 ff 12 	call	0x25fe	; 0x25fe <init_devices>
    2e4a:	0e 94 89 08 	call	0x1112	; 0x1112 <ds1820_start>
    2e4e:	86 e0       	ldi	r24, 0x06	; 6
    2e50:	90 e0       	ldi	r25, 0x00	; 0
    2e52:	0e 94 18 08 	call	0x1030	; 0x1030 <_delay_100ms>
    2e56:	0e 94 92 08 	call	0x1124	; 0x1124 <ReadTemputer>
    2e5a:	80 99       	sbic	0x10, 0	; 16
    2e5c:	1c c0       	rjmp	.+56     	; 0x2e96 <main+0x50>
    2e5e:	80 e2       	ldi	r24, 0x20	; 32
    2e60:	9e e4       	ldi	r25, 0x4E	; 78
    2e62:	01 97       	sbiw	r24, 0x01	; 1
    2e64:	f1 f7       	brne	.-4      	; 0x2e62 <main+0x1c>
    2e66:	80 99       	sbic	0x10, 0	; 16
    2e68:	16 c0       	rjmp	.+44     	; 0x2e96 <main+0x50>
    2e6a:	81 e0       	ldi	r24, 0x01	; 1
    2e6c:	80 93 72 00 	sts	0x0072, r24
    2e70:	80 93 73 00 	sts	0x0073, r24
    2e74:	80 93 74 00 	sts	0x0074, r24
    2e78:	10 92 75 00 	sts	0x0075, r1
    2e7c:	10 92 76 00 	sts	0x0076, r1
    2e80:	10 92 77 00 	sts	0x0077, r1
    2e84:	10 92 78 00 	sts	0x0078, r1
    2e88:	10 92 7a 00 	sts	0x007A, r1
    2e8c:	10 92 7b 00 	sts	0x007B, r1
    2e90:	1c be       	out	0x3c, r1	; 60
    2e92:	0e 94 17 09 	call	0x122e	; 0x122e <SaveRunParameter>
    2e96:	0e 94 6b 09 	call	0x12d6	; 0x12d6 <ReadRunParameter>
    2e9a:	0e 94 21 13 	call	0x2642	; 0x2642 <Show_welcome>
    2e9e:	0e 94 db 0e 	call	0x1db6	; 0x1db6 <Updata_time>
    2ea2:	0e 94 62 13 	call	0x26c4	; 0x26c4 <FreshDisplayBufferNormal>
    2ea6:	81 e0       	ldi	r24, 0x01	; 1
    2ea8:	80 93 a0 02 	sts	0x02A0, r24
    2eac:	80 91 75 00 	lds	r24, 0x0075
    2eb0:	88 23       	and	r24, r24
    2eb2:	09 f0       	breq	.+2      	; 0x2eb6 <main+0x70>
    2eb4:	5a c0       	rjmp	.+180    	; 0x2f6a <main+0x124>
    2eb6:	0e 94 db 0e 	call	0x1db6	; 0x1db6 <Updata_time>
    2eba:	40 91 7c 00 	lds	r20, 0x007C
    2ebe:	44 23       	and	r20, r20
    2ec0:	d1 f4       	brne	.+52     	; 0x2ef6 <main+0xb0>
    2ec2:	80 91 6a 00 	lds	r24, 0x006A
    2ec6:	88 23       	and	r24, r24
    2ec8:	e1 f5       	brne	.+120    	; 0x2f42 <main+0xfc>
    2eca:	80 91 6b 00 	lds	r24, 0x006B
    2ece:	88 23       	and	r24, r24
    2ed0:	c1 f5       	brne	.+112    	; 0x2f42 <main+0xfc>
    2ed2:	80 91 6c 00 	lds	r24, 0x006C
    2ed6:	88 23       	and	r24, r24
    2ed8:	a1 f5       	brne	.+104    	; 0x2f42 <main+0xfc>
    2eda:	80 91 6d 00 	lds	r24, 0x006D
    2ede:	8a 30       	cpi	r24, 0x0A	; 10
    2ee0:	80 f5       	brcc	.+96     	; 0x2f42 <main+0xfc>
    2ee2:	80 91 9a 02 	lds	r24, 0x029A
    2ee6:	88 23       	and	r24, r24
    2ee8:	61 f5       	brne	.+88     	; 0x2f42 <main+0xfc>
    2eea:	81 e0       	ldi	r24, 0x01	; 1
    2eec:	80 93 9a 02 	sts	0x029A, r24
    2ef0:	80 93 a0 02 	sts	0x02A0, r24
    2ef4:	26 c0       	rjmp	.+76     	; 0x2f42 <main+0xfc>
    2ef6:	41 30       	cpi	r20, 0x01	; 1
    2ef8:	21 f5       	brne	.+72     	; 0x2f42 <main+0xfc>
    2efa:	80 91 69 00 	lds	r24, 0x0069
    2efe:	87 50       	subi	r24, 0x07	; 7
    2f00:	20 91 68 00 	lds	r18, 0x0068
    2f04:	9a e0       	ldi	r25, 0x0A	; 10
    2f06:	29 9f       	mul	r18, r25
    2f08:	90 01       	movw	r18, r0
    2f0a:	11 24       	eor	r1, r1
    2f0c:	82 0f       	add	r24, r18
    2f0e:	81 31       	cpi	r24, 0x11	; 17
    2f10:	c0 f4       	brcc	.+48     	; 0x2f42 <main+0xfc>
    2f12:	80 91 6a 00 	lds	r24, 0x006A
    2f16:	88 23       	and	r24, r24
    2f18:	a1 f4       	brne	.+40     	; 0x2f42 <main+0xfc>
    2f1a:	80 91 6b 00 	lds	r24, 0x006B
    2f1e:	88 23       	and	r24, r24
    2f20:	81 f4       	brne	.+32     	; 0x2f42 <main+0xfc>
    2f22:	80 91 6c 00 	lds	r24, 0x006C
    2f26:	88 23       	and	r24, r24
    2f28:	61 f4       	brne	.+24     	; 0x2f42 <main+0xfc>
    2f2a:	80 91 6d 00 	lds	r24, 0x006D
    2f2e:	8a 30       	cpi	r24, 0x0A	; 10
    2f30:	40 f4       	brcc	.+16     	; 0x2f42 <main+0xfc>
    2f32:	80 91 9a 02 	lds	r24, 0x029A
    2f36:	88 23       	and	r24, r24
    2f38:	21 f4       	brne	.+8      	; 0x2f42 <main+0xfc>
    2f3a:	40 93 9a 02 	sts	0x029A, r20
    2f3e:	40 93 a0 02 	sts	0x02A0, r20
    2f42:	80 91 9b 02 	lds	r24, 0x029B
    2f46:	90 91 9c 02 	lds	r25, 0x029C
    2f4a:	01 96       	adiw	r24, 0x01	; 1
    2f4c:	90 93 9c 02 	sts	0x029C, r25
    2f50:	80 93 9b 02 	sts	0x029B, r24
    2f54:	81 51       	subi	r24, 0x11	; 17
    2f56:	97 42       	sbci	r25, 0x27	; 39
    2f58:	40 f0       	brcs	.+16     	; 0x2f6a <main+0x124>
    2f5a:	0e 94 85 0f 	call	0x1f0a	; 0x1f0a <AjustTimerMonthly>
    2f5e:	0e 94 62 13 	call	0x26c4	; 0x26c4 <FreshDisplayBufferNormal>
    2f62:	10 92 9c 02 	sts	0x029C, r1
    2f66:	10 92 9b 02 	sts	0x029B, r1
    2f6a:	0e 94 92 0b 	call	0x1724	; 0x1724 <display>
    2f6e:	0e 94 5e 15 	call	0x2abc	; 0x2abc <Scan_Key>
    2f72:	9c cf       	rjmp	.-200    	; 0x2eac <main+0x66>

00002f74 <__vector_4>:
    2f74:	1f 92       	push	r1
    2f76:	0f 92       	push	r0
    2f78:	0f b6       	in	r0, 0x3f	; 63
    2f7a:	0f 92       	push	r0
    2f7c:	11 24       	eor	r1, r1
    2f7e:	2f 93       	push	r18
    2f80:	3f 93       	push	r19
    2f82:	4f 93       	push	r20
    2f84:	5f 93       	push	r21
    2f86:	6f 93       	push	r22
    2f88:	7f 93       	push	r23
    2f8a:	8f 93       	push	r24
    2f8c:	9f 93       	push	r25
    2f8e:	af 93       	push	r26
    2f90:	bf 93       	push	r27
    2f92:	ef 93       	push	r30
    2f94:	ff 93       	push	r31
    2f96:	0e 94 d9 11 	call	0x23b2	; 0x23b2 <PLUSE_Out>
    2f9a:	0e 94 dc 0f 	call	0x1fb8	; 0x1fb8 <SPEEK_Time>
    2f9e:	80 91 75 00 	lds	r24, 0x0075
    2fa2:	88 23       	and	r24, r24
    2fa4:	09 f0       	breq	.+2      	; 0x2fa8 <__vector_4+0x34>
    2fa6:	3f c0       	rjmp	.+126    	; 0x3026 <__vector_4+0xb2>
    2fa8:	80 91 a0 02 	lds	r24, 0x02A0
    2fac:	88 23       	and	r24, r24
    2fae:	d9 f5       	brne	.+118    	; 0x3026 <__vector_4+0xb2>
    2fb0:	80 91 84 02 	lds	r24, 0x0284
    2fb4:	90 91 85 02 	lds	r25, 0x0285
    2fb8:	01 96       	adiw	r24, 0x01	; 1
    2fba:	90 93 85 02 	sts	0x0285, r25
    2fbe:	80 93 84 02 	sts	0x0284, r24
    2fc2:	82 53       	subi	r24, 0x32	; 50
    2fc4:	98 4c       	sbci	r25, 0xC8	; 200
    2fc6:	11 f4       	brne	.+4      	; 0x2fcc <__vector_4+0x58>
    2fc8:	0e 94 89 08 	call	0x1112	; 0x1112 <ds1820_start>
    2fcc:	80 91 84 02 	lds	r24, 0x0284
    2fd0:	90 91 85 02 	lds	r25, 0x0285
    2fd4:	81 56       	subi	r24, 0x61	; 97
    2fd6:	9a 4e       	sbci	r25, 0xEA	; 234
    2fd8:	30 f0       	brcs	.+12     	; 0x2fe6 <__vector_4+0x72>
    2fda:	0e 94 92 08 	call	0x1124	; 0x1124 <ReadTemputer>
    2fde:	10 92 85 02 	sts	0x0285, r1
    2fe2:	10 92 84 02 	sts	0x0284, r1
    2fe6:	80 91 72 00 	lds	r24, 0x0072
    2fea:	88 23       	and	r24, r24
    2fec:	e1 f4       	brne	.+56     	; 0x3026 <__vector_4+0xb2>
    2fee:	80 91 82 02 	lds	r24, 0x0282
    2ff2:	90 91 83 02 	lds	r25, 0x0283
    2ff6:	01 96       	adiw	r24, 0x01	; 1
    2ff8:	90 93 83 02 	sts	0x0283, r25
    2ffc:	80 93 82 02 	sts	0x0282, r24
    3000:	22 e0       	ldi	r18, 0x02	; 2
    3002:	88 35       	cpi	r24, 0x58	; 88
    3004:	92 07       	cpc	r25, r18
    3006:	31 f4       	brne	.+12     	; 0x3014 <__vector_4+0xa0>
    3008:	16 b8       	out	0x06, r1	; 6
    300a:	80 e4       	ldi	r24, 0x40	; 64
    300c:	87 b9       	out	0x07, r24	; 7
    300e:	87 ed       	ldi	r24, 0xD7	; 215
    3010:	86 b9       	out	0x06, r24	; 6
    3012:	09 c0       	rjmp	.+18     	; 0x3026 <__vector_4+0xb2>
    3014:	85 58       	subi	r24, 0x85	; 133
    3016:	93 40       	sbci	r25, 0x03	; 3
    3018:	30 f0       	brcs	.+12     	; 0x3026 <__vector_4+0xb2>
    301a:	0e 94 a6 12 	call	0x254c	; 0x254c <GetDispalyLight>
    301e:	10 92 83 02 	sts	0x0283, r1
    3022:	10 92 82 02 	sts	0x0282, r1
    3026:	80 91 8c 02 	lds	r24, 0x028C
    302a:	90 91 8d 02 	lds	r25, 0x028D
    302e:	01 96       	adiw	r24, 0x01	; 1
    3030:	90 93 8d 02 	sts	0x028D, r25
    3034:	80 93 8c 02 	sts	0x028C, r24
    3038:	80 91 9e 02 	lds	r24, 0x029E
    303c:	90 91 9f 02 	lds	r25, 0x029F
    3040:	01 96       	adiw	r24, 0x01	; 1
    3042:	90 93 9f 02 	sts	0x029F, r25
    3046:	80 93 9e 02 	sts	0x029E, r24
    304a:	83 e8       	ldi	r24, 0x83	; 131
    304c:	84 bd       	out	0x24, r24	; 36
    304e:	ff 91       	pop	r31
    3050:	ef 91       	pop	r30
    3052:	bf 91       	pop	r27
    3054:	af 91       	pop	r26
    3056:	9f 91       	pop	r25
    3058:	8f 91       	pop	r24
    305a:	7f 91       	pop	r23
    305c:	6f 91       	pop	r22
    305e:	5f 91       	pop	r21
    3060:	4f 91       	pop	r20
    3062:	3f 91       	pop	r19
    3064:	2f 91       	pop	r18
    3066:	0f 90       	pop	r0
    3068:	0f be       	out	0x3f, r0	; 63
    306a:	0f 90       	pop	r0
    306c:	1f 90       	pop	r1
    306e:	18 95       	reti

00003070 <memset>:
    3070:	dc 01       	movw	r26, r24
    3072:	01 c0       	rjmp	.+2      	; 0x3076 <memset+0x6>
    3074:	6d 93       	st	X+, r22
    3076:	41 50       	subi	r20, 0x01	; 1
    3078:	50 40       	sbci	r21, 0x00	; 0
    307a:	e0 f7       	brcc	.-8      	; 0x3074 <memset+0x4>
    307c:	08 95       	ret

0000307e <__udivmodqi4>:
    307e:	99 1b       	sub	r25, r25
    3080:	79 e0       	ldi	r23, 0x09	; 9
    3082:	04 c0       	rjmp	.+8      	; 0x308c <__udivmodqi4_ep>

00003084 <__udivmodqi4_loop>:
    3084:	99 1f       	adc	r25, r25
    3086:	96 17       	cp	r25, r22
    3088:	08 f0       	brcs	.+2      	; 0x308c <__udivmodqi4_ep>
    308a:	96 1b       	sub	r25, r22

0000308c <__udivmodqi4_ep>:
    308c:	88 1f       	adc	r24, r24
    308e:	7a 95       	dec	r23
    3090:	c9 f7       	brne	.-14     	; 0x3084 <__udivmodqi4_loop>
    3092:	80 95       	com	r24
    3094:	08 95       	ret

00003096 <__udivmodhi4>:
    3096:	aa 1b       	sub	r26, r26
    3098:	bb 1b       	sub	r27, r27
    309a:	51 e1       	ldi	r21, 0x11	; 17
    309c:	07 c0       	rjmp	.+14     	; 0x30ac <__udivmodhi4_ep>

0000309e <__udivmodhi4_loop>:
    309e:	aa 1f       	adc	r26, r26
    30a0:	bb 1f       	adc	r27, r27
    30a2:	a6 17       	cp	r26, r22
    30a4:	b7 07       	cpc	r27, r23
    30a6:	10 f0       	brcs	.+4      	; 0x30ac <__udivmodhi4_ep>
    30a8:	a6 1b       	sub	r26, r22
    30aa:	b7 0b       	sbc	r27, r23

000030ac <__udivmodhi4_ep>:
    30ac:	88 1f       	adc	r24, r24
    30ae:	99 1f       	adc	r25, r25
    30b0:	5a 95       	dec	r21
    30b2:	a9 f7       	brne	.-22     	; 0x309e <__udivmodhi4_loop>
    30b4:	80 95       	com	r24
    30b6:	90 95       	com	r25
    30b8:	bc 01       	movw	r22, r24
    30ba:	cd 01       	movw	r24, r26
    30bc:	08 95       	ret

000030be <__eeprom_read_byte_1C1D1E>:
    30be:	e1 99       	sbic	0x1c, 1	; 28
    30c0:	fe cf       	rjmp	.-4      	; 0x30be <__eeprom_read_byte_1C1D1E>
    30c2:	bf bb       	out	0x1f, r27	; 31
    30c4:	ae bb       	out	0x1e, r26	; 30
    30c6:	e0 9a       	sbi	0x1c, 0	; 28
    30c8:	11 96       	adiw	r26, 0x01	; 1
    30ca:	0d b2       	in	r0, 0x1d	; 29
    30cc:	08 95       	ret

000030ce <__eeprom_write_byte_1C1D1E>:
    30ce:	e1 99       	sbic	0x1c, 1	; 28
    30d0:	fe cf       	rjmp	.-4      	; 0x30ce <__eeprom_write_byte_1C1D1E>
    30d2:	bf bb       	out	0x1f, r27	; 31
    30d4:	ae bb       	out	0x1e, r26	; 30
    30d6:	0d ba       	out	0x1d, r0	; 29
    30d8:	11 96       	adiw	r26, 0x01	; 1
    30da:	0f b6       	in	r0, 0x3f	; 63
    30dc:	f8 94       	cli
    30de:	e2 9a       	sbi	0x1c, 2	; 28
    30e0:	e1 9a       	sbi	0x1c, 1	; 28
    30e2:	0f be       	out	0x3f, r0	; 63
    30e4:	08 95       	ret

000030e6 <_exit>:
    30e6:	ff cf       	rjmp	.-2      	; 0x30e6 <_exit>
