   1               		.file	"LED3264.c"
   2               	__SREG__ = 0x3f
   3               	__SP_H__ = 0x3e
   4               	__SP_L__ = 0x3d
   5               	__CCP__  = 0x34
   6               	__tmp_reg__ = 0
   7               	__zero_reg__ = 1
  15               	.Ltext0:
  16               	.global	s_10us
  18               	s_10us:
  19               	.LFB14:
  20               	.LM1:
  21               	.LVL0:
  22               	/* prologue: function */
  23               	/* frame size = 0 */
  24               	/* epilogue start */
  25               	.LM2:
  26 0000 0895      		ret
  27               	.LFE14:
  29               	.global	_delay_100ms
  31               	_delay_100ms:
  32               	.LFB15:
  33               	.LM3:
  34               	.LVL1:
  35               	/* prologue: function */
  36               	/* frame size = 0 */
  37               	/* epilogue start */
  38               	.LM4:
  39 0002 0895      		ret
  40               	.LFE15:
  42               	.global	ds1820_reset
  44               	ds1820_reset:
  45               	.LFB16:
  46               	.LM5:
  47               	/* prologue: function */
  48               	/* frame size = 0 */
  49               	.LM6:
  50 0004 8FB7      		in r24,__SREG__
  51 0006 8093 0000 		sts init_f,r24
  52               	.LM7:
  53               	/* #APP */
  54               	 ;  43 "_DS18B20.h" 1
  55 000a F894      		cli
  56               	 ;  0 "" 2
  57               	.LM8:
  58               	/* #NOAPP */
  59 000c 8F9A      		sbi 49-32,7
  60               	.LM9:
  61 000e 9798      		cbi 50-32,7
  62               	.LM10:
  63 0010 979A      		sbi 50-32,7
  64               	.LM11:
  65 0012 8F98      		cbi 49-32,7
  66               	.LM12:
  67 0014 90B3      		in r25,48-32
  68               	.LM13:
  69 0016 87FF      		sbrs r24,7
  70 0018 00C0      		rjmp .L7
  71               	.LM14:
  72               	/* #APP */
  73               	 ;  54 "_DS18B20.h" 1
  74 001a 7894      		sei
  75               	 ;  0 "" 2
  76               	/* #NOAPP */
  77               	.L7:
  78 001c 0895      		ret
  79               	.LFE16:
  81               	.global	ds1820_read_byte
  83               	ds1820_read_byte:
  84               	.LFB17:
  85               	.LM15:
  86               	/* prologue: function */
  87               	/* frame size = 0 */
  88               	.LM16:
  89 001e 2FB7      		in r18,__SREG__
  90 0020 2093 0000 		sts init_f,r18
  91               	.LM17:
  92               	/* #APP */
  93               	 ;  66 "_DS18B20.h" 1
  94 0024 F894      		cli
  95               	 ;  0 "" 2
  96               	/* #NOAPP */
  97 0026 98E0      		ldi r25,lo8(8)
  98               	.LVL2:
  99 0028 80E0      		ldi r24,lo8(0)
 100               	.LVL3:
 101               	.L10:
 102               	.LM18:
 103 002a 8695      		lsr r24
 104               	.LM19:
 105 002c 8F9A      		sbi 49-32,7
 106               	.LM20:
 107 002e 9798      		cbi 50-32,7
 108               	.LM21:
 109 0030 979A      		sbi 50-32,7
 110               	.LM22:
 111 0032 8F98      		cbi 49-32,7
 112               	.LM23:
 113 0034 8799      		sbic 48-32,7
 114               	.LM24:
 115 0036 8068      		ori r24,lo8(-128)
 116               	.L9:
 117               	.LM25:
 118 0038 9150      		subi r25,lo8(-(-1))
 119 003a 01F4      		brne .L10
 120               	.LM26:
 121 003c 27FF      		sbrs r18,7
 122 003e 00C0      		rjmp .L11
 123               	.LM27:
 124               	/* #APP */
 125               	 ;  84 "_DS18B20.h" 1
 126 0040 7894      		sei
 127               	 ;  0 "" 2
 128               	/* #NOAPP */
 129               	.L11:
 130               	.LVL4:
 131               	.LM28:
 132 0042 0895      		ret
 133               	.LFE17:
 135               	.global	ds1820_write_byte
 137               	ds1820_write_byte:
 138               	.LFB18:
 139               	.LM29:
 140               	.LVL5:
 141               	/* prologue: function */
 142               	/* frame size = 0 */
 143               	.LM30:
 144 0044 2FB7      		in r18,__SREG__
 145 0046 2093 0000 		sts init_f,r18
 146               	.LM31:
 147               	/* #APP */
 148               	 ;  96 "_DS18B20.h" 1
 149 004a F894      		cli
 150               	 ;  0 "" 2
 151               	/* #NOAPP */
 152 004c 98E0      		ldi r25,lo8(8)
 153               	.LVL6:
 154               	.L17:
 155               	.LM32:
 156 004e 8F9A      		sbi 49-32,7
 157               	.LM33:
 158 0050 9798      		cbi 50-32,7
 159               	.LM34:
 160 0052 80FD      		sbrc r24,0
 161               	.LM35:
 162 0054 979A      		sbi 50-32,7
 163               	.L15:
 164               	.LM36:
 165 0056 979A      		sbi 50-32,7
 166               	.LM37:
 167 0058 9150      		subi r25,lo8(-(-1))
 168 005a 01F0      		breq .L16
 169               	.LM38:
 170 005c 8695      		lsr r24
 171               	.LVL7:
 172 005e 00C0      		rjmp .L17
 173               	.L16:
 174               	.LM39:
 175 0060 27FF      		sbrs r18,7
 176 0062 00C0      		rjmp .L19
 177               	.LM40:
 178               	/* #APP */
 179               	 ;  112 "_DS18B20.h" 1
 180 0064 7894      		sei
 181               	 ;  0 "" 2
 182               	/* #NOAPP */
 183               	.L19:
 184 0066 0895      		ret
 185               	.LFE18:
 187               	.global	ds1820_start
 189               	ds1820_start:
 190               	.LFB19:
 191               	.LM41:
 192               	/* prologue: function */
 193               	/* frame size = 0 */
 194               	.LM42:
 195 0068 0E94 0000 		call ds1820_reset
 196               	.LM43:
 197 006c 8CEC      		ldi r24,lo8(-52)
 198 006e 0E94 0000 		call ds1820_write_byte
 199               	.LM44:
 200 0072 84E4      		ldi r24,lo8(68)
 201 0074 0E94 0000 		call ds1820_write_byte
 202               	/* epilogue start */
 203               	.LM45:
 204 0078 0895      		ret
 205               	.LFE19:
 207               	.global	ReadTemputer
 209               	ReadTemputer:
 210               	.LFB20:
 211               	.LM46:
 212 007a 1F93      		push r17
 213               	/* prologue: function */
 214               	/* frame size = 0 */
 215               	.LM47:
 216 007c 0E94 0000 		call ds1820_reset
 217               	.LM48:
 218 0080 8CEC      		ldi r24,lo8(-52)
 219 0082 0E94 0000 		call ds1820_write_byte
 220               	.LM49:
 221 0086 8EEB      		ldi r24,lo8(-66)
 222 0088 0E94 0000 		call ds1820_write_byte
 223               	.LM50:
 224 008c 0E94 0000 		call ds1820_read_byte
 225 0090 182F      		mov r17,r24
 226 0092 0E94 0000 		call ds1820_read_byte
 227               	.LM51:
 228 0096 382F      		mov r19,r24
 229               	.LVL8:
 230 0098 20E0      		ldi r18,lo8(0)
 231               	.LVL9:
 232               	.LM52:
 233 009a E12F      		mov r30,r17
 234               	.LVL10:
 235 009c F0E0      		ldi r31,lo8(0)
 236               	.LVL11:
 237 009e E22B      		or r30,r18
 238 00a0 F32B      		or r31,r19
 239               	.LVL12:
 240               	.LM53:
 241 00a2 CF01      		movw r24,r30
 242 00a4 8070      		andi r24,lo8(-4096)
 243 00a6 907F      		andi r25,hi8(-4096)
 244 00a8 8050      		subi r24,lo8(-4096)
 245 00aa 904F      		sbci r25,hi8(-4096)
 246 00ac 01F0      		breq .L23
 247 00ae 40E0      		ldi r20,lo8(0)
 248               	.LVL13:
 249 00b0 00C0      		rjmp .L24
 250               	.LVL14:
 251               	.L23:
 252               	.LM54:
 253 00b2 F095      		com r31
 254 00b4 E195      		neg r30
 255 00b6 FF4F      		sbci r31,lo8(-1)
 256 00b8 41E0      		ldi r20,lo8(1)
 257               	.LVL15:
 258               	.L24:
 259               	.LM55:
 260 00ba CF01      		movw r24,r30
 261 00bc 880F      		lsl r24
 262 00be 991F      		rol r25
 263 00c0 9F01      		movw r18,r30
 264 00c2 53E0      		ldi r21,3
 265 00c4 220F      	1:	lsl r18
 266 00c6 331F      		rol r19
 267 00c8 5A95      		dec r21
 268 00ca 01F4      		brne 1b
 269 00cc 820F      		add r24,r18
 270 00ce 931F      		adc r25,r19
 271               	.LM56:
 272 00d0 24E0      		ldi r18,4
 273 00d2 9695      	1:	lsr r25
 274 00d4 8795      		ror r24
 275 00d6 2A95      		dec r18
 276 00d8 01F4      		brne 1b
 277 00da 68EE      		ldi r22,lo8(1000)
 278 00dc 73E0      		ldi r23,hi8(1000)
 279 00de 0E94 0000 		call __udivmodhi4
 280 00e2 9C01      		movw r18,r24
 281               	.LM57:
 282 00e4 4130      		cpi r20,lo8(1)
 283 00e6 01F4      		brne .L25
 284               	.LM58:
 285 00e8 8EE0      		ldi r24,lo8(14)
 286 00ea 8093 0000 		sts RunParameter+15,r24
 287 00ee 00C0      		rjmp .L26
 288               	.L25:
 289               	.LM59:
 290 00f0 64E6      		ldi r22,lo8(100)
 291 00f2 70E0      		ldi r23,hi8(100)
 292 00f4 0E94 0000 		call __udivmodhi4
 293 00f8 6093 0000 		sts RunParameter+15,r22
 294               	.L26:
 295               	.LM60:
 296 00fc C901      		movw r24,r18
 297 00fe 64E6      		ldi r22,lo8(100)
 298 0100 70E0      		ldi r23,hi8(100)
 299 0102 0E94 0000 		call __udivmodhi4
 300 0106 6AE0      		ldi r22,lo8(10)
 301 0108 70E0      		ldi r23,hi8(10)
 302 010a 0E94 0000 		call __udivmodhi4
 303 010e 6093 0000 		sts RunParameter+16,r22
 304               	.LM61:
 305 0112 EF70      		andi r30,lo8(15)
 306 0114 F070      		andi r31,hi8(15)
 307               	.LM62:
 308 0116 81E7      		ldi r24,lo8(625)
 309 0118 92E0      		ldi r25,hi8(625)
 310 011a 9C01      		movw r18,r24
 311 011c E29F      		mul r30,r18
 312 011e C001      		movw r24,r0
 313 0120 E39F      		mul r30,r19
 314 0122 900D      		add r25,r0
 315 0124 F29F      		mul r31,r18
 316 0126 900D      		add r25,r0
 317 0128 1124      		clr r1
 318 012a 68EE      		ldi r22,lo8(1000)
 319 012c 73E0      		ldi r23,hi8(1000)
 320 012e 0E94 0000 		call __udivmodhi4
 321 0132 6093 0000 		sts RunParameter+17,r22
 322               	/* epilogue start */
 323               	.LM63:
 324 0136 1F91      		pop r17
 325 0138 0895      		ret
 326               	.LFE20:
 328               	.global	SaveRunParameter
 330               	SaveRunParameter:
 331               	.LFB21:
 332               	.LM64:
 333               	/* prologue: function */
 334               	/* frame size = 0 */
 335               	.LM65:
 336               	/* #APP */
 337               	 ;  14 "_EEPROM.h" 1
 338 013a F894      		cli
 339               	 ;  0 "" 2
 340               	.LM66:
 341               	/* #NOAPP */
 342 013c E199      		sbic 60-32,1
 343 013e 00C0      		rjmp .L29
 344               	.L42:
 345               	.LBB238:
 346               	.LBB239:
 347               	.LM67:
 348 0140 E199      		sbic 60-32,1
 349 0142 00C0      		rjmp .L42
 350               	.LM68:
 351 0144 1FBA      		out (62)+1-32,__zero_reg__
 352 0146 1EBA      		out 62-32,__zero_reg__
 353               	.LM69:
 354 0148 8CEC      		ldi r24,lo8(-52)
 355 014a 8DBB      		out 61-32,r24
 356               	.LM70:
 357               	/* #APP */
 358               	 ;  315 "c:/winavr-20090313/lib/gcc/../../avr/include/avr/eeprom.h" 1
 359               		/* START EEPROM WRITE CRITICAL SECTION */
 360 014c 0FB6      		in	r0, 63		
 361 014e F894      		cli				
 362 0150 E29A      		sbi	28, 2	
 363 0152 E19A      		sbi	28, 1	
 364 0154 0FBE      		out	63, r0		
 365               		/* END EEPROM WRITE CRITICAL SECTION */
 366               	 ;  0 "" 2
 367               	/* #NOAPP */
 368               	.LBE239:
 369               	.LBE238:
 370               	.LM71:
 371 0156 2091 0000 		lds r18,RunParameter+18
 372               	.L31:
 373               	.LBB240:
 374               	.LBB241:
 375               	.LM72:
 376 015a E199      		sbic 60-32,1
 377 015c 00C0      		rjmp .L31
 378               	.LM73:
 379 015e 81E0      		ldi r24,lo8(1)
 380 0160 90E0      		ldi r25,hi8(1)
 381 0162 9FBB      		out (62)+1-32,r25
 382 0164 8EBB      		out 62-32,r24
 383               	.LM74:
 384 0166 2DBB      		out 61-32,r18
 385               	.LM75:
 386               	/* #APP */
 387               	 ;  315 "c:/winavr-20090313/lib/gcc/../../avr/include/avr/eeprom.h" 1
 388               		/* START EEPROM WRITE CRITICAL SECTION */
 389 0168 0FB6      		in	r0, 63		
 390 016a F894      		cli				
 391 016c E29A      		sbi	28, 2	
 392 016e E19A      		sbi	28, 1	
 393 0170 0FBE      		out	63, r0		
 394               		/* END EEPROM WRITE CRITICAL SECTION */
 395               	 ;  0 "" 2
 396               	/* #NOAPP */
 397               	.LBE241:
 398               	.LBE240:
 399               	.LM76:
 400 0172 2091 0000 		lds r18,RunParameter+19
 401               	.L32:
 402               	.LBB242:
 403               	.LBB243:
 404               	.LM77:
 405 0176 E199      		sbic 60-32,1
 406 0178 00C0      		rjmp .L32
 407               	.LM78:
 408 017a 82E0      		ldi r24,lo8(2)
 409 017c 90E0      		ldi r25,hi8(2)
 410 017e 9FBB      		out (62)+1-32,r25
 411 0180 8EBB      		out 62-32,r24
 412               	.LM79:
 413 0182 2DBB      		out 61-32,r18
 414               	.LM80:
 415               	/* #APP */
 416               	 ;  315 "c:/winavr-20090313/lib/gcc/../../avr/include/avr/eeprom.h" 1
 417               		/* START EEPROM WRITE CRITICAL SECTION */
 418 0184 0FB6      		in	r0, 63		
 419 0186 F894      		cli				
 420 0188 E29A      		sbi	28, 2	
 421 018a E19A      		sbi	28, 1	
 422 018c 0FBE      		out	63, r0		
 423               		/* END EEPROM WRITE CRITICAL SECTION */
 424               	 ;  0 "" 2
 425               	/* #NOAPP */
 426               	.LBE243:
 427               	.LBE242:
 428               	.LM81:
 429 018e 2091 0000 		lds r18,RunParameter+20
 430               	.L33:
 431               	.LBB244:
 432               	.LBB245:
 433               	.LM82:
 434 0192 E199      		sbic 60-32,1
 435 0194 00C0      		rjmp .L33
 436               	.LM83:
 437 0196 83E0      		ldi r24,lo8(3)
 438 0198 90E0      		ldi r25,hi8(3)
 439 019a 9FBB      		out (62)+1-32,r25
 440 019c 8EBB      		out 62-32,r24
 441               	.LM84:
 442 019e 2DBB      		out 61-32,r18
 443               	.LM85:
 444               	/* #APP */
 445               	 ;  315 "c:/winavr-20090313/lib/gcc/../../avr/include/avr/eeprom.h" 1
 446               		/* START EEPROM WRITE CRITICAL SECTION */
 447 01a0 0FB6      		in	r0, 63		
 448 01a2 F894      		cli				
 449 01a4 E29A      		sbi	28, 2	
 450 01a6 E19A      		sbi	28, 1	
 451 01a8 0FBE      		out	63, r0		
 452               		/* END EEPROM WRITE CRITICAL SECTION */
 453               	 ;  0 "" 2
 454               	/* #NOAPP */
 455               	.LBE245:
 456               	.LBE244:
 457               	.LM86:
 458 01aa 2091 0000 		lds r18,RunParameter+21
 459               	.L34:
 460               	.LBB246:
 461               	.LBB247:
 462               	.LM87:
 463 01ae E199      		sbic 60-32,1
 464 01b0 00C0      		rjmp .L34
 465               	.LM88:
 466 01b2 84E0      		ldi r24,lo8(4)
 467 01b4 90E0      		ldi r25,hi8(4)
 468 01b6 9FBB      		out (62)+1-32,r25
 469 01b8 8EBB      		out 62-32,r24
 470               	.LM89:
 471 01ba 2DBB      		out 61-32,r18
 472               	.LM90:
 473               	/* #APP */
 474               	 ;  315 "c:/winavr-20090313/lib/gcc/../../avr/include/avr/eeprom.h" 1
 475               		/* START EEPROM WRITE CRITICAL SECTION */
 476 01bc 0FB6      		in	r0, 63		
 477 01be F894      		cli				
 478 01c0 E29A      		sbi	28, 2	
 479 01c2 E19A      		sbi	28, 1	
 480 01c4 0FBE      		out	63, r0		
 481               		/* END EEPROM WRITE CRITICAL SECTION */
 482               	 ;  0 "" 2
 483               	/* #NOAPP */
 484               	.LBE247:
 485               	.LBE246:
 486               	.LM91:
 487 01c6 2091 0000 		lds r18,RunParameter+22
 488               	.L35:
 489               	.LBB248:
 490               	.LBB249:
 491               	.LM92:
 492 01ca E199      		sbic 60-32,1
 493 01cc 00C0      		rjmp .L35
 494               	.LM93:
 495 01ce 85E0      		ldi r24,lo8(5)
 496 01d0 90E0      		ldi r25,hi8(5)
 497 01d2 9FBB      		out (62)+1-32,r25
 498 01d4 8EBB      		out 62-32,r24
 499               	.LM94:
 500 01d6 2DBB      		out 61-32,r18
 501               	.LM95:
 502               	/* #APP */
 503               	 ;  315 "c:/winavr-20090313/lib/gcc/../../avr/include/avr/eeprom.h" 1
 504               		/* START EEPROM WRITE CRITICAL SECTION */
 505 01d8 0FB6      		in	r0, 63		
 506 01da F894      		cli				
 507 01dc E29A      		sbi	28, 2	
 508 01de E19A      		sbi	28, 1	
 509 01e0 0FBE      		out	63, r0		
 510               		/* END EEPROM WRITE CRITICAL SECTION */
 511               	 ;  0 "" 2
 512               	/* #NOAPP */
 513               	.LBE249:
 514               	.LBE248:
 515               	.LM96:
 516 01e2 2091 0000 		lds r18,RunParameter+23
 517               	.L36:
 518               	.LBB250:
 519               	.LBB251:
 520               	.LM97:
 521 01e6 E199      		sbic 60-32,1
 522 01e8 00C0      		rjmp .L36
 523               	.LM98:
 524 01ea 86E0      		ldi r24,lo8(6)
 525 01ec 90E0      		ldi r25,hi8(6)
 526 01ee 9FBB      		out (62)+1-32,r25
 527 01f0 8EBB      		out 62-32,r24
 528               	.LM99:
 529 01f2 2DBB      		out 61-32,r18
 530               	.LM100:
 531               	/* #APP */
 532               	 ;  315 "c:/winavr-20090313/lib/gcc/../../avr/include/avr/eeprom.h" 1
 533               		/* START EEPROM WRITE CRITICAL SECTION */
 534 01f4 0FB6      		in	r0, 63		
 535 01f6 F894      		cli				
 536 01f8 E29A      		sbi	28, 2	
 537 01fa E19A      		sbi	28, 1	
 538 01fc 0FBE      		out	63, r0		
 539               		/* END EEPROM WRITE CRITICAL SECTION */
 540               	 ;  0 "" 2
 541               	/* #NOAPP */
 542               	.LBE251:
 543               	.LBE250:
 544               	.LM101:
 545 01fe 2091 0000 		lds r18,RunParameter+24
 546               	.L37:
 547               	.LBB252:
 548               	.LBB253:
 549               	.LM102:
 550 0202 E199      		sbic 60-32,1
 551 0204 00C0      		rjmp .L37
 552               	.LM103:
 553 0206 87E0      		ldi r24,lo8(7)
 554 0208 90E0      		ldi r25,hi8(7)
 555 020a 9FBB      		out (62)+1-32,r25
 556 020c 8EBB      		out 62-32,r24
 557               	.LM104:
 558 020e 2DBB      		out 61-32,r18
 559               	.LM105:
 560               	/* #APP */
 561               	 ;  315 "c:/winavr-20090313/lib/gcc/../../avr/include/avr/eeprom.h" 1
 562               		/* START EEPROM WRITE CRITICAL SECTION */
 563 0210 0FB6      		in	r0, 63		
 564 0212 F894      		cli				
 565 0214 E29A      		sbi	28, 2	
 566 0216 E19A      		sbi	28, 1	
 567 0218 0FBE      		out	63, r0		
 568               		/* END EEPROM WRITE CRITICAL SECTION */
 569               	 ;  0 "" 2
 570               	/* #NOAPP */
 571               	.LBE253:
 572               	.LBE252:
 573               	.LM106:
 574 021a 2091 0000 		lds r18,RunParameter+26
 575               	.L38:
 576               	.LBB254:
 577               	.LBB255:
 578               	.LM107:
 579 021e E199      		sbic 60-32,1
 580 0220 00C0      		rjmp .L38
 581               	.LM108:
 582 0222 88E0      		ldi r24,lo8(8)
 583 0224 90E0      		ldi r25,hi8(8)
 584 0226 9FBB      		out (62)+1-32,r25
 585 0228 8EBB      		out 62-32,r24
 586               	.LM109:
 587 022a 2DBB      		out 61-32,r18
 588               	.LM110:
 589               	/* #APP */
 590               	 ;  315 "c:/winavr-20090313/lib/gcc/../../avr/include/avr/eeprom.h" 1
 591               		/* START EEPROM WRITE CRITICAL SECTION */
 592 022c 0FB6      		in	r0, 63		
 593 022e F894      		cli				
 594 0230 E29A      		sbi	28, 2	
 595 0232 E19A      		sbi	28, 1	
 596 0234 0FBE      		out	63, r0		
 597               		/* END EEPROM WRITE CRITICAL SECTION */
 598               	 ;  0 "" 2
 599               	/* #NOAPP */
 600               	.LBE255:
 601               	.LBE254:
 602               	.LM111:
 603 0236 2091 0000 		lds r18,RunParameter+27
 604               	.L39:
 605               	.LBB256:
 606               	.LBB257:
 607               	.LM112:
 608 023a E199      		sbic 60-32,1
 609 023c 00C0      		rjmp .L39
 610               	.LM113:
 611 023e 89E0      		ldi r24,lo8(9)
 612 0240 90E0      		ldi r25,hi8(9)
 613 0242 9FBB      		out (62)+1-32,r25
 614 0244 8EBB      		out 62-32,r24
 615               	.LM114:
 616 0246 2DBB      		out 61-32,r18
 617               	.LM115:
 618               	/* #APP */
 619               	 ;  315 "c:/winavr-20090313/lib/gcc/../../avr/include/avr/eeprom.h" 1
 620               		/* START EEPROM WRITE CRITICAL SECTION */
 621 0248 0FB6      		in	r0, 63		
 622 024a F894      		cli				
 623 024c E29A      		sbi	28, 2	
 624 024e E19A      		sbi	28, 1	
 625 0250 0FBE      		out	63, r0		
 626               		/* END EEPROM WRITE CRITICAL SECTION */
 627               	 ;  0 "" 2
 628               	/* #NOAPP */
 629               	.LBE257:
 630               	.LBE256:
 631               	.LM116:
 632 0252 2091 0000 		lds r18,RunParameter+28
 633               	.L40:
 634               	.LBB258:
 635               	.LBB259:
 636               	.LM117:
 637 0256 E199      		sbic 60-32,1
 638 0258 00C0      		rjmp .L40
 639               	.LM118:
 640 025a 80E1      		ldi r24,lo8(16)
 641 025c 90E0      		ldi r25,hi8(16)
 642 025e 9FBB      		out (62)+1-32,r25
 643 0260 8EBB      		out 62-32,r24
 644               	.LM119:
 645 0262 2DBB      		out 61-32,r18
 646               	.LM120:
 647               	/* #APP */
 648               	 ;  315 "c:/winavr-20090313/lib/gcc/../../avr/include/avr/eeprom.h" 1
 649               		/* START EEPROM WRITE CRITICAL SECTION */
 650 0264 0FB6      		in	r0, 63		
 651 0266 F894      		cli				
 652 0268 E29A      		sbi	28, 2	
 653 026a E19A      		sbi	28, 1	
 654 026c 0FBE      		out	63, r0		
 655               		/* END EEPROM WRITE CRITICAL SECTION */
 656               	 ;  0 "" 2
 657               	/* #NOAPP */
 658               	.L29:
 659               	.LBE259:
 660               	.LBE258:
 661               	.LM121:
 662               	/* #APP */
 663               	 ;  29 "_EEPROM.h" 1
 664 026e 7894      		sei
 665               	 ;  0 "" 2
 666               	/* epilogue start */
 667               	.LM122:
 668               	/* #NOAPP */
 669 0270 0895      		ret
 670               	.LFE21:
 672               	.global	ReadRunParameter
 674               	ReadRunParameter:
 675               	.LFB22:
 676               	.LM123:
 677               	/* prologue: function */
 678               	/* frame size = 0 */
 679               	.LM124:
 680               	/* #APP */
 681               	 ;  34 "_EEPROM.h" 1
 682 0272 F894      		cli
 683               	 ;  0 "" 2
 684               	.LM125:
 685               	/* #NOAPP */
 686 0274 E199      		sbic 60-32,1
 687 0276 00C0      		rjmp .L55
 688               	.L69:
 689               	.LBB260:
 690               	.LBB261:
 691               	.LM126:
 692 0278 E199      		sbic 60-32,1
 693 027a 00C0      		rjmp .L69
 694               	.LM127:
 695 027c 1FBA      		out (62)+1-32,__zero_reg__
 696 027e 1EBA      		out 62-32,__zero_reg__
 697               	.LM128:
 698               	/* #APP */
 699               	 ;  208 "c:/winavr-20090313/lib/gcc/../../avr/include/avr/eeprom.h" 1
 700               		/* START EEPROM READ CRITICAL SECTION */ 
 701 0280 E09A      		sbi 28, 0 
 702 0282 8DB3      		in r24, 29 
 703               		/* END EEPROM READ CRITICAL SECTION */ 
 704               		
 705               	 ;  0 "" 2
 706               	.LVL16:
 707               	/* #NOAPP */
 708               	.LBE261:
 709               	.LBE260:
 710               	.LM129:
 711 0284 8C3C      		cpi r24,lo8(-52)
 712 0286 01F0      		breq .+2
 713 0288 00C0      		rjmp .L57
 714               	.L68:
 715               	.LBB262:
 716               	.LBB263:
 717               	.LM130:
 718 028a E199      		sbic 60-32,1
 719 028c 00C0      		rjmp .L68
 720               	.LM131:
 721 028e 81E0      		ldi r24,lo8(1)
 722 0290 90E0      		ldi r25,hi8(1)
 723               	.LVL17:
 724 0292 9FBB      		out (62)+1-32,r25
 725 0294 8EBB      		out 62-32,r24
 726               	.LM132:
 727               	/* #APP */
 728               	 ;  208 "c:/winavr-20090313/lib/gcc/../../avr/include/avr/eeprom.h" 1
 729               		/* START EEPROM READ CRITICAL SECTION */ 
 730 0296 E09A      		sbi 28, 0 
 731 0298 8DB3      		in r24, 29 
 732               		/* END EEPROM READ CRITICAL SECTION */ 
 733               		
 734               	 ;  0 "" 2
 735               	.LVL18:
 736               	/* #NOAPP */
 737               	.LBE263:
 738               	.LBE262:
 739               	.LM133:
 740 029a 8093 0000 		sts RunParameter+18,r24
 741               	.L59:
 742               	.LBB264:
 743               	.LBB265:
 744               	.LM134:
 745 029e E199      		sbic 60-32,1
 746 02a0 00C0      		rjmp .L59
 747               	.LM135:
 748 02a2 82E0      		ldi r24,lo8(2)
 749 02a4 90E0      		ldi r25,hi8(2)
 750               	.LVL19:
 751 02a6 9FBB      		out (62)+1-32,r25
 752 02a8 8EBB      		out 62-32,r24
 753               	.LM136:
 754               	/* #APP */
 755               	 ;  208 "c:/winavr-20090313/lib/gcc/../../avr/include/avr/eeprom.h" 1
 756               		/* START EEPROM READ CRITICAL SECTION */ 
 757 02aa E09A      		sbi 28, 0 
 758 02ac 8DB3      		in r24, 29 
 759               		/* END EEPROM READ CRITICAL SECTION */ 
 760               		
 761               	 ;  0 "" 2
 762               	.LVL20:
 763               	/* #NOAPP */
 764               	.LBE265:
 765               	.LBE264:
 766               	.LM137:
 767 02ae 8093 0000 		sts RunParameter+19,r24
 768               	.L60:
 769               	.LBB266:
 770               	.LBB267:
 771               	.LM138:
 772 02b2 E199      		sbic 60-32,1
 773 02b4 00C0      		rjmp .L60
 774               	.LM139:
 775 02b6 83E0      		ldi r24,lo8(3)
 776 02b8 90E0      		ldi r25,hi8(3)
 777               	.LVL21:
 778 02ba 9FBB      		out (62)+1-32,r25
 779 02bc 8EBB      		out 62-32,r24
 780               	.LM140:
 781               	/* #APP */
 782               	 ;  208 "c:/winavr-20090313/lib/gcc/../../avr/include/avr/eeprom.h" 1
 783               		/* START EEPROM READ CRITICAL SECTION */ 
 784 02be E09A      		sbi 28, 0 
 785 02c0 8DB3      		in r24, 29 
 786               		/* END EEPROM READ CRITICAL SECTION */ 
 787               		
 788               	 ;  0 "" 2
 789               	.LVL22:
 790               	/* #NOAPP */
 791               	.LBE267:
 792               	.LBE266:
 793               	.LM141:
 794 02c2 8093 0000 		sts RunParameter+20,r24
 795               	.L61:
 796               	.LBB268:
 797               	.LBB269:
 798               	.LM142:
 799 02c6 E199      		sbic 60-32,1
 800 02c8 00C0      		rjmp .L61
 801               	.LM143:
 802 02ca 85E0      		ldi r24,lo8(5)
 803 02cc 90E0      		ldi r25,hi8(5)
 804               	.LVL23:
 805 02ce 9FBB      		out (62)+1-32,r25
 806 02d0 8EBB      		out 62-32,r24
 807               	.LM144:
 808               	/* #APP */
 809               	 ;  208 "c:/winavr-20090313/lib/gcc/../../avr/include/avr/eeprom.h" 1
 810               		/* START EEPROM READ CRITICAL SECTION */ 
 811 02d2 E09A      		sbi 28, 0 
 812 02d4 8DB3      		in r24, 29 
 813               		/* END EEPROM READ CRITICAL SECTION */ 
 814               		
 815               	 ;  0 "" 2
 816               	.LVL24:
 817               	/* #NOAPP */
 818               	.LBE269:
 819               	.LBE268:
 820               	.LM145:
 821 02d6 8093 0000 		sts RunParameter+22,r24
 822               	.L62:
 823               	.LBB270:
 824               	.LBB271:
 825               	.LM146:
 826 02da E199      		sbic 60-32,1
 827 02dc 00C0      		rjmp .L62
 828               	.LM147:
 829 02de 86E0      		ldi r24,lo8(6)
 830 02e0 90E0      		ldi r25,hi8(6)
 831               	.LVL25:
 832 02e2 9FBB      		out (62)+1-32,r25
 833 02e4 8EBB      		out 62-32,r24
 834               	.LM148:
 835               	/* #APP */
 836               	 ;  208 "c:/winavr-20090313/lib/gcc/../../avr/include/avr/eeprom.h" 1
 837               		/* START EEPROM READ CRITICAL SECTION */ 
 838 02e6 E09A      		sbi 28, 0 
 839 02e8 8DB3      		in r24, 29 
 840               		/* END EEPROM READ CRITICAL SECTION */ 
 841               		
 842               	 ;  0 "" 2
 843               	.LVL26:
 844               	/* #NOAPP */
 845               	.LBE271:
 846               	.LBE270:
 847               	.LM149:
 848 02ea 8093 0000 		sts RunParameter+23,r24
 849               	.L63:
 850               	.LBB272:
 851               	.LBB273:
 852               	.LM150:
 853 02ee E199      		sbic 60-32,1
 854 02f0 00C0      		rjmp .L63
 855               	.LM151:
 856 02f2 87E0      		ldi r24,lo8(7)
 857 02f4 90E0      		ldi r25,hi8(7)
 858               	.LVL27:
 859 02f6 9FBB      		out (62)+1-32,r25
 860 02f8 8EBB      		out 62-32,r24
 861               	.LM152:
 862               	/* #APP */
 863               	 ;  208 "c:/winavr-20090313/lib/gcc/../../avr/include/avr/eeprom.h" 1
 864               		/* START EEPROM READ CRITICAL SECTION */ 
 865 02fa E09A      		sbi 28, 0 
 866 02fc 8DB3      		in r24, 29 
 867               		/* END EEPROM READ CRITICAL SECTION */ 
 868               		
 869               	 ;  0 "" 2
 870               	.LVL28:
 871               	/* #NOAPP */
 872               	.LBE273:
 873               	.LBE272:
 874               	.LM153:
 875 02fe 8093 0000 		sts RunParameter+24,r24
 876               	.L64:
 877               	.LBB274:
 878               	.LBB275:
 879               	.LM154:
 880 0302 E199      		sbic 60-32,1
 881 0304 00C0      		rjmp .L64
 882               	.LM155:
 883 0306 88E0      		ldi r24,lo8(8)
 884 0308 90E0      		ldi r25,hi8(8)
 885               	.LVL29:
 886 030a 9FBB      		out (62)+1-32,r25
 887 030c 8EBB      		out 62-32,r24
 888               	.LM156:
 889               	/* #APP */
 890               	 ;  208 "c:/winavr-20090313/lib/gcc/../../avr/include/avr/eeprom.h" 1
 891               		/* START EEPROM READ CRITICAL SECTION */ 
 892 030e E09A      		sbi 28, 0 
 893 0310 8DB3      		in r24, 29 
 894               		/* END EEPROM READ CRITICAL SECTION */ 
 895               		
 896               	 ;  0 "" 2
 897               	.LVL30:
 898               	/* #NOAPP */
 899               	.LBE275:
 900               	.LBE274:
 901               	.LM157:
 902 0312 8093 0000 		sts RunParameter+26,r24
 903               	.L65:
 904               	.LBB276:
 905               	.LBB277:
 906               	.LM158:
 907 0316 E199      		sbic 60-32,1
 908 0318 00C0      		rjmp .L65
 909               	.LM159:
 910 031a 89E0      		ldi r24,lo8(9)
 911 031c 90E0      		ldi r25,hi8(9)
 912               	.LVL31:
 913 031e 9FBB      		out (62)+1-32,r25
 914 0320 8EBB      		out 62-32,r24
 915               	.LM160:
 916               	/* #APP */
 917               	 ;  208 "c:/winavr-20090313/lib/gcc/../../avr/include/avr/eeprom.h" 1
 918               		/* START EEPROM READ CRITICAL SECTION */ 
 919 0322 E09A      		sbi 28, 0 
 920 0324 8DB3      		in r24, 29 
 921               		/* END EEPROM READ CRITICAL SECTION */ 
 922               		
 923               	 ;  0 "" 2
 924               	.LVL32:
 925               	/* #NOAPP */
 926               	.LBE277:
 927               	.LBE276:
 928               	.LM161:
 929 0326 8093 0000 		sts RunParameter+27,r24
 930               	.L66:
 931               	.LBB278:
 932               	.LBB279:
 933               	.LM162:
 934 032a E199      		sbic 60-32,1
 935 032c 00C0      		rjmp .L66
 936               	.LM163:
 937 032e 80E1      		ldi r24,lo8(16)
 938 0330 90E0      		ldi r25,hi8(16)
 939               	.LVL33:
 940 0332 9FBB      		out (62)+1-32,r25
 941 0334 8EBB      		out 62-32,r24
 942               	.LM164:
 943               	/* #APP */
 944               	 ;  208 "c:/winavr-20090313/lib/gcc/../../avr/include/avr/eeprom.h" 1
 945               		/* START EEPROM READ CRITICAL SECTION */ 
 946 0336 E09A      		sbi 28, 0 
 947 0338 8DB3      		in r24, 29 
 948               		/* END EEPROM READ CRITICAL SECTION */ 
 949               		
 950               	 ;  0 "" 2
 951               	.LVL34:
 952               	/* #NOAPP */
 953               	.LBE279:
 954               	.LBE278:
 955               	.LM165:
 956 033a 8093 0000 		sts RunParameter+28,r24
 957               	.LVL35:
 958               	.L57:
 959               	.LM166:
 960 033e 8091 0000 		lds r24,RunParameter+19
 961               	.LVL36:
 962 0342 29E1      		ldi r18,lo8(25)
 963 0344 829F      		mul r24,r18
 964 0346 C001      		movw r24,r0
 965 0348 1124      		clr r1
 966 034a 8851      		subi r24,lo8(-(-24))
 967 034c 8CBF      		out 92-32,r24
 968               	.L55:
 969               	.LM167:
 970               	/* #APP */
 971               	 ;  52 "_EEPROM.h" 1
 972 034e 7894      		sei
 973               	 ;  0 "" 2
 974               	/* epilogue start */
 975               	.LM168:
 976               	/* #NOAPP */
 977 0350 0895      		ret
 978               	.LFE22:
 980               	.global	LED_SCREEN_INI
 982               	LED_SCREEN_INI:
 983               	.LFB23:
 984               	.LM169:
 985               	/* prologue: function */
 986               	/* frame size = 0 */
 987               	.LM170:
 988 0352 BB9A      		sbi 55-32,3
 989               	.LM171:
 990 0354 B89A      		sbi 55-32,0
 991               	.LM172:
 992 0356 B99A      		sbi 55-32,1
 993               	.LM173:
 994 0358 BA9A      		sbi 55-32,2
 995               	.LM174:
 996 035a BC9A      		sbi 55-32,4
 997               	.LM175:
 998 035c 8C9A      		sbi 49-32,4
 999               	.LM176:
 1000 035e 8D9A      		sbi 49-32,5
 1001               	.LM177:
 1002 0360 D19A      		sbi 58-32,1
 1003               	.LM178:
 1004 0362 D29A      		sbi 58-32,2
 1005               	.LM179:
 1006 0364 D39A      		sbi 58-32,3
 1007               	.LM180:
 1008 0366 D49A      		sbi 58-32,4
 1009               	.LM181:
 1010 0368 8A9A      		sbi 49-32,2
 1011               	.LM182:
 1012 036a 8B9A      		sbi 49-32,3
 1013               	.LM183:
 1014 036c 1092 0000 		sts display_cnt,__zero_reg__
 1015               	.LM184:
 1016 0370 1092 0000 		sts (halfSecondCount)+1,__zero_reg__
 1017 0374 1092 0000 		sts halfSecondCount,__zero_reg__
 1018               	.LM185:
 1019 0378 1092 0000 		sts isSecondCountShow,__zero_reg__
 1020               	.LM186:
 1021 037c 1092 0000 		sts currentMoveLeft,__zero_reg__
 1022               	.LM187:
 1023 0380 1092 0000 		sts (moveSpeedTimerCount)+1,__zero_reg__
 1024 0384 1092 0000 		sts moveSpeedTimerCount,__zero_reg__
 1025               	.LM188:
 1026 0388 1092 0000 		sts (FreshDisplayBufferCount)+1,__zero_reg__
 1027 038c 1092 0000 		sts FreshDisplayBufferCount,__zero_reg__
 1028               	/* epilogue start */
 1029               	.LM189:
 1030 0390 0895      		ret
 1031               	.LFE23:
 1033               	.global	writeCloclColon
 1035               	writeCloclColon:
 1036               	.LFB26:
 1037               	.LM190:
 1038               	.LVL37:
 1039               	/* prologue: function */
 1040               	/* frame size = 0 */
 1041               	.LM191:
 1042 0392 8823      		tst r24
 1043 0394 01F0      		breq .L83
 1044               	.LM192:
 1045 0396 8091 0000 		lds r24,display_buffer+36
 1046               	.LVL38:
 1047 039a 806C      		ori r24,lo8(-64)
 1048 039c 8093 0000 		sts display_buffer+36,r24
 1049               	.LM193:
 1050 03a0 8091 0000 		lds r24,display_buffer+44
 1051 03a4 806C      		ori r24,lo8(-64)
 1052 03a6 8093 0000 		sts display_buffer+44,r24
 1053               	.LM194:
 1054 03aa 8091 0000 		lds r24,display_buffer+52
 1055 03ae 806C      		ori r24,lo8(-64)
 1056 03b0 8093 0000 		sts display_buffer+52,r24
 1057               	.LM195:
 1058 03b4 8091 0000 		lds r24,display_buffer+35
 1059 03b8 8160      		ori r24,lo8(1)
 1060 03ba 8093 0000 		sts display_buffer+35,r24
 1061               	.LM196:
 1062 03be 8091 0000 		lds r24,display_buffer+43
 1063 03c2 8160      		ori r24,lo8(1)
 1064 03c4 8093 0000 		sts display_buffer+43,r24
 1065               	.LM197:
 1066 03c8 8091 0000 		lds r24,display_buffer+51
 1067 03cc 8160      		ori r24,lo8(1)
 1068 03ce 8093 0000 		sts display_buffer+51,r24
 1069               	.LM198:
 1070 03d2 8091 0000 		lds r24,display_buffer+108
 1071 03d6 806C      		ori r24,lo8(-64)
 1072 03d8 8093 0000 		sts display_buffer+108,r24
 1073               	.LM199:
 1074 03dc 8091 0000 		lds r24,display_buffer+116
 1075 03e0 806C      		ori r24,lo8(-64)
 1076 03e2 8093 0000 		sts display_buffer+116,r24
 1077               	.LM200:
 1078 03e6 8091 0000 		lds r24,display_buffer+124
 1079 03ea 806C      		ori r24,lo8(-64)
 1080 03ec 8093 0000 		sts display_buffer+124,r24
 1081               	.LM201:
 1082 03f0 8091 0000 		lds r24,display_buffer+107
 1083 03f4 8160      		ori r24,lo8(1)
 1084 03f6 8093 0000 		sts display_buffer+107,r24
 1085               	.LM202:
 1086 03fa 8091 0000 		lds r24,display_buffer+115
 1087 03fe 8160      		ori r24,lo8(1)
 1088 0400 8093 0000 		sts display_buffer+115,r24
 1089               	.LM203:
 1090 0404 8091 0000 		lds r24,display_buffer+123
 1091 0408 8160      		ori r24,lo8(1)
 1092 040a 00C0      		rjmp .L86
 1093               	.LVL39:
 1094               	.L83:
 1095               	.LM204:
 1096 040c 8091 0000 		lds r24,display_buffer+36
 1097               	.LVL40:
 1098 0410 8F73      		andi r24,lo8(63)
 1099 0412 8093 0000 		sts display_buffer+36,r24
 1100               	.LM205:
 1101 0416 8091 0000 		lds r24,display_buffer+44
 1102 041a 8F73      		andi r24,lo8(63)
 1103 041c 8093 0000 		sts display_buffer+44,r24
 1104               	.LM206:
 1105 0420 8091 0000 		lds r24,display_buffer+52
 1106 0424 8F73      		andi r24,lo8(63)
 1107 0426 8093 0000 		sts display_buffer+52,r24
 1108               	.LM207:
 1109 042a 8091 0000 		lds r24,display_buffer+35
 1110 042e 8E7F      		andi r24,lo8(-2)
 1111 0430 8093 0000 		sts display_buffer+35,r24
 1112               	.LM208:
 1113 0434 8091 0000 		lds r24,display_buffer+43
 1114 0438 8E7F      		andi r24,lo8(-2)
 1115 043a 8093 0000 		sts display_buffer+43,r24
 1116               	.LM209:
 1117 043e 8091 0000 		lds r24,display_buffer+51
 1118 0442 8E7F      		andi r24,lo8(-2)
 1119 0444 8093 0000 		sts display_buffer+51,r24
 1120               	.LM210:
 1121 0448 8091 0000 		lds r24,display_buffer+108
 1122 044c 8F73      		andi r24,lo8(63)
 1123 044e 8093 0000 		sts display_buffer+108,r24
 1124               	.LM211:
 1125 0452 8091 0000 		lds r24,display_buffer+116
 1126 0456 8F73      		andi r24,lo8(63)
 1127 0458 8093 0000 		sts display_buffer+116,r24
 1128               	.LM212:
 1129 045c 8091 0000 		lds r24,display_buffer+124
 1130 0460 8F73      		andi r24,lo8(63)
 1131 0462 8093 0000 		sts display_buffer+124,r24
 1132               	.LM213:
 1133 0466 8091 0000 		lds r24,display_buffer+107
 1134 046a 8E7F      		andi r24,lo8(-2)
 1135 046c 8093 0000 		sts display_buffer+107,r24
 1136               	.LM214:
 1137 0470 8091 0000 		lds r24,display_buffer+115
 1138 0474 8E7F      		andi r24,lo8(-2)
 1139 0476 8093 0000 		sts display_buffer+115,r24
 1140               	.LM215:
 1141 047a 8091 0000 		lds r24,display_buffer+123
 1142 047e 8E7F      		andi r24,lo8(-2)
 1143               	.L86:
 1144 0480 8093 0000 		sts display_buffer+123,r24
 1145 0484 0895      		ret
 1146               	.LFE26:
 1148               	.global	writeOneChinese
 1150               	writeOneChinese:
 1151               	.LFB27:
 1152               	.LM216:
 1153               	.LVL41:
 1154               	/* prologue: function */
 1155               	/* frame size = 0 */
 1156               	.LM217:
 1157 0486 242F      		mov r18,r20
 1158 0488 30E0      		ldi r19,lo8(0)
 1159 048a F5E0      		ldi r31,5
 1160 048c 220F      	1:	lsl r18
 1161 048e 331F      		rol r19
 1162 0490 FA95      		dec r31
 1163 0492 01F4      		brne 1b
 1164 0494 2050      		subi r18,lo8(-(CHINESE))
 1165 0496 3040      		sbci r19,hi8(-(CHINESE))
 1166 0498 70E0      		ldi r23,lo8(0)
 1167 049a E3E0      		ldi r30,3
 1168 049c 660F      	1:	lsl r22
 1169 049e 771F      		rol r23
 1170 04a0 EA95      		dec r30
 1171 04a2 01F4      		brne 1b
 1172               	.LVL42:
 1173 04a4 90E0      		ldi r25,lo8(0)
 1174               	.LVL43:
 1175 04a6 DB01      		movw r26,r22
 1176 04a8 A80F      		add r26,r24
 1177 04aa B91F      		adc r27,r25
 1178 04ac A050      		subi r26,lo8(-(display_buffer))
 1179 04ae B040      		sbci r27,hi8(-(display_buffer))
 1180               	.LM218:
 1181 04b0 680F      		add r22,r24
 1182 04b2 791F      		adc r23,r25
 1183 04b4 6050      		subi r22,lo8(-(display_buffer+128))
 1184 04b6 7040      		sbci r23,hi8(-(display_buffer+128))
 1185               	.L88:
 1186               	.LBB280:
 1187               	.LM219:
 1188 04b8 F901      		movw r30,r18
 1189               	/* #APP */
 1190               	 ;  98 "_Display.h" 1
 1191 04ba 8491      		lpm r24, Z
 1192               		
 1193               	 ;  0 "" 2
 1194               	.LVL44:
 1195               	/* #NOAPP */
 1196               	.LBE280:
 1197               	.LM220:
 1198 04bc 8C93      		st X,r24
 1199               	.LBB281:
 1200               	.LM221:
 1201 04be 2F5F      		subi r18,lo8(-(1))
 1202 04c0 3F4F      		sbci r19,hi8(-(1))
 1203 04c2 F901      		movw r30,r18
 1204               	/* #APP */
 1205               	 ;  100 "_Display.h" 1
 1206 04c4 8491      		lpm r24, Z
 1207               		
 1208               	 ;  0 "" 2
 1209               	.LVL45:
 1210               	/* #NOAPP */
 1211               	.LBE281:
 1212               	.LM222:
 1213 04c6 1196      		adiw r26,1
 1214 04c8 8C93      		st X,r24
 1215 04ca 1197      		sbiw r26,1
 1216 04cc 2F5F      		subi r18,lo8(-(1))
 1217 04ce 3F4F      		sbci r19,hi8(-(1))
 1218 04d0 1896      		adiw r26,8
 1219               	.LM223:
 1220 04d2 A617      		cp r26,r22
 1221 04d4 B707      		cpc r27,r23
 1222 04d6 01F4      		brne .L88
 1223               	/* epilogue start */
 1224               	.LM224:
 1225 04d8 0895      		ret
 1226               	.LFE27:
 1228               	.global	writeOneUnSCROLL
 1230               	writeOneUnSCROLL:
 1231               	.LFB28:
 1232               	.LM225:
 1233               	.LVL46:
 1234               	/* prologue: function */
 1235               	/* frame size = 0 */
 1236               	.LM226:
 1237 04da 9AE0      		ldi r25,lo8(10)
 1238 04dc 499F      		mul r20,r25
 1239 04de 9001      		movw r18,r0
 1240 04e0 1124      		clr r1
 1241 04e2 2050      		subi r18,lo8(-(SCROLL))
 1242 04e4 3040      		sbci r19,hi8(-(SCROLL))
 1243 04e6 70E0      		ldi r23,lo8(0)
 1244 04e8 A3E0      		ldi r26,3
 1245 04ea 660F      	1:	lsl r22
 1246 04ec 771F      		rol r23
 1247 04ee AA95      		dec r26
 1248 04f0 01F4      		brne 1b
 1249               	.LVL47:
 1250 04f2 90E0      		ldi r25,lo8(0)
 1251               	.LVL48:
 1252 04f4 DB01      		movw r26,r22
 1253 04f6 A80F      		add r26,r24
 1254 04f8 B91F      		adc r27,r25
 1255 04fa A050      		subi r26,lo8(-(display_buffer))
 1256 04fc B040      		sbci r27,hi8(-(display_buffer))
 1257               	.LM227:
 1258 04fe 680F      		add r22,r24
 1259 0500 791F      		adc r23,r25
 1260 0502 6050      		subi r22,lo8(-(display_buffer+80))
 1261 0504 7040      		sbci r23,hi8(-(display_buffer+80))
 1262               	.L92:
 1263               	.LBB282:
 1264               	.LM228:
 1265 0506 F901      		movw r30,r18
 1266               	/* #APP */
 1267               	 ;  112 "_Display.h" 1
 1268 0508 8491      		lpm r24, Z
 1269               		
 1270               	 ;  0 "" 2
 1271               	.LVL49:
 1272               	/* #NOAPP */
 1273               	.LBE282:
 1274               	.LM229:
 1275 050a 8C93      		st X,r24
 1276 050c 2F5F      		subi r18,lo8(-(1))
 1277 050e 3F4F      		sbci r19,hi8(-(1))
 1278 0510 1896      		adiw r26,8
 1279               	.LM230:
 1280 0512 A617      		cp r26,r22
 1281 0514 B707      		cpc r27,r23
 1282 0516 01F4      		brne .L92
 1283               	/* epilogue start */
 1284               	.LM231:
 1285 0518 0895      		ret
 1286               	.LFE28:
 1288               	.global	writeOneSCROLL
 1290               	writeOneSCROLL:
 1291               	.LFB29:
 1292               	.LM232:
 1293               	.LVL50:
 1294               	/* prologue: function */
 1295               	/* frame size = 0 */
 1296 051a 282F      		mov r18,r24
 1297               	.LM233:
 1298 051c 8091 0000 		lds r24,RunParameter+27
 1299               	.LVL51:
 1300 0520 8823      		tst r24
 1301 0522 01F4      		brne .L96
 1302 0524 8AE0      		ldi r24,lo8(10)
 1303 0526 489F      		mul r20,r24
 1304 0528 A001      		movw r20,r0
 1305 052a 1124      		clr r1
 1306               	.LVL52:
 1307 052c 4050      		subi r20,lo8(-(SCROLL_STYLE1))
 1308 052e 5040      		sbci r21,hi8(-(SCROLL_STYLE1))
 1309 0530 862F      		mov r24,r22
 1310 0532 90E0      		ldi r25,lo8(0)
 1311 0534 73E0      		ldi r23,3
 1312 0536 880F      	1:	lsl r24
 1313 0538 991F      		rol r25
 1314 053a 7A95      		dec r23
 1315 053c 01F4      		brne 1b
 1316 053e 30E0      		ldi r19,lo8(0)
 1317               	.LVL53:
 1318 0540 DC01      		movw r26,r24
 1319 0542 A20F      		add r26,r18
 1320 0544 B31F      		adc r27,r19
 1321 0546 A050      		subi r26,lo8(-(display_buffer))
 1322 0548 B040      		sbci r27,hi8(-(display_buffer))
 1323               	.LM234:
 1324 054a 280F      		add r18,r24
 1325 054c 391F      		adc r19,r25
 1326               	.LVL54:
 1327 054e 2050      		subi r18,lo8(-(display_buffer+240))
 1328 0550 3040      		sbci r19,hi8(-(display_buffer+240))
 1329               	.L97:
 1330               	.LBB283:
 1331               	.LM235:
 1332 0552 FA01      		movw r30,r20
 1333               	/* #APP */
 1334               	 ;  125 "_Display.h" 1
 1335 0554 8491      		lpm r24, Z
 1336               		
 1337               	 ;  0 "" 2
 1338               	.LVL55:
 1339               	/* #NOAPP */
 1340               	.LBE283:
 1341               	.LM236:
 1342 0556 8C93      		st X,r24
 1343 0558 4F5F      		subi r20,lo8(-(1))
 1344 055a 5F4F      		sbci r21,hi8(-(1))
 1345 055c 5896      		adiw r26,24
 1346               	.LM237:
 1347 055e A217      		cp r26,r18
 1348 0560 B307      		cpc r27,r19
 1349 0562 01F4      		brne .L97
 1350 0564 0895      		ret
 1351               	.LVL56:
 1352               	.L96:
 1353 0566 70E0      		ldi r23,lo8(0)
 1354               	.LVL57:
 1355 0568 30E0      		ldi r19,lo8(0)
 1356               	.LVL58:
 1357               	.LM238:
 1358 056a 8130      		cpi r24,lo8(1)
 1359 056c 01F4      		brne .L99
 1360 056e 8AE0      		ldi r24,lo8(10)
 1361 0570 489F      		mul r20,r24
 1362 0572 A001      		movw r20,r0
 1363 0574 1124      		clr r1
 1364               	.LVL59:
 1365 0576 4050      		subi r20,lo8(-(SCROLL_STYLE2))
 1366 0578 5040      		sbci r21,hi8(-(SCROLL_STYLE2))
 1367 057a CB01      		movw r24,r22
 1368 057c 63E0      		ldi r22,3
 1369 057e 880F      	1:	lsl r24
 1370 0580 991F      		rol r25
 1371 0582 6A95      		dec r22
 1372 0584 01F4      		brne 1b
 1373               	.LVL60:
 1374 0586 DC01      		movw r26,r24
 1375 0588 A20F      		add r26,r18
 1376 058a B31F      		adc r27,r19
 1377 058c A050      		subi r26,lo8(-(display_buffer))
 1378 058e B040      		sbci r27,hi8(-(display_buffer))
 1379               	.LM239:
 1380 0590 280F      		add r18,r24
 1381 0592 391F      		adc r19,r25
 1382               	.LVL61:
 1383 0594 2050      		subi r18,lo8(-(display_buffer+240))
 1384 0596 3040      		sbci r19,hi8(-(display_buffer+240))
 1385               	.L100:
 1386               	.LBB284:
 1387               	.LM240:
 1388 0598 FA01      		movw r30,r20
 1389               	/* #APP */
 1390               	 ;  133 "_Display.h" 1
 1391 059a 8491      		lpm r24, Z
 1392               		
 1393               	 ;  0 "" 2
 1394               	.LVL62:
 1395               	/* #NOAPP */
 1396               	.LBE284:
 1397               	.LM241:
 1398 059c 8C93      		st X,r24
 1399 059e 4F5F      		subi r20,lo8(-(1))
 1400 05a0 5F4F      		sbci r21,hi8(-(1))
 1401 05a2 5896      		adiw r26,24
 1402               	.LM242:
 1403 05a4 A217      		cp r26,r18
 1404 05a6 B307      		cpc r27,r19
 1405 05a8 01F4      		brne .L100
 1406 05aa 0895      		ret
 1407               	.LVL63:
 1408               	.L99:
 1409 05ac 8AE0      		ldi r24,lo8(10)
 1410 05ae 489F      		mul r20,r24
 1411 05b0 A001      		movw r20,r0
 1412 05b2 1124      		clr r1
 1413               	.LVL64:
 1414 05b4 4050      		subi r20,lo8(-(SCROLL_STYLE3))
 1415 05b6 5040      		sbci r21,hi8(-(SCROLL_STYLE3))
 1416 05b8 CB01      		movw r24,r22
 1417 05ba B3E0      		ldi r27,3
 1418 05bc 880F      	1:	lsl r24
 1419 05be 991F      		rol r25
 1420 05c0 BA95      		dec r27
 1421 05c2 01F4      		brne 1b
 1422 05c4 DC01      		movw r26,r24
 1423 05c6 A20F      		add r26,r18
 1424 05c8 B31F      		adc r27,r19
 1425 05ca A050      		subi r26,lo8(-(display_buffer))
 1426 05cc B040      		sbci r27,hi8(-(display_buffer))
 1427               	.LM243:
 1428 05ce 280F      		add r18,r24
 1429 05d0 391F      		adc r19,r25
 1430               	.LVL65:
 1431 05d2 2050      		subi r18,lo8(-(display_buffer+240))
 1432 05d4 3040      		sbci r19,hi8(-(display_buffer+240))
 1433               	.L101:
 1434               	.LBB285:
 1435               	.LM244:
 1436 05d6 FA01      		movw r30,r20
 1437               	/* #APP */
 1438               	 ;  141 "_Display.h" 1
 1439 05d8 8491      		lpm r24, Z
 1440               		
 1441               	 ;  0 "" 2
 1442               	.LVL66:
 1443               	/* #NOAPP */
 1444               	.LBE285:
 1445               	.LM245:
 1446 05da 8C93      		st X,r24
 1447 05dc 4F5F      		subi r20,lo8(-(1))
 1448 05de 5F4F      		sbci r21,hi8(-(1))
 1449 05e0 5896      		adiw r26,24
 1450               	.LM246:
 1451 05e2 A217      		cp r26,r18
 1452 05e4 B307      		cpc r27,r19
 1453 05e6 01F4      		brne .L101
 1454 05e8 0895      		ret
 1455               	.LFE29:
 1457               	.global	wirteOneBigNumber
 1459               	wirteOneBigNumber:
 1460               	.LFB30:
 1461               	.LM247:
 1462               	.LVL67:
 1463 05ea CF93      		push r28
 1464 05ec DF93      		push r29
 1465               	/* prologue: function */
 1466               	/* frame size = 0 */
 1467 05ee 982F      		mov r25,r24
 1468               	.LM248:
 1469 05f0 8091 0000 		lds r24,RunParameter+27
 1470               	.LVL68:
 1471 05f4 8823      		tst r24
 1472 05f6 01F4      		brne .L107
 1473 05f8 8AE2      		ldi r24,lo8(42)
 1474 05fa 489F      		mul r20,r24
 1475 05fc F001      		movw r30,r0
 1476 05fe 1124      		clr r1
 1477 0600 E050      		subi r30,lo8(-(BIG_NUMBER_STYLE1))
 1478 0602 F040      		sbci r31,hi8(-(BIG_NUMBER_STYLE1))
 1479 0604 892F      		mov r24,r25
 1480 0606 90E0      		ldi r25,lo8(0)
 1481               	.LVL69:
 1482 0608 DC01      		movw r26,r24
 1483 060a A050      		subi r26,lo8(-(display_buffer))
 1484 060c B040      		sbci r27,hi8(-(display_buffer))
 1485               	.LM249:
 1486 060e 70E0      		ldi r23,lo8(0)
 1487               	.LM250:
 1488 0610 48E0      		ldi r20,lo8(8)
 1489 0612 50E0      		ldi r21,hi8(8)
 1490               	.LVL70:
 1491 0614 461B      		sub r20,r22
 1492 0616 570B      		sbc r21,r23
 1493               	.LVL71:
 1494               	.LM251:
 1495 0618 EC01      		movw r28,r24
 1496 061a C050      		subi r28,lo8(-(display_buffer+168))
 1497 061c D040      		sbci r29,hi8(-(display_buffer+168))
 1498               	.L108:
 1499               	.LBB286:
 1500               	.LM252:
 1501               	/* #APP */
 1502               	 ;  155 "_Display.h" 1
 1503 061e 2491      		lpm r18, Z
 1504               		
 1505               	 ;  0 "" 2
 1506               	.LVL72:
 1507               	/* #NOAPP */
 1508               	.LBE286:
 1509               	.LM253:
 1510 0620 30E0      		ldi r19,lo8(0)
 1511 0622 C901      		movw r24,r18
 1512               	.LVL73:
 1513 0624 062E      		mov r0,r22
 1514 0626 00C0      		rjmp 2f
 1515 0628 9595      	1:	asr r25
 1516 062a 8795      		ror r24
 1517 062c 0A94      	2:	dec r0
 1518 062e 02F4      		brpl 1b
 1519 0630 8C93      		st X,r24
 1520               	.LBB287:
 1521               	.LM254:
 1522 0632 3196      		adiw r30,1
 1523               	/* #APP */
 1524               	 ;  157 "_Display.h" 1
 1525 0634 8491      		lpm r24, Z
 1526               		
 1527               	 ;  0 "" 2
 1528               	.LVL74:
 1529               	/* #NOAPP */
 1530               	.LBE287:
 1531               	.LM255:
 1532 0636 90E0      		ldi r25,lo8(0)
 1533               	.LVL75:
 1534 0638 062E      		mov r0,r22
 1535 063a 00C0      		rjmp 2f
 1536 063c 9595      	1:	asr r25
 1537 063e 8795      		ror r24
 1538 0640 0A94      	2:	dec r0
 1539 0642 02F4      		brpl 1b
 1540               	.LVL76:
 1541 0644 042E      		mov r0,r20
 1542 0646 00C0      		rjmp 2f
 1543 0648 220F      	1:	lsl r18
 1544 064a 331F      		rol r19
 1545 064c 0A94      	2:	dec r0
 1546 064e 02F4      		brpl 1b
 1547 0650 822B      		or r24,r18
 1548               	.LVL77:
 1549 0652 1196      		adiw r26,1
 1550 0654 8C93      		st X,r24
 1551 0656 1197      		sbiw r26,1
 1552 0658 3196      		adiw r30,1
 1553 065a 1896      		adiw r26,8
 1554               	.LM256:
 1555 065c AC17      		cp r26,r28
 1556 065e BD07      		cpc r27,r29
 1557 0660 01F4      		brne .L108
 1558 0662 00C0      		rjmp .L113
 1559               	.LVL78:
 1560               	.L107:
 1561 0664 292F      		mov r18,r25
 1562 0666 30E0      		ldi r19,lo8(0)
 1563               	.LVL79:
 1564               	.LM257:
 1565 0668 8130      		cpi r24,lo8(1)
 1566 066a 01F4      		brne .L110
 1567               	.LVL80:
 1568 066c 8AE2      		ldi r24,lo8(42)
 1569 066e 489F      		mul r20,r24
 1570 0670 F001      		movw r30,r0
 1571 0672 1124      		clr r1
 1572 0674 E050      		subi r30,lo8(-(BIG_NUMBER_STYLE2))
 1573 0676 F040      		sbci r31,hi8(-(BIG_NUMBER_STYLE2))
 1574 0678 D901      		movw r26,r18
 1575 067a A050      		subi r26,lo8(-(display_buffer))
 1576 067c B040      		sbci r27,hi8(-(display_buffer))
 1577               	.LM258:
 1578 067e 70E0      		ldi r23,lo8(0)
 1579               	.LM259:
 1580 0680 48E0      		ldi r20,lo8(8)
 1581 0682 50E0      		ldi r21,hi8(8)
 1582               	.LVL81:
 1583 0684 461B      		sub r20,r22
 1584 0686 570B      		sbc r21,r23
 1585               	.LVL82:
 1586               	.LM260:
 1587 0688 E901      		movw r28,r18
 1588 068a C050      		subi r28,lo8(-(display_buffer+168))
 1589 068c D040      		sbci r29,hi8(-(display_buffer+168))
 1590               	.L111:
 1591               	.LBB288:
 1592               	.LM261:
 1593               	/* #APP */
 1594               	 ;  165 "_Display.h" 1
 1595 068e 2491      		lpm r18, Z
 1596               		
 1597               	 ;  0 "" 2
 1598               	.LVL83:
 1599               	/* #NOAPP */
 1600               	.LBE288:
 1601               	.LM262:
 1602 0690 30E0      		ldi r19,lo8(0)
 1603               	.LVL84:
 1604 0692 C901      		movw r24,r18
 1605               	.LVL85:
 1606 0694 062E      		mov r0,r22
 1607 0696 00C0      		rjmp 2f
 1608 0698 9595      	1:	asr r25
 1609 069a 8795      		ror r24
 1610 069c 0A94      	2:	dec r0
 1611 069e 02F4      		brpl 1b
 1612 06a0 8C93      		st X,r24
 1613               	.LBB289:
 1614               	.LM263:
 1615 06a2 3196      		adiw r30,1
 1616               	/* #APP */
 1617               	 ;  167 "_Display.h" 1
 1618 06a4 8491      		lpm r24, Z
 1619               		
 1620               	 ;  0 "" 2
 1621               	.LVL86:
 1622               	/* #NOAPP */
 1623               	.LBE289:
 1624               	.LM264:
 1625 06a6 90E0      		ldi r25,lo8(0)
 1626               	.LVL87:
 1627 06a8 062E      		mov r0,r22
 1628 06aa 00C0      		rjmp 2f
 1629 06ac 9595      	1:	asr r25
 1630 06ae 8795      		ror r24
 1631 06b0 0A94      	2:	dec r0
 1632 06b2 02F4      		brpl 1b
 1633               	.LVL88:
 1634 06b4 042E      		mov r0,r20
 1635 06b6 00C0      		rjmp 2f
 1636 06b8 220F      	1:	lsl r18
 1637 06ba 331F      		rol r19
 1638 06bc 0A94      	2:	dec r0
 1639 06be 02F4      		brpl 1b
 1640 06c0 822B      		or r24,r18
 1641               	.LVL89:
 1642 06c2 1196      		adiw r26,1
 1643 06c4 8C93      		st X,r24
 1644 06c6 1197      		sbiw r26,1
 1645 06c8 3196      		adiw r30,1
 1646 06ca 1896      		adiw r26,8
 1647               	.LM265:
 1648 06cc AC17      		cp r26,r28
 1649 06ce BD07      		cpc r27,r29
 1650 06d0 01F4      		brne .L111
 1651 06d2 00C0      		rjmp .L113
 1652               	.LVL90:
 1653               	.L110:
 1654 06d4 8AE2      		ldi r24,lo8(42)
 1655 06d6 489F      		mul r20,r24
 1656 06d8 F001      		movw r30,r0
 1657 06da 1124      		clr r1
 1658 06dc E050      		subi r30,lo8(-(BIG_NUMBER_STYLE3))
 1659 06de F040      		sbci r31,hi8(-(BIG_NUMBER_STYLE3))
 1660 06e0 D901      		movw r26,r18
 1661 06e2 A050      		subi r26,lo8(-(display_buffer))
 1662 06e4 B040      		sbci r27,hi8(-(display_buffer))
 1663               	.LM266:
 1664 06e6 70E0      		ldi r23,lo8(0)
 1665               	.LM267:
 1666 06e8 48E0      		ldi r20,lo8(8)
 1667 06ea 50E0      		ldi r21,hi8(8)
 1668               	.LVL91:
 1669 06ec 461B      		sub r20,r22
 1670 06ee 570B      		sbc r21,r23
 1671               	.LVL92:
 1672               	.LM268:
 1673 06f0 E901      		movw r28,r18
 1674 06f2 C050      		subi r28,lo8(-(display_buffer+168))
 1675 06f4 D040      		sbci r29,hi8(-(display_buffer+168))
 1676               	.L112:
 1677               	.LBB290:
 1678               	.LM269:
 1679               	/* #APP */
 1680               	 ;  175 "_Display.h" 1
 1681 06f6 2491      		lpm r18, Z
 1682               		
 1683               	 ;  0 "" 2
 1684               	.LVL93:
 1685               	/* #NOAPP */
 1686               	.LBE290:
 1687               	.LM270:
 1688 06f8 30E0      		ldi r19,lo8(0)
 1689               	.LVL94:
 1690 06fa C901      		movw r24,r18
 1691               	.LVL95:
 1692 06fc 062E      		mov r0,r22
 1693 06fe 00C0      		rjmp 2f
 1694 0700 9595      	1:	asr r25
 1695 0702 8795      		ror r24
 1696 0704 0A94      	2:	dec r0
 1697 0706 02F4      		brpl 1b
 1698 0708 8C93      		st X,r24
 1699               	.LBB291:
 1700               	.LM271:
 1701 070a 3196      		adiw r30,1
 1702               	/* #APP */
 1703               	 ;  177 "_Display.h" 1
 1704 070c 8491      		lpm r24, Z
 1705               		
 1706               	 ;  0 "" 2
 1707               	.LVL96:
 1708               	/* #NOAPP */
 1709               	.LBE291:
 1710               	.LM272:
 1711 070e 90E0      		ldi r25,lo8(0)
 1712               	.LVL97:
 1713 0710 062E      		mov r0,r22
 1714 0712 00C0      		rjmp 2f
 1715 0714 9595      	1:	asr r25
 1716 0716 8795      		ror r24
 1717 0718 0A94      	2:	dec r0
 1718 071a 02F4      		brpl 1b
 1719               	.LVL98:
 1720 071c 042E      		mov r0,r20
 1721 071e 00C0      		rjmp 2f
 1722 0720 220F      	1:	lsl r18
 1723 0722 331F      		rol r19
 1724 0724 0A94      	2:	dec r0
 1725 0726 02F4      		brpl 1b
 1726 0728 822B      		or r24,r18
 1727               	.LVL99:
 1728 072a 1196      		adiw r26,1
 1729 072c 8C93      		st X,r24
 1730 072e 1197      		sbiw r26,1
 1731 0730 3196      		adiw r30,1
 1732 0732 1896      		adiw r26,8
 1733               	.LM273:
 1734 0734 AC17      		cp r26,r28
 1735 0736 BD07      		cpc r27,r29
 1736 0738 01F4      		brne .L112
 1737               	.LVL100:
 1738               	.L113:
 1739               	/* epilogue start */
 1740               	.LM274:
 1741 073a DF91      		pop r29
 1742 073c CF91      		pop r28
 1743 073e 0895      		ret
 1744               	.LFE30:
 1746               	.global	display
 1748               	display:
 1749               	.LFB45:
 1750               	.LM275:
 1751 0740 1F93      		push r17
 1752 0742 CF93      		push r28
 1753 0744 DF93      		push r29
 1754               	/* prologue: function */
 1755               	/* frame size = 0 */
 1756               	.LM276:
 1757 0746 4091 0000 		lds r20,moveSpeedTimerCount
 1758 074a 5091 0000 		lds r21,(moveSpeedTimerCount)+1
 1759 074e 4F5F      		subi r20,lo8(-(1))
 1760 0750 5F4F      		sbci r21,hi8(-(1))
 1761 0752 5093 0000 		sts (moveSpeedTimerCount)+1,r21
 1762 0756 4093 0000 		sts moveSpeedTimerCount,r20
 1763               	.LM277:
 1764 075a 2091 0000 		lds r18,RunParameter+20
 1765 075e 89E0      		ldi r24,lo8(9)
 1766 0760 90E0      		ldi r25,hi8(9)
 1767 0762 821B      		sub r24,r18
 1768 0764 9109      		sbc r25,__zero_reg__
 1769 0766 9C01      		movw r18,r24
 1770 0768 73E0      		ldi r23,3
 1771 076a 220F      	1:	lsl r18
 1772 076c 331F      		rol r19
 1773 076e 7A95      		dec r23
 1774 0770 01F4      		brne 1b
 1775 0772 880F      		lsl r24
 1776 0774 991F      		rol r25
 1777 0776 280F      		add r18,r24
 1778 0778 391F      		adc r19,r25
 1779 077a 2417      		cp r18,r20
 1780 077c 3507      		cpc r19,r21
 1781 077e 00F4      		brsh .L118
 1782               	.LM278:
 1783 0780 1092 0000 		sts (moveSpeedTimerCount)+1,__zero_reg__
 1784 0784 1092 0000 		sts moveSpeedTimerCount,__zero_reg__
 1785               	.LM279:
 1786 0788 8091 0000 		lds r24,currentMoveLeft
 1787 078c 8F5F      		subi r24,lo8(-(1))
 1788 078e 8093 0000 		sts currentMoveLeft,r24
 1789               	.LM280:
 1790 0792 813C      		cpi r24,lo8(-63)
 1791 0794 00F0      		brlo .L118
 1792               	.LM281:
 1793 0796 1092 0000 		sts currentMoveLeft,__zero_reg__
 1794               	.L118:
 1795               	.LM282:
 1796 079a 9298      		cbi 50-32,2
 1797               	.LM283:
 1798 079c 8091 0000 		lds r24,RunParameter+21
 1799 07a0 8823      		tst r24
 1800 07a2 01F4      		brne .L119
 1801               	.LM284:
 1802 07a4 8091 0000 		lds r24,halfSecondCount
 1803 07a8 9091 0000 		lds r25,(halfSecondCount)+1
 1804 07ac 0196      		adiw r24,1
 1805 07ae 9093 0000 		sts (halfSecondCount)+1,r25
 1806 07b2 8093 0000 		sts halfSecondCount,r24
 1807               	.LM285:
 1808 07b6 8D5A      		subi r24,lo8(941)
 1809 07b8 9340      		sbci r25,hi8(941)
 1810 07ba 00F0      		brlo .L119
 1811               	.LM286:
 1812 07bc 1092 0000 		sts (halfSecondCount)+1,__zero_reg__
 1813 07c0 1092 0000 		sts halfSecondCount,__zero_reg__
 1814               	.LM287:
 1815 07c4 8091 0000 		lds r24,isSecondCountShow
 1816 07c8 8823      		tst r24
 1817 07ca 01F0      		breq .L120
 1818               	.LM288:
 1819 07cc 1092 0000 		sts isSecondCountShow,__zero_reg__
 1820               	.LM289:
 1821 07d0 80E0      		ldi r24,lo8(0)
 1822 07d2 00C0      		rjmp .L183
 1823               	.L120:
 1824               	.LM290:
 1825 07d4 81E0      		ldi r24,lo8(1)
 1826 07d6 8093 0000 		sts isSecondCountShow,r24
 1827               	.L183:
 1828               	.LM291:
 1829 07da 0E94 0000 		call writeCloclColon
 1830               	.L119:
 1831               	.LM292:
 1832 07de 8091 0000 		lds r24,display_cnt
 1833 07e2 8630      		cpi r24,lo8(6)
 1834 07e4 00F4      		brsh .+2
 1835 07e6 00C0      		rjmp .L121
 1836               	.LM293:
 1837 07e8 8091 0000 		lds r24,RunParameter+21
 1838 07ec 8823      		tst r24
 1839 07ee 01F4      		brne .L121
 1840               	.LBB292:
 1841               	.LM294:
 1842 07f0 9091 0000 		lds r25,currentMoveLeft
 1843               	.LM295:
 1844 07f4 3091 0000 		lds r19,display_cnt
 1845               	.LM296:
 1846 07f8 1091 0000 		lds r17,display_cnt
 1847 07fc 292F      		mov r18,r25
 1848 07fe 2695      		lsr r18
 1849 0800 2695      		lsr r18
 1850 0802 2695      		lsr r18
 1851 0804 88E1      		ldi r24,lo8(24)
 1852 0806 389F      		mul r19,r24
 1853 0808 F001      		movw r30,r0
 1854 080a 1124      		clr r1
 1855 080c E20F      		add r30,r18
 1856 080e F11D      		adc r31,__zero_reg__
 1857 0810 E050      		subi r30,lo8(-(display_buffer+32))
 1858 0812 F040      		sbci r31,hi8(-(display_buffer+32))
 1859 0814 A0E0      		ldi r26,lo8(display_buffer_temp)
 1860 0816 B0E0      		ldi r27,hi8(display_buffer_temp)
 1861               	.LM297:
 1862 0818 9770      		andi r25,lo8(7)
 1863               	.LM298:
 1864 081a 692F      		mov r22,r25
 1865 081c 70E0      		ldi r23,lo8(0)
 1866 081e 48E0      		ldi r20,lo8(8)
 1867 0820 50E0      		ldi r21,hi8(8)
 1868 0822 461B      		sub r20,r22
 1869 0824 570B      		sbc r21,r23
 1870               	.L123:
 1871 0826 2181      		ldd r18,Z+1
 1872 0828 30E0      		ldi r19,lo8(0)
 1873 082a 042E      		mov r0,r20
 1874 082c 00C0      		rjmp 2f
 1875 082e 3595      	1:	asr r19
 1876 0830 2795      		ror r18
 1877 0832 0A94      	2:	dec r0
 1878 0834 02F4      		brpl 1b
 1879 0836 8191      		ld r24,Z+
 1880 0838 90E0      		ldi r25,lo8(0)
 1881 083a 062E      		mov r0,r22
 1882 083c 00C0      		rjmp 2f
 1883 083e 880F      	1:	lsl r24
 1884 0840 991F      		rol r25
 1885 0842 0A94      	2:	dec r0
 1886 0844 02F4      		brpl 1b
 1887 0846 282B      		or r18,r24
 1888 0848 2D93      		st X+,r18
 1889               	.LM299:
 1890 084a 80E0      		ldi r24,hi8(display_buffer_temp+8)
 1891 084c A030      		cpi r26,lo8(display_buffer_temp+8)
 1892 084e B807      		cpc r27,r24
 1893 0850 01F4      		brne .L123
 1894               	.LM300:
 1895 0852 E12F      		mov r30,r17
 1896               	.LVL101:
 1897 0854 F0E0      		ldi r31,lo8(0)
 1898               	.LVL102:
 1899 0856 93E0      		ldi r25,3
 1900 0858 EE0F      	1:	lsl r30
 1901 085a FF1F      		rol r31
 1902 085c 9A95      		dec r25
 1903 085e 01F4      		brne 1b
 1904               	.LVL103:
 1905 0860 E050      		subi r30,lo8(-(display_buffer))
 1906 0862 F040      		sbci r31,hi8(-(display_buffer))
 1907 0864 1897      		sbiw r26,8
 1908               	.LVL104:
 1909 0866 00C0      		rjmp .L124
 1910               	.LVL105:
 1911               	.L121:
 1912               	.LBE292:
 1913               	.LM301:
 1914 0868 8091 0000 		lds r24,display_cnt
 1915 086c E82F      		mov r30,r24
 1916               	.LVL106:
 1917 086e F0E0      		ldi r31,lo8(0)
 1918               	.LVL107:
 1919 0870 83E0      		ldi r24,3
 1920 0872 EE0F      	1:	lsl r30
 1921 0874 FF1F      		rol r31
 1922 0876 8A95      		dec r24
 1923 0878 01F4      		brne 1b
 1924               	.LVL108:
 1925 087a E050      		subi r30,lo8(-(display_buffer))
 1926 087c F040      		sbci r31,hi8(-(display_buffer))
 1927               	.LM302:
 1928 087e 8091 0000 		lds r24,display_cnt
 1929 0882 A82F      		mov r26,r24
 1930               	.LVL109:
 1931 0884 B0E0      		ldi r27,lo8(0)
 1932               	.LVL110:
 1933 0886 13E0      		ldi r17,3
 1934 0888 AA0F      	1:	lsl r26
 1935 088a BB1F      		rol r27
 1936 088c 1A95      		dec r17
 1937 088e 01F4      		brne 1b
 1938               	.LVL111:
 1939 0890 A050      		subi r26,lo8(-(display_buffer+128))
 1940 0892 B040      		sbci r27,hi8(-(display_buffer+128))
 1941               	.L124:
 1942               	.LM303:
 1943 0894 8091 0000 		lds r24,RunParameter+26
 1944 0898 8823      		tst r24
 1945 089a 01F4      		brne .L125
 1946 089c 50E0      		ldi r21,lo8(0)
 1947               	.LVL112:
 1948 089e 00C0      		rjmp .L126
 1949               	.L129:
 1950               	.LM304:
 1951 08a0 9498      		cbi 50-32,4
 1952               	.LM305:
 1953 08a2 9598      		cbi 50-32,5
 1954               	.LM306:
 1955 08a4 D998      		cbi 59-32,1
 1956               	.LM307:
 1957 08a6 DA98      		cbi 59-32,2
 1958               	.LM308:
 1959 08a8 DB98      		cbi 59-32,3
 1960               	.LM309:
 1961 08aa DC98      		cbi 59-32,4
 1962 08ac 422F      		mov r20,r18
 1963               	.LM310:
 1964 08ae CE01      		movw r24,r28
 1965 08b0 022E      		mov r0,r18
 1966 08b2 00C0      		rjmp 2f
 1967 08b4 9595      	1:	asr r25
 1968 08b6 8795      		ror r24
 1969 08b8 0A94      	2:	dec r0
 1970 08ba 02F4      		brpl 1b
 1971 08bc 80FD      		sbrc r24,0
 1972               	.LM311:
 1973 08be 949A      		sbi 50-32,4
 1974               	.L127:
 1975               	.LM312:
 1976 08c0 CB01      		movw r24,r22
 1977 08c2 00C0      		rjmp 2f
 1978 08c4 9595      	1:	asr r25
 1979 08c6 8795      		ror r24
 1980 08c8 4A95      	2:	dec r20
 1981 08ca 02F4      		brpl 1b
 1982 08cc 80FD      		sbrc r24,0
 1983               	.LM313:
 1984 08ce 959A      		sbi 50-32,5
 1985               	.L128:
 1986               	.LM314:
 1987 08d0 9398      		cbi 50-32,3
 1988               	.LM315:
 1989 08d2 939A      		sbi 50-32,3
 1990 08d4 2150      		subi r18,lo8(-(-1))
 1991 08d6 3040      		sbci r19,hi8(-(-1))
 1992               	.LM316:
 1993 08d8 8FEF      		ldi r24,hi8(-1)
 1994 08da 2F3F      		cpi r18,lo8(-1)
 1995 08dc 3807      		cpc r19,r24
 1996 08de 01F4      		brne .L129
 1997               	.LM317:
 1998 08e0 5F5F      		subi r21,lo8(-(1))
 1999 08e2 5830      		cpi r21,lo8(8)
 2000 08e4 01F4      		brne .+2
 2001 08e6 00C0      		rjmp .L130
 2002               	.LM318:
 2003 08e8 3196      		adiw r30,1
 2004               	.LM319:
 2005 08ea 1196      		adiw r26,1
 2006               	.L126:
 2007               	.LM320:
 2008 08ec 8081      		ld r24,Z
 2009 08ee C82F      		mov r28,r24
 2010 08f0 D0E0      		ldi r29,lo8(0)
 2011               	.LM321:
 2012 08f2 8C91      		ld r24,X
 2013 08f4 682F      		mov r22,r24
 2014 08f6 70E0      		ldi r23,lo8(0)
 2015 08f8 27E0      		ldi r18,lo8(7)
 2016 08fa 30E0      		ldi r19,hi8(7)
 2017 08fc 00C0      		rjmp .L129
 2018               	.LVL113:
 2019               	.L125:
 2020               	.LM322:
 2021 08fe 8130      		cpi r24,lo8(1)
 2022 0900 01F4      		brne .L131
 2023 0902 50E0      		ldi r21,lo8(0)
 2024               	.LVL114:
 2025 0904 00C0      		rjmp .L132
 2026               	.L135:
 2027               	.LM323:
 2028 0906 9498      		cbi 50-32,4
 2029               	.LM324:
 2030 0908 9598      		cbi 50-32,5
 2031               	.LM325:
 2032 090a D998      		cbi 59-32,1
 2033               	.LM326:
 2034 090c DA98      		cbi 59-32,2
 2035               	.LM327:
 2036 090e DB98      		cbi 59-32,3
 2037               	.LM328:
 2038 0910 DC98      		cbi 59-32,4
 2039 0912 422F      		mov r20,r18
 2040               	.LM329:
 2041 0914 CE01      		movw r24,r28
 2042 0916 022E      		mov r0,r18
 2043 0918 00C0      		rjmp 2f
 2044 091a 9595      	1:	asr r25
 2045 091c 8795      		ror r24
 2046 091e 0A94      	2:	dec r0
 2047 0920 02F4      		brpl 1b
 2048 0922 80FD      		sbrc r24,0
 2049               	.LM330:
 2050 0924 D99A      		sbi 59-32,1
 2051               	.L133:
 2052               	.LM331:
 2053 0926 CB01      		movw r24,r22
 2054 0928 00C0      		rjmp 2f
 2055 092a 9595      	1:	asr r25
 2056 092c 8795      		ror r24
 2057 092e 4A95      	2:	dec r20
 2058 0930 02F4      		brpl 1b
 2059 0932 80FD      		sbrc r24,0
 2060               	.LM332:
 2061 0934 DA9A      		sbi 59-32,2
 2062               	.L134:
 2063               	.LM333:
 2064 0936 9398      		cbi 50-32,3
 2065               	.LM334:
 2066 0938 939A      		sbi 50-32,3
 2067 093a 2150      		subi r18,lo8(-(-1))
 2068 093c 3040      		sbci r19,hi8(-(-1))
 2069               	.LM335:
 2070 093e 8FEF      		ldi r24,hi8(-1)
 2071 0940 2F3F      		cpi r18,lo8(-1)
 2072 0942 3807      		cpc r19,r24
 2073 0944 01F4      		brne .L135
 2074               	.LM336:
 2075 0946 5F5F      		subi r21,lo8(-(1))
 2076 0948 5830      		cpi r21,lo8(8)
 2077 094a 01F4      		brne .+2
 2078 094c 00C0      		rjmp .L130
 2079               	.LM337:
 2080 094e 3196      		adiw r30,1
 2081               	.LM338:
 2082 0950 1196      		adiw r26,1
 2083               	.L132:
 2084               	.LM339:
 2085 0952 8081      		ld r24,Z
 2086 0954 C82F      		mov r28,r24
 2087 0956 D0E0      		ldi r29,lo8(0)
 2088               	.LM340:
 2089 0958 8C91      		ld r24,X
 2090 095a 682F      		mov r22,r24
 2091 095c 70E0      		ldi r23,lo8(0)
 2092 095e 27E0      		ldi r18,lo8(7)
 2093 0960 30E0      		ldi r19,hi8(7)
 2094 0962 00C0      		rjmp .L135
 2095               	.LVL115:
 2096               	.L131:
 2097               	.LM341:
 2098 0964 8230      		cpi r24,lo8(2)
 2099 0966 01F4      		brne .L136
 2100 0968 50E0      		ldi r21,lo8(0)
 2101               	.LVL116:
 2102 096a 00C0      		rjmp .L137
 2103               	.L140:
 2104               	.LM342:
 2105 096c 9498      		cbi 50-32,4
 2106               	.LM343:
 2107 096e 9598      		cbi 50-32,5
 2108               	.LM344:
 2109 0970 D998      		cbi 59-32,1
 2110               	.LM345:
 2111 0972 DA98      		cbi 59-32,2
 2112 0974 422F      		mov r20,r18
 2113               	.LM346:
 2114 0976 CE01      		movw r24,r28
 2115 0978 022E      		mov r0,r18
 2116 097a 00C0      		rjmp 2f
 2117 097c 9595      	1:	asr r25
 2118 097e 8795      		ror r24
 2119 0980 0A94      	2:	dec r0
 2120 0982 02F4      		brpl 1b
 2121 0984 80FF      		sbrs r24,0
 2122 0986 00C0      		rjmp .L138
 2123               	.LM347:
 2124 0988 949A      		sbi 50-32,4
 2125               	.LM348:
 2126 098a D99A      		sbi 59-32,1
 2127               	.L138:
 2128               	.LM349:
 2129 098c CB01      		movw r24,r22
 2130 098e 00C0      		rjmp 2f
 2131 0990 9595      	1:	asr r25
 2132 0992 8795      		ror r24
 2133 0994 4A95      	2:	dec r20
 2134 0996 02F4      		brpl 1b
 2135 0998 80FF      		sbrs r24,0
 2136 099a 00C0      		rjmp .L139
 2137               	.LM350:
 2138 099c 959A      		sbi 50-32,5
 2139               	.LM351:
 2140 099e DA9A      		sbi 59-32,2
 2141               	.L139:
 2142               	.LM352:
 2143 09a0 9398      		cbi 50-32,3
 2144               	.LM353:
 2145 09a2 939A      		sbi 50-32,3
 2146 09a4 2150      		subi r18,lo8(-(-1))
 2147 09a6 3040      		sbci r19,hi8(-(-1))
 2148               	.LM354:
 2149 09a8 8FEF      		ldi r24,hi8(-1)
 2150 09aa 2F3F      		cpi r18,lo8(-1)
 2151 09ac 3807      		cpc r19,r24
 2152 09ae 01F4      		brne .L140
 2153               	.LM355:
 2154 09b0 5F5F      		subi r21,lo8(-(1))
 2155 09b2 5830      		cpi r21,lo8(8)
 2156 09b4 01F4      		brne .+2
 2157 09b6 00C0      		rjmp .L130
 2158               	.LM356:
 2159 09b8 3196      		adiw r30,1
 2160               	.LM357:
 2161 09ba 1196      		adiw r26,1
 2162               	.L137:
 2163               	.LM358:
 2164 09bc 8081      		ld r24,Z
 2165 09be C82F      		mov r28,r24
 2166 09c0 D0E0      		ldi r29,lo8(0)
 2167               	.LM359:
 2168 09c2 8C91      		ld r24,X
 2169 09c4 682F      		mov r22,r24
 2170 09c6 70E0      		ldi r23,lo8(0)
 2171 09c8 27E0      		ldi r18,lo8(7)
 2172 09ca 30E0      		ldi r19,hi8(7)
 2173 09cc 00C0      		rjmp .L140
 2174               	.LVL117:
 2175               	.L136:
 2176               	.LM360:
 2177 09ce 8330      		cpi r24,lo8(3)
 2178 09d0 01F4      		brne .L141
 2179 09d2 50E0      		ldi r21,lo8(0)
 2180               	.LVL118:
 2181 09d4 00C0      		rjmp .L142
 2182               	.L145:
 2183               	.LM361:
 2184 09d6 9498      		cbi 50-32,4
 2185               	.LM362:
 2186 09d8 9598      		cbi 50-32,5
 2187               	.LM363:
 2188 09da D998      		cbi 59-32,1
 2189               	.LM364:
 2190 09dc DA98      		cbi 59-32,2
 2191               	.LM365:
 2192 09de DB98      		cbi 59-32,3
 2193               	.LM366:
 2194 09e0 DC98      		cbi 59-32,4
 2195 09e2 422F      		mov r20,r18
 2196               	.LM367:
 2197 09e4 CE01      		movw r24,r28
 2198 09e6 022E      		mov r0,r18
 2199 09e8 00C0      		rjmp 2f
 2200 09ea 9595      	1:	asr r25
 2201 09ec 8795      		ror r24
 2202 09ee 0A94      	2:	dec r0
 2203 09f0 02F4      		brpl 1b
 2204 09f2 80FD      		sbrc r24,0
 2205               	.LM368:
 2206 09f4 DB9A      		sbi 59-32,3
 2207               	.L143:
 2208               	.LM369:
 2209 09f6 CB01      		movw r24,r22
 2210 09f8 00C0      		rjmp 2f
 2211 09fa 9595      	1:	asr r25
 2212 09fc 8795      		ror r24
 2213 09fe 4A95      	2:	dec r20
 2214 0a00 02F4      		brpl 1b
 2215 0a02 80FD      		sbrc r24,0
 2216               	.LM370:
 2217 0a04 DC9A      		sbi 59-32,4
 2218               	.L144:
 2219               	.LM371:
 2220 0a06 9398      		cbi 50-32,3
 2221               	.LM372:
 2222 0a08 939A      		sbi 50-32,3
 2223 0a0a 2150      		subi r18,lo8(-(-1))
 2224 0a0c 3040      		sbci r19,hi8(-(-1))
 2225               	.LM373:
 2226 0a0e 8FEF      		ldi r24,hi8(-1)
 2227 0a10 2F3F      		cpi r18,lo8(-1)
 2228 0a12 3807      		cpc r19,r24
 2229 0a14 01F4      		brne .L145
 2230               	.LM374:
 2231 0a16 5F5F      		subi r21,lo8(-(1))
 2232 0a18 5830      		cpi r21,lo8(8)
 2233 0a1a 01F0      		breq .L130
 2234               	.LM375:
 2235 0a1c 3196      		adiw r30,1
 2236               	.LM376:
 2237 0a1e 1196      		adiw r26,1
 2238               	.L142:
 2239               	.LM377:
 2240 0a20 8081      		ld r24,Z
 2241 0a22 C82F      		mov r28,r24
 2242 0a24 D0E0      		ldi r29,lo8(0)
 2243               	.LM378:
 2244 0a26 8C91      		ld r24,X
 2245 0a28 682F      		mov r22,r24
 2246 0a2a 70E0      		ldi r23,lo8(0)
 2247 0a2c 27E0      		ldi r18,lo8(7)
 2248 0a2e 30E0      		ldi r19,hi8(7)
 2249 0a30 00C0      		rjmp .L145
 2250               	.LVL119:
 2251               	.L141:
 2252               	.LM379:
 2253 0a32 8430      		cpi r24,lo8(4)
 2254 0a34 01F4      		brne .L130
 2255 0a36 50E0      		ldi r21,lo8(0)
 2256               	.LVL120:
 2257 0a38 00C0      		rjmp .L146
 2258               	.L149:
 2259               	.LM380:
 2260 0a3a 9498      		cbi 50-32,4
 2261               	.LM381:
 2262 0a3c 9598      		cbi 50-32,5
 2263               	.LM382:
 2264 0a3e D99A      		sbi 59-32,1
 2265               	.LM383:
 2266 0a40 DA9A      		sbi 59-32,2
 2267 0a42 422F      		mov r20,r18
 2268               	.LM384:
 2269 0a44 CE01      		movw r24,r28
 2270 0a46 022E      		mov r0,r18
 2271 0a48 00C0      		rjmp 2f
 2272 0a4a 9595      	1:	asr r25
 2273 0a4c 8795      		ror r24
 2274 0a4e 0A94      	2:	dec r0
 2275 0a50 02F4      		brpl 1b
 2276 0a52 80FD      		sbrc r24,0
 2277               	.LM385:
 2278 0a54 949A      		sbi 50-32,4
 2279               	.L147:
 2280               	.LM386:
 2281 0a56 CB01      		movw r24,r22
 2282 0a58 00C0      		rjmp 2f
 2283 0a5a 9595      	1:	asr r25
 2284 0a5c 8795      		ror r24
 2285 0a5e 4A95      	2:	dec r20
 2286 0a60 02F4      		brpl 1b
 2287 0a62 80FD      		sbrc r24,0
 2288               	.LM387:
 2289 0a64 959A      		sbi 50-32,5
 2290               	.L148:
 2291               	.LM388:
 2292 0a66 9398      		cbi 50-32,3
 2293               	.LM389:
 2294 0a68 939A      		sbi 50-32,3
 2295 0a6a 2150      		subi r18,lo8(-(-1))
 2296 0a6c 3040      		sbci r19,hi8(-(-1))
 2297               	.LM390:
 2298 0a6e 8FEF      		ldi r24,hi8(-1)
 2299 0a70 2F3F      		cpi r18,lo8(-1)
 2300 0a72 3807      		cpc r19,r24
 2301 0a74 01F4      		brne .L149
 2302               	.LM391:
 2303 0a76 5F5F      		subi r21,lo8(-(1))
 2304 0a78 5830      		cpi r21,lo8(8)
 2305 0a7a 01F0      		breq .L130
 2306               	.LM392:
 2307 0a7c 3196      		adiw r30,1
 2308               	.LM393:
 2309 0a7e 1196      		adiw r26,1
 2310               	.L146:
 2311               	.LM394:
 2312 0a80 8081      		ld r24,Z
 2313 0a82 C82F      		mov r28,r24
 2314 0a84 D0E0      		ldi r29,lo8(0)
 2315               	.LM395:
 2316 0a86 8C91      		ld r24,X
 2317 0a88 682F      		mov r22,r24
 2318 0a8a 70E0      		ldi r23,lo8(0)
 2319 0a8c 27E0      		ldi r18,lo8(7)
 2320 0a8e 30E0      		ldi r19,hi8(7)
 2321 0a90 00C0      		rjmp .L149
 2322               	.L130:
 2323               	.LM396:
 2324 0a92 929A      		sbi 50-32,2
 2325               	.LM397:
 2326 0a94 8091 0000 		lds r24,display_cnt
 2327 0a98 8730      		cpi r24,lo8(7)
 2328 0a9a 01F0      		breq .L158
 2329 0a9c 8830      		cpi r24,lo8(8)
 2330 0a9e 00F4      		brsh .L167
 2331 0aa0 8330      		cpi r24,lo8(3)
 2332 0aa2 01F0      		breq .L154
 2333 0aa4 8430      		cpi r24,lo8(4)
 2334 0aa6 00F4      		brsh .L168
 2335 0aa8 8130      		cpi r24,lo8(1)
 2336 0aaa 01F0      		breq .L152
 2337 0aac 8230      		cpi r24,lo8(2)
 2338 0aae 00F4      		brsh .L153
 2339 0ab0 00C0      		rjmp .L198
 2340               	.L168:
 2341 0ab2 8530      		cpi r24,lo8(5)
 2342 0ab4 01F0      		breq .L156
 2343 0ab6 8630      		cpi r24,lo8(6)
 2344 0ab8 00F4      		brsh .L157
 2345 0aba 00C0      		rjmp .L199
 2346               	.L167:
 2347 0abc 8B30      		cpi r24,lo8(11)
 2348 0abe 01F0      		breq .L162
 2349 0ac0 8C30      		cpi r24,lo8(12)
 2350 0ac2 00F4      		brsh .L169
 2351 0ac4 8930      		cpi r24,lo8(9)
 2352 0ac6 01F0      		breq .L160
 2353 0ac8 8A30      		cpi r24,lo8(10)
 2354 0aca 00F4      		brsh .L161
 2355 0acc 00C0      		rjmp .L200
 2356               	.L169:
 2357 0ace 8D30      		cpi r24,lo8(13)
 2358 0ad0 01F0      		breq .L164
 2359 0ad2 8D30      		cpi r24,lo8(13)
 2360 0ad4 00F0      		brlo .L163
 2361 0ad6 8E30      		cpi r24,lo8(14)
 2362 0ad8 01F0      		breq .L165
 2363 0ada 8F30      		cpi r24,lo8(15)
 2364 0adc 01F4      		brne .L182
 2365 0ade 00C0      		rjmp .L201
 2366               	.L198:
 2367               	.LM398:
 2368 0ae0 C498      		cbi 56-32,4
 2369 0ae2 00C0      		rjmp .L188
 2370               	.L152:
 2371               	.LM399:
 2372 0ae4 C498      		cbi 56-32,4
 2373 0ae6 00C0      		rjmp .L194
 2374               	.L153:
 2375               	.LM400:
 2376 0ae8 C498      		cbi 56-32,4
 2377               	.L193:
 2378 0aea C298      		cbi 56-32,2
 2379               	.L187:
 2380 0aec C19A      		sbi 56-32,1
 2381               	.L184:
 2382 0aee C098      		cbi 56-32,0
 2383 0af0 00C0      		rjmp .L170
 2384               	.L154:
 2385               	.LM401:
 2386 0af2 C498      		cbi 56-32,4
 2387 0af4 00C0      		rjmp .L196
 2388               	.L199:
 2389               	.LM402:
 2390 0af6 C498      		cbi 56-32,4
 2391 0af8 00C0      		rjmp .L189
 2392               	.L156:
 2393               	.LM403:
 2394 0afa C498      		cbi 56-32,4
 2395 0afc 00C0      		rjmp .L195
 2396               	.L157:
 2397               	.LM404:
 2398 0afe C498      		cbi 56-32,4
 2399 0b00 00C0      		rjmp .L192
 2400               	.L158:
 2401               	.LM405:
 2402 0b02 C498      		cbi 56-32,4
 2403 0b04 00C0      		rjmp .L197
 2404               	.L200:
 2405               	.LM406:
 2406 0b06 C49A      		sbi 56-32,4
 2407               	.L188:
 2408 0b08 C298      		cbi 56-32,2
 2409 0b0a 00C0      		rjmp .L186
 2410               	.L160:
 2411               	.LM407:
 2412 0b0c C49A      		sbi 56-32,4
 2413               	.L194:
 2414 0b0e C298      		cbi 56-32,2
 2415 0b10 00C0      		rjmp .L190
 2416               	.L161:
 2417               	.LM408:
 2418 0b12 C49A      		sbi 56-32,4
 2419 0b14 00C0      		rjmp .L193
 2420               	.L162:
 2421               	.LM409:
 2422 0b16 C49A      		sbi 56-32,4
 2423               	.L196:
 2424 0b18 C298      		cbi 56-32,2
 2425 0b1a 00C0      		rjmp .L191
 2426               	.L163:
 2427               	.LM410:
 2428 0b1c C49A      		sbi 56-32,4
 2429               	.L189:
 2430 0b1e C29A      		sbi 56-32,2
 2431               	.L186:
 2432 0b20 C198      		cbi 56-32,1
 2433 0b22 00C0      		rjmp .L184
 2434               	.L164:
 2435               	.LM411:
 2436 0b24 C49A      		sbi 56-32,4
 2437               	.L195:
 2438 0b26 C29A      		sbi 56-32,2
 2439               	.L190:
 2440 0b28 C198      		cbi 56-32,1
 2441 0b2a 00C0      		rjmp .L185
 2442               	.L165:
 2443               	.LM412:
 2444 0b2c C49A      		sbi 56-32,4
 2445               	.L192:
 2446 0b2e C29A      		sbi 56-32,2
 2447 0b30 00C0      		rjmp .L187
 2448               	.L201:
 2449               	.LM413:
 2450 0b32 C49A      		sbi 56-32,4
 2451               	.L197:
 2452 0b34 C29A      		sbi 56-32,2
 2453               	.L191:
 2454 0b36 C19A      		sbi 56-32,1
 2455               	.L185:
 2456 0b38 C09A      		sbi 56-32,0
 2457 0b3a 00C0      		rjmp .L170
 2458               	.L182:
 2459               	.LM414:
 2460 0b3c 1092 0000 		sts display_cnt,__zero_reg__
 2461               	.L170:
 2462               	.LM415:
 2463 0b40 8091 0000 		lds r24,display_cnt
 2464 0b44 8F5F      		subi r24,lo8(-(1))
 2465 0b46 8093 0000 		sts display_cnt,r24
 2466               	.LM416:
 2467 0b4a 8091 0000 		lds r24,display_cnt
 2468 0b4e 8031      		cpi r24,lo8(16)
 2469 0b50 01F4      		brne .L172
 2470 0b52 1092 0000 		sts display_cnt,__zero_reg__
 2471               	.L172:
 2472               	/* epilogue start */
 2473               	.LM417:
 2474 0b56 DF91      		pop r29
 2475 0b58 CF91      		pop r28
 2476 0b5a 1F91      		pop r17
 2477 0b5c 0895      		ret
 2478               	.LFE45:
 2480               	.global	twi_init
 2482               	twi_init:
 2483               	.LFB47:
 2484               	.LM418:
 2485               	/* prologue: function */
 2486               	/* frame size = 0 */
 2487               	.LM419:
 2488 0b5e 16BE      		out 86-32,__zero_reg__
 2489               	.LM420:
 2490 0b60 84E6      		ldi r24,lo8(100)
 2491 0b62 80B9      		out 32-32,r24
 2492               	.LM421:
 2493 0b64 11B8      		out 33-32,__zero_reg__
 2494               	.LM422:
 2495 0b66 12B8      		out 34-32,__zero_reg__
 2496               	.LM423:
 2497 0b68 84E0      		ldi r24,lo8(4)
 2498 0b6a 86BF      		out 86-32,r24
 2499               	/* epilogue start */
 2500               	.LM424:
 2501 0b6c 0895      		ret
 2502               	.LFE47:
 2504               	.global	i2cstart
 2506               	i2cstart:
 2507               	.LFB48:
 2508               	.LM425:
 2509               	/* prologue: function */
 2510               	/* frame size = 0 */
 2511               	.LM426:
 2512 0b6e 84EA      		ldi r24,lo8(-92)
 2513 0b70 86BF      		out 86-32,r24
 2514               	.L205:
 2515               	.LM427:
 2516 0b72 06B6      		in __tmp_reg__,86-32
 2517 0b74 07FE      		sbrs __tmp_reg__,7
 2518 0b76 00C0      		rjmp .L205
 2519               	/* epilogue start */
 2520               	.LM428:
 2521 0b78 0895      		ret
 2522               	.LFE48:
 2524               	.global	i2cwt
 2526               	i2cwt:
 2527               	.LFB49:
 2528               	.LM429:
 2529               	.LVL121:
 2530               	/* prologue: function */
 2531               	/* frame size = 0 */
 2532               	.LM430:
 2533 0b7a 83B9      		out 35-32,r24
 2534               	.LM431:
 2535 0b7c 84E8      		ldi r24,lo8(-124)
 2536               	.LVL122:
 2537 0b7e 86BF      		out 86-32,r24
 2538               	.L209:
 2539               	.LM432:
 2540 0b80 06B6      		in __tmp_reg__,86-32
 2541 0b82 07FE      		sbrs __tmp_reg__,7
 2542 0b84 00C0      		rjmp .L209
 2543               	.LM433:
 2544               	/* #APP */
 2545               	 ;  36 "_TWI.h" 1
 2546 0b86 0000      		nop
 2547               	 ;  0 "" 2
 2548               	.LM434:
 2549               	/* #NOAPP */
 2550 0b88 81B1      		in r24,33-32
 2551               	.LM435:
 2552 0b8a 887F      		andi r24,lo8(-8)
 2553               	/* epilogue start */
 2554 0b8c 0895      		ret
 2555               	.LFE49:
 2557               	.global	i2crd
 2559               	i2crd:
 2560               	.LFB50:
 2561               	.LM436:
 2562               	/* prologue: function */
 2563               	/* frame size = 0 */
 2564               	.LM437:
 2565 0b8e 84EC      		ldi r24,lo8(-60)
 2566 0b90 86BF      		out 86-32,r24
 2567               	.L213:
 2568               	.LM438:
 2569 0b92 06B6      		in __tmp_reg__,86-32
 2570 0b94 07FE      		sbrs __tmp_reg__,7
 2571 0b96 00C0      		rjmp .L213
 2572               	.LM439:
 2573 0b98 83B1      		in r24,35-32
 2574               	/* epilogue start */
 2575               	.LM440:
 2576 0b9a 0895      		ret
 2577               	.LFE50:
 2579               	.global	i2cstop
 2581               	i2cstop:
 2582               	.LFB51:
 2583               	.LM441:
 2584               	/* prologue: function */
 2585               	/* frame size = 0 */
 2586               	.LM442:
 2587 0b9c 84E9      		ldi r24,lo8(-108)
 2588 0b9e 86BF      		out 86-32,r24
 2589               	/* epilogue start */
 2590               	.LM443:
 2591 0ba0 0895      		ret
 2592               	.LFE51:
 2594               	.global	clear
 2596               	clear:
 2597               	.LFB52:
 2598               	.LM444:
 2599               	.LVL123:
 2600               	/* prologue: function */
 2601               	/* frame size = 0 */
 2602 0ba2 FC01      		movw r30,r24
 2603 0ba4 00C0      		rjmp .L219
 2604               	.LVL124:
 2605               	.L220:
 2606               	.LM445:
 2607 0ba6 1192      		st Z+,__zero_reg__
 2608               	.LM446:
 2609 0ba8 6150      		subi r22,lo8(-(-1))
 2610               	.LVL125:
 2611               	.L219:
 2612 0baa 6623      		tst r22
 2613 0bac 01F4      		brne .L220
 2614               	/* epilogue start */
 2615               	.LM447:
 2616 0bae 0895      		ret
 2617               	.LFE52:
 2619               	.global	PCF8536_wt
 2621               	PCF8536_wt:
 2622               	.LFB53:
 2623               	.LM448:
 2624               	.LVL126:
 2625               	/* prologue: function */
 2626               	/* frame size = 0 */
 2627 0bb0 282F      		mov r18,r24
 2628               	.LBB293:
 2629               	.LBB294:
 2630               	.LM449:
 2631 0bb2 84EA      		ldi r24,lo8(-92)
 2632               	.LVL127:
 2633 0bb4 86BF      		out 86-32,r24
 2634               	.L223:
 2635               	.LM450:
 2636 0bb6 06B6      		in __tmp_reg__,86-32
 2637 0bb8 07FE      		sbrs __tmp_reg__,7
 2638 0bba 00C0      		rjmp .L223
 2639               	.LBE294:
 2640               	.LBE293:
 2641               	.LM451:
 2642 0bbc 990F      		lsl r25
 2643               	.LVL128:
 2644 0bbe 9E55      		subi r25,lo8(-(-94))
 2645               	.LBB295:
 2646               	.LBB296:
 2647               	.LM452:
 2648 0bc0 93B9      		out 35-32,r25
 2649               	.LM453:
 2650 0bc2 84E8      		ldi r24,lo8(-124)
 2651 0bc4 86BF      		out 86-32,r24
 2652               	.L224:
 2653               	.LM454:
 2654 0bc6 06B6      		in __tmp_reg__,86-32
 2655 0bc8 07FE      		sbrs __tmp_reg__,7
 2656 0bca 00C0      		rjmp .L224
 2657               	.LM455:
 2658               	/* #APP */
 2659               	 ;  36 "_TWI.h" 1
 2660 0bcc 0000      		nop
 2661               	 ;  0 "" 2
 2662               	.LM456:
 2663               	/* #NOAPP */
 2664 0bce 81B1      		in r24,33-32
 2665               	.LBE296:
 2666               	.LBE295:
 2667               	.LM457:
 2668 0bd0 887F      		andi r24,lo8(-8)
 2669 0bd2 8831      		cpi r24,lo8(24)
 2670 0bd4 01F4      		brne .L225
 2671               	.LBB297:
 2672               	.LBB298:
 2673               	.LM458:
 2674 0bd6 23B9      		out 35-32,r18
 2675               	.LM459:
 2676 0bd8 84E8      		ldi r24,lo8(-124)
 2677 0bda 86BF      		out 86-32,r24
 2678               	.L226:
 2679               	.LM460:
 2680 0bdc 06B6      		in __tmp_reg__,86-32
 2681 0bde 07FE      		sbrs __tmp_reg__,7
 2682 0be0 00C0      		rjmp .L226
 2683               	.LM461:
 2684               	/* #APP */
 2685               	 ;  36 "_TWI.h" 1
 2686 0be2 0000      		nop
 2687               	 ;  0 "" 2
 2688               	.LM462:
 2689               	/* #NOAPP */
 2690 0be4 81B1      		in r24,33-32
 2691               	.LBE298:
 2692               	.LBE297:
 2693               	.LBB299:
 2694               	.LBB300:
 2695               	.LM463:
 2696 0be6 63B9      		out 35-32,r22
 2697               	.LM464:
 2698 0be8 84E8      		ldi r24,lo8(-124)
 2699 0bea 86BF      		out 86-32,r24
 2700               	.L227:
 2701               	.LM465:
 2702 0bec 06B6      		in __tmp_reg__,86-32
 2703 0bee 07FE      		sbrs __tmp_reg__,7
 2704 0bf0 00C0      		rjmp .L227
 2705               	.LM466:
 2706               	/* #APP */
 2707               	 ;  36 "_TWI.h" 1
 2708 0bf2 0000      		nop
 2709               	 ;  0 "" 2
 2710               	.LM467:
 2711               	/* #NOAPP */
 2712 0bf4 81B1      		in r24,33-32
 2713 0bf6 00C0      		rjmp .L228
 2714               	.L225:
 2715               	.LBE300:
 2716               	.LBE299:
 2717               	.LM468:
 2718 0bf8 81E0      		ldi r24,lo8(1)
 2719 0bfa 8093 0000 		sts syserr,r24
 2720               	.L228:
 2721               	.LBB301:
 2722               	.LBB302:
 2723               	.LM469:
 2724 0bfe 84E9      		ldi r24,lo8(-108)
 2725 0c00 86BF      		out 86-32,r24
 2726               	/* epilogue start */
 2727               	.LBE302:
 2728               	.LBE301:
 2729               	.LM470:
 2730 0c02 0895      		ret
 2731               	.LFE53:
 2733               	.global	PCF8536_wt_p
 2735               	PCF8536_wt_p:
 2736               	.LFB54:
 2737               	.LM471:
 2738               	.LVL129:
 2739               	/* prologue: function */
 2740               	/* frame size = 0 */
 2741 0c04 282F      		mov r18,r24
 2742 0c06 FB01      		movw r30,r22
 2743               	.LBB303:
 2744               	.LBB304:
 2745               	.LM472:
 2746 0c08 84EA      		ldi r24,lo8(-92)
 2747               	.LVL130:
 2748 0c0a 86BF      		out 86-32,r24
 2749               	.LVL131:
 2750               	.L235:
 2751               	.LM473:
 2752 0c0c 06B6      		in __tmp_reg__,86-32
 2753 0c0e 07FE      		sbrs __tmp_reg__,7
 2754 0c10 00C0      		rjmp .L235
 2755               	.LBE304:
 2756               	.LBE303:
 2757               	.LM474:
 2758 0c12 990F      		lsl r25
 2759               	.LVL132:
 2760 0c14 9E55      		subi r25,lo8(-(-94))
 2761               	.LBB305:
 2762               	.LBB306:
 2763               	.LM475:
 2764 0c16 93B9      		out 35-32,r25
 2765               	.LM476:
 2766 0c18 84E8      		ldi r24,lo8(-124)
 2767 0c1a 86BF      		out 86-32,r24
 2768               	.L236:
 2769               	.LM477:
 2770 0c1c 06B6      		in __tmp_reg__,86-32
 2771 0c1e 07FE      		sbrs __tmp_reg__,7
 2772 0c20 00C0      		rjmp .L236
 2773               	.LM478:
 2774               	/* #APP */
 2775               	 ;  36 "_TWI.h" 1
 2776 0c22 0000      		nop
 2777               	 ;  0 "" 2
 2778               	.LM479:
 2779               	/* #NOAPP */
 2780 0c24 81B1      		in r24,33-32
 2781               	.LBE306:
 2782               	.LBE305:
 2783               	.LM480:
 2784 0c26 887F      		andi r24,lo8(-8)
 2785 0c28 8831      		cpi r24,lo8(24)
 2786 0c2a 01F4      		brne .L237
 2787               	.LBB307:
 2788               	.LBB308:
 2789               	.LM481:
 2790 0c2c 23B9      		out 35-32,r18
 2791               	.LM482:
 2792 0c2e 84E8      		ldi r24,lo8(-124)
 2793 0c30 86BF      		out 86-32,r24
 2794               	.L238:
 2795               	.LM483:
 2796 0c32 06B6      		in __tmp_reg__,86-32
 2797 0c34 07FE      		sbrs __tmp_reg__,7
 2798 0c36 00C0      		rjmp .L238
 2799               	.LM484:
 2800               	/* #APP */
 2801               	 ;  36 "_TWI.h" 1
 2802 0c38 0000      		nop
 2803               	 ;  0 "" 2
 2804               	.LM485:
 2805               	/* #NOAPP */
 2806 0c3a 81B1      		in r24,33-32
 2807               	.LBE308:
 2808               	.LBE307:
 2809               	.LBB309:
 2810               	.LBB310:
 2811               	.LM486:
 2812 0c3c 94E8      		ldi r25,lo8(-124)
 2813               	.LVL133:
 2814 0c3e 00C0      		rjmp .L239
 2815               	.L241:
 2816               	.LBE310:
 2817               	.LBE309:
 2818               	.LM487:
 2819 0c40 8081      		ld r24,Z
 2820               	.LBB312:
 2821               	.LBB311:
 2822               	.LM488:
 2823 0c42 83B9      		out 35-32,r24
 2824               	.LM489:
 2825 0c44 96BF      		out 86-32,r25
 2826               	.L240:
 2827               	.LM490:
 2828 0c46 06B6      		in __tmp_reg__,86-32
 2829 0c48 07FE      		sbrs __tmp_reg__,7
 2830 0c4a 00C0      		rjmp .L240
 2831               	.LM491:
 2832               	/* #APP */
 2833               	 ;  36 "_TWI.h" 1
 2834 0c4c 0000      		nop
 2835               	 ;  0 "" 2
 2836               	.LM492:
 2837               	/* #NOAPP */
 2838 0c4e 81B1      		in r24,33-32
 2839               	.LBE311:
 2840               	.LBE312:
 2841               	.LM493:
 2842 0c50 3196      		adiw r30,1
 2843               	.LM494:
 2844               	/* #APP */
 2845               	 ;  68 "_PCF8563.h" 1
 2846 0c52 0000      		nop
 2847               	 ;  0 "" 2
 2848               	.LM495:
 2849               	/* #NOAPP */
 2850 0c54 4150      		subi r20,lo8(-(-1))
 2851               	.LVL134:
 2852               	.L239:
 2853 0c56 4423      		tst r20
 2854 0c58 01F4      		brne .L241
 2855 0c5a 00C0      		rjmp .L242
 2856               	.LVL135:
 2857               	.L237:
 2858               	.LM496:
 2859 0c5c 81E0      		ldi r24,lo8(1)
 2860 0c5e 8093 0000 		sts syserr,r24
 2861               	.L242:
 2862               	.LBB313:
 2863               	.LBB314:
 2864               	.LM497:
 2865 0c62 84E9      		ldi r24,lo8(-108)
 2866 0c64 86BF      		out 86-32,r24
 2867               	/* epilogue start */
 2868               	.LBE314:
 2869               	.LBE313:
 2870               	.LM498:
 2871 0c66 0895      		ret
 2872               	.LFE54:
 2874               	.global	PCF8536_rd
 2876               	PCF8536_rd:
 2877               	.LFB55:
 2878               	.LM499:
 2879               	.LVL136:
 2880               	/* prologue: function */
 2881               	/* frame size = 0 */
 2882 0c68 282F      		mov r18,r24
 2883 0c6a FB01      		movw r30,r22
 2884               	.LM500:
 2885 0c6c 990F      		lsl r25
 2886               	.LVL137:
 2887               	.LBB315:
 2888               	.LBB316:
 2889               	.LM501:
 2890 0c6e 84EA      		ldi r24,lo8(-92)
 2891               	.LVL138:
 2892 0c70 86BF      		out 86-32,r24
 2893               	.LVL139:
 2894               	.L249:
 2895               	.LM502:
 2896 0c72 06B6      		in __tmp_reg__,86-32
 2897 0c74 07FE      		sbrs __tmp_reg__,7
 2898 0c76 00C0      		rjmp .L249
 2899               	.LBE316:
 2900               	.LBE315:
 2901               	.LM503:
 2902 0c78 9E55      		subi r25,lo8(-(-94))
 2903               	.LBB317:
 2904               	.LBB318:
 2905               	.LM504:
 2906 0c7a 93B9      		out 35-32,r25
 2907 0c7c 925A      		subi r25,lo8(-(94))
 2908               	.LM505:
 2909 0c7e 84E8      		ldi r24,lo8(-124)
 2910 0c80 86BF      		out 86-32,r24
 2911               	.L250:
 2912               	.LM506:
 2913 0c82 06B6      		in __tmp_reg__,86-32
 2914 0c84 07FE      		sbrs __tmp_reg__,7
 2915 0c86 00C0      		rjmp .L250
 2916               	.LM507:
 2917               	/* #APP */
 2918               	 ;  36 "_TWI.h" 1
 2919 0c88 0000      		nop
 2920               	 ;  0 "" 2
 2921               	.LM508:
 2922               	/* #NOAPP */
 2923 0c8a 81B1      		in r24,33-32
 2924               	.LBE318:
 2925               	.LBE317:
 2926               	.LM509:
 2927 0c8c 887F      		andi r24,lo8(-8)
 2928 0c8e 8831      		cpi r24,lo8(24)
 2929 0c90 01F4      		brne .L251
 2930               	.LBB319:
 2931               	.LBB320:
 2932               	.LM510:
 2933 0c92 23B9      		out 35-32,r18
 2934               	.LM511:
 2935 0c94 84E8      		ldi r24,lo8(-124)
 2936 0c96 86BF      		out 86-32,r24
 2937               	.L252:
 2938               	.LM512:
 2939 0c98 06B6      		in __tmp_reg__,86-32
 2940 0c9a 07FE      		sbrs __tmp_reg__,7
 2941 0c9c 00C0      		rjmp .L252
 2942               	.LM513:
 2943               	/* #APP */
 2944               	 ;  36 "_TWI.h" 1
 2945 0c9e 0000      		nop
 2946               	 ;  0 "" 2
 2947               	.LM514:
 2948               	/* #NOAPP */
 2949 0ca0 81B1      		in r24,33-32
 2950 0ca2 00C0      		rjmp .L253
 2951               	.L251:
 2952               	.LBE320:
 2953               	.LBE319:
 2954               	.LM515:
 2955 0ca4 81E0      		ldi r24,lo8(1)
 2956 0ca6 8093 0000 		sts syserr,r24
 2957               	.L253:
 2958               	.LBB321:
 2959               	.LBB322:
 2960               	.LM516:
 2961 0caa 84EA      		ldi r24,lo8(-92)
 2962 0cac 86BF      		out 86-32,r24
 2963               	.L254:
 2964               	.LM517:
 2965 0cae 06B6      		in __tmp_reg__,86-32
 2966 0cb0 07FE      		sbrs __tmp_reg__,7
 2967 0cb2 00C0      		rjmp .L254
 2968               	.LBE322:
 2969               	.LBE321:
 2970               	.LM518:
 2971 0cb4 9D55      		subi r25,lo8(-(-93))
 2972               	.LBB323:
 2973               	.LBB324:
 2974               	.LM519:
 2975 0cb6 93B9      		out 35-32,r25
 2976               	.LM520:
 2977 0cb8 84E8      		ldi r24,lo8(-124)
 2978 0cba 86BF      		out 86-32,r24
 2979               	.L255:
 2980               	.LM521:
 2981 0cbc 06B6      		in __tmp_reg__,86-32
 2982 0cbe 07FE      		sbrs __tmp_reg__,7
 2983 0cc0 00C0      		rjmp .L255
 2984               	.LM522:
 2985               	/* #APP */
 2986               	 ;  36 "_TWI.h" 1
 2987 0cc2 0000      		nop
 2988               	 ;  0 "" 2
 2989               	.LM523:
 2990               	/* #NOAPP */
 2991 0cc4 81B1      		in r24,33-32
 2992               	.LBE324:
 2993               	.LBE323:
 2994               	.LM524:
 2995 0cc6 887F      		andi r24,lo8(-8)
 2996 0cc8 8831      		cpi r24,lo8(24)
 2997 0cca 01F4      		brne .L256
 2998               	.LBB325:
 2999               	.LBB326:
 3000               	.LM525:
 3001 0ccc 23B9      		out 35-32,r18
 3002               	.LM526:
 3003 0cce 84E8      		ldi r24,lo8(-124)
 3004 0cd0 86BF      		out 86-32,r24
 3005               	.L257:
 3006               	.LM527:
 3007 0cd2 06B6      		in __tmp_reg__,86-32
 3008 0cd4 07FE      		sbrs __tmp_reg__,7
 3009 0cd6 00C0      		rjmp .L257
 3010               	.LM528:
 3011               	/* #APP */
 3012               	 ;  36 "_TWI.h" 1
 3013 0cd8 0000      		nop
 3014               	 ;  0 "" 2
 3015               	.LM529:
 3016               	/* #NOAPP */
 3017 0cda 81B1      		in r24,33-32
 3018 0cdc 00C0      		rjmp .L258
 3019               	.L256:
 3020               	.LBE326:
 3021               	.LBE325:
 3022               	.LM530:
 3023 0cde 81E0      		ldi r24,lo8(1)
 3024 0ce0 8093 0000 		sts syserr,r24
 3025 0ce4 00C0      		rjmp .L258
 3026               	.LVL140:
 3027               	.L260:
 3028               	.LBB327:
 3029               	.LBB328:
 3030               	.LM531:
 3031 0ce6 96BF      		out 86-32,r25
 3032               	.L259:
 3033               	.LM532:
 3034 0ce8 06B6      		in __tmp_reg__,86-32
 3035 0cea 07FE      		sbrs __tmp_reg__,7
 3036 0cec 00C0      		rjmp .L259
 3037               	.LM533:
 3038 0cee 83B1      		in r24,35-32
 3039               	.LBE328:
 3040               	.LBE327:
 3041               	.LM534:
 3042 0cf0 8193      		st Z+,r24
 3043               	.LM535:
 3044 0cf2 4150      		subi r20,lo8(-(-1))
 3045               	.LVL141:
 3046 0cf4 00C0      		rjmp .L269
 3047               	.LVL142:
 3048               	.L258:
 3049               	.LBB330:
 3050               	.LBB329:
 3051               	.LM536:
 3052 0cf6 94EC      		ldi r25,lo8(-60)
 3053               	.LVL143:
 3054               	.L269:
 3055               	.LBE329:
 3056               	.LBE330:
 3057               	.LM537:
 3058 0cf8 4423      		tst r20
 3059 0cfa 01F4      		brne .L260
 3060               	/* epilogue start */
 3061               	.LM538:
 3062 0cfc 0895      		ret
 3063               	.LFE55:
 3065               	.global	PCF8563_init
 3067               	PCF8563_init:
 3068               	.LFB56:
 3069               	.LM539:
 3070               	/* prologue: function */
 3071               	/* frame size = 0 */
 3072               	.LM540:
 3073 0cfe E0E0      		ldi r30,lo8(write_buff)
 3074 0d00 F0E0      		ldi r31,hi8(write_buff)
 3075               	.LVL144:
 3076               	.L271:
 3077               	.LBB331:
 3078               	.LBB332:
 3079               	.LM541:
 3080 0d02 1192      		st Z+,__zero_reg__
 3081               	.LM542:
 3082 0d04 80E0      		ldi r24,hi8(write_buff+8)
 3083 0d06 E030      		cpi r30,lo8(write_buff+8)
 3084 0d08 F807      		cpc r31,r24
 3085 0d0a 01F4      		brne .L271
 3086 0d0c E0E0      		ldi r30,lo8(read_buff)
 3087 0d0e F0E0      		ldi r31,hi8(read_buff)
 3088               	.LVL145:
 3089               	.L272:
 3090               	.LBE332:
 3091               	.LBE331:
 3092               	.LBB333:
 3093               	.LBB334:
 3094               	.LM543:
 3095 0d10 1192      		st Z+,__zero_reg__
 3096               	.LM544:
 3097 0d12 80E0      		ldi r24,hi8(read_buff+8)
 3098 0d14 E030      		cpi r30,lo8(read_buff+8)
 3099 0d16 F807      		cpc r31,r24
 3100 0d18 01F4      		brne .L272
 3101               	.LBE334:
 3102               	.LBE333:
 3103               	.LM545:
 3104 0d1a 80E0      		ldi r24,lo8(0)
 3105 0d1c 90E0      		ldi r25,hi8(0)
 3106 0d1e 60E2      		ldi r22,lo8(32)
 3107 0d20 0E94 0000 		call PCF8536_wt
 3108               	.LVL146:
 3109               	.LM546:
 3110 0d24 80E0      		ldi r24,lo8(0)
 3111 0d26 90E0      		ldi r25,hi8(0)
 3112 0d28 60E0      		ldi r22,lo8(0)
 3113 0d2a 0E94 0000 		call PCF8536_wt
 3114               	/* epilogue start */
 3115               	.LM547:
 3116 0d2e 0895      		ret
 3117               	.LFE56:
 3119               	.global	Updata_time
 3121               	Updata_time:
 3122               	.LFB57:
 3123               	.LM548:
 3124               	/* prologue: function */
 3125               	/* frame size = 0 */
 3126               	.LM549:
 3127 0d30 82E0      		ldi r24,lo8(2)
 3128 0d32 90E0      		ldi r25,hi8(2)
 3129 0d34 60E0      		ldi r22,lo8(time)
 3130 0d36 70E0      		ldi r23,hi8(time)
 3131 0d38 47E0      		ldi r20,lo8(7)
 3132 0d3a 0E94 0000 		call PCF8536_rd
 3133               	.LM550:
 3134 0d3e 8091 0000 		lds r24,time
 3135 0d42 982F      		mov r25,r24
 3136 0d44 9F77      		andi r25,lo8(127)
 3137 0d46 9093 0000 		sts time,r25
 3138               	.LM551:
 3139 0d4a 2091 0000 		lds r18,time+1
 3140 0d4e 422F      		mov r20,r18
 3141 0d50 4F77      		andi r20,lo8(127)
 3142 0d52 4093 0000 		sts time+1,r20
 3143               	.LM552:
 3144 0d56 5091 0000 		lds r21,time+2
 3145 0d5a 752F      		mov r23,r21
 3146 0d5c 7F73      		andi r23,lo8(63)
 3147 0d5e 7093 0000 		sts time+2,r23
 3148               	.LM553:
 3149 0d62 E091 0000 		lds r30,time+3
 3150 0d66 AE2F      		mov r26,r30
 3151 0d68 AF73      		andi r26,lo8(63)
 3152 0d6a A093 0000 		sts time+3,r26
 3153               	.LM554:
 3154 0d6e F091 0000 		lds r31,time+4
 3155 0d72 F770      		andi r31,lo8(7)
 3156 0d74 F093 0000 		sts time+4,r31
 3157               	.LM555:
 3158 0d78 3091 0000 		lds r19,time+5
 3159 0d7c 632F      		mov r22,r19
 3160 0d7e 6F71      		andi r22,lo8(31)
 3161 0d80 6093 0000 		sts time+5,r22
 3162               	.LM556:
 3163 0d84 8F70      		andi r24,lo8(15)
 3164 0d86 8093 0000 		sts RunParameter+13,r24
 3165               	.LM557:
 3166 0d8a 9295      		swap r25
 3167 0d8c 9F70      		andi r25,lo8(15)
 3168 0d8e 9093 0000 		sts RunParameter+12,r25
 3169               	.LM558:
 3170 0d92 2F70      		andi r18,lo8(15)
 3171 0d94 2093 0000 		sts RunParameter+11,r18
 3172               	.LM559:
 3173 0d98 4295      		swap r20
 3174 0d9a 4F70      		andi r20,lo8(15)
 3175 0d9c 4093 0000 		sts RunParameter+10,r20
 3176               	.LM560:
 3177 0da0 5F70      		andi r21,lo8(15)
 3178 0da2 5093 0000 		sts RunParameter+9,r21
 3179               	.LM561:
 3180 0da6 7295      		swap r23
 3181 0da8 7F70      		andi r23,lo8(15)
 3182 0daa 7093 0000 		sts RunParameter+8,r23
 3183               	.LM562:
 3184 0dae EF70      		andi r30,lo8(15)
 3185 0db0 E093 0000 		sts RunParameter+7,r30
 3186               	.LM563:
 3187 0db4 A295      		swap r26
 3188 0db6 AF70      		andi r26,lo8(15)
 3189 0db8 A093 0000 		sts RunParameter+6,r26
 3190               	.LM564:
 3191 0dbc 3F70      		andi r19,lo8(15)
 3192 0dbe 3093 0000 		sts RunParameter+5,r19
 3193               	.LM565:
 3194 0dc2 6295      		swap r22
 3195 0dc4 6F70      		andi r22,lo8(15)
 3196 0dc6 6093 0000 		sts RunParameter+4,r22
 3197               	.LM566:
 3198 0dca 8091 0000 		lds r24,time+6
 3199 0dce 982F      		mov r25,r24
 3200 0dd0 9F70      		andi r25,lo8(15)
 3201 0dd2 9093 0000 		sts RunParameter+3,r25
 3202               	.LM567:
 3203 0dd6 8295      		swap r24
 3204 0dd8 8F70      		andi r24,lo8(15)
 3205 0dda 8093 0000 		sts RunParameter+2,r24
 3206               	.LM568:
 3207 0dde FF5F      		subi r31,lo8(-(1))
 3208 0de0 F093 0000 		sts RunParameter+14,r31
 3209               	/* epilogue start */
 3210               	.LM569:
 3211 0de4 0895      		ret
 3212               	.LFE57:
 3214               	.global	Write_time
 3216               	Write_time:
 3217               	.LFB58:
 3218               	.LM570:
 3219 0de6 DF93      		push r29
 3220 0de8 CF93      		push r28
 3221 0dea CDB7      		in r28,__SP_L__
 3222 0dec DEB7      		in r29,__SP_H__
 3223 0dee 2797      		sbiw r28,7
 3224 0df0 0FB6      		in __tmp_reg__,__SREG__
 3225 0df2 F894      		cli
 3226 0df4 DEBF      		out __SP_H__,r29
 3227 0df6 0FBE      		out __SREG__,__tmp_reg__
 3228 0df8 CDBF      		out __SP_L__,r28
 3229               	/* prologue: function */
 3230               	/* frame size = 7 */
 3231               	.LM571:
 3232 0dfa 6091 0000 		lds r22,RunParameter+10
 3233 0dfe 6295      		swap r22
 3234 0e00 607F      		andi r22,lo8(-16)
 3235 0e02 8091 0000 		lds r24,RunParameter+11
 3236 0e06 682B      		or r22,r24
 3237 0e08 5091 0000 		lds r21,RunParameter+8
 3238 0e0c 5295      		swap r21
 3239 0e0e 507F      		andi r21,lo8(-16)
 3240 0e10 8091 0000 		lds r24,RunParameter+9
 3241 0e14 582B      		or r21,r24
 3242 0e16 4091 0000 		lds r20,RunParameter+6
 3243 0e1a 4295      		swap r20
 3244 0e1c 407F      		andi r20,lo8(-16)
 3245 0e1e 8091 0000 		lds r24,RunParameter+7
 3246 0e22 482B      		or r20,r24
 3247 0e24 7091 0000 		lds r23,RunParameter+14
 3248 0e28 7150      		subi r23,lo8(-(-1))
 3249 0e2a 3091 0000 		lds r19,RunParameter+4
 3250 0e2e 3295      		swap r19
 3251 0e30 307F      		andi r19,lo8(-16)
 3252 0e32 8091 0000 		lds r24,RunParameter+5
 3253 0e36 382B      		or r19,r24
 3254 0e38 2091 0000 		lds r18,RunParameter+2
 3255 0e3c 2295      		swap r18
 3256 0e3e 207F      		andi r18,lo8(-16)
 3257 0e40 8091 0000 		lds r24,RunParameter+3
 3258 0e44 282B      		or r18,r24
 3259 0e46 8091 0000 		lds r24,RunParameter+12
 3260 0e4a 8295      		swap r24
 3261 0e4c 807F      		andi r24,lo8(-16)
 3262 0e4e 9091 0000 		lds r25,RunParameter+13
 3263 0e52 892B      		or r24,r25
 3264 0e54 8983      		std Y+1,r24
 3265 0e56 6A83      		std Y+2,r22
 3266 0e58 5B83      		std Y+3,r21
 3267 0e5a 4C83      		std Y+4,r20
 3268 0e5c 7D83      		std Y+5,r23
 3269 0e5e 3E83      		std Y+6,r19
 3270 0e60 2F83      		std Y+7,r18
 3271               	.LM572:
 3272 0e62 82E0      		ldi r24,lo8(2)
 3273 0e64 90E0      		ldi r25,hi8(2)
 3274 0e66 BE01      		movw r22,r28
 3275 0e68 6F5F      		subi r22,lo8(-(1))
 3276 0e6a 7F4F      		sbci r23,hi8(-(1))
 3277 0e6c 47E0      		ldi r20,lo8(7)
 3278 0e6e 0E94 0000 		call PCF8536_wt_p
 3279               	/* epilogue start */
 3280               	.LM573:
 3281 0e72 2796      		adiw r28,7
 3282 0e74 0FB6      		in __tmp_reg__,__SREG__
 3283 0e76 F894      		cli
 3284 0e78 DEBF      		out __SP_H__,r29
 3285 0e7a 0FBE      		out __SREG__,__tmp_reg__
 3286 0e7c CDBF      		out __SP_L__,r28
 3287 0e7e CF91      		pop r28
 3288 0e80 DF91      		pop r29
 3289 0e82 0895      		ret
 3290               	.LFE58:
 3292               	.global	AjustTimerMonthly
 3294               	AjustTimerMonthly:
 3295               	.LFB59:
 3296               	.LM574:
 3297 0e84 1F93      		push r17
 3298               	/* prologue: function */
 3299               	/* frame size = 0 */
 3300               	.LM575:
 3301 0e86 8091 0000 		lds r24,RunParameter+6
 3302 0e8a 8823      		tst r24
 3303 0e8c 01F0      		breq .+2
 3304 0e8e 00C0      		rjmp .L284
 3305 0e90 1091 0000 		lds r17,RunParameter+7
 3306 0e94 1130      		cpi r17,lo8(1)
 3307 0e96 01F0      		breq .+2
 3308 0e98 00C0      		rjmp .L284
 3309               	.LM576:
 3310 0e9a 8091 0000 		lds r24,RunParameter+8
 3311 0e9e 8823      		tst r24
 3312 0ea0 01F0      		breq .+2
 3313 0ea2 00C0      		rjmp .L284
 3314 0ea4 8091 0000 		lds r24,RunParameter+9
 3315 0ea8 8330      		cpi r24,lo8(3)
 3316 0eaa 01F0      		breq .+2
 3317 0eac 00C0      		rjmp .L284
 3318               	.LM577:
 3319 0eae 8091 0000 		lds r24,RunParameter+10
 3320 0eb2 8330      		cpi r24,lo8(3)
 3321 0eb4 01F4      		brne .L282
 3322 0eb6 8091 0000 		lds r24,RunParameter+11
 3323 0eba 8823      		tst r24
 3324 0ebc 01F4      		brne .L284
 3325               	.LM578:
 3326 0ebe 8091 0000 		lds r24,RunParameter+22
 3327 0ec2 8823      		tst r24
 3328 0ec4 01F0      		breq .L283
 3329 0ec6 8091 0000 		lds r24,RunParameter+25
 3330 0eca 8823      		tst r24
 3331 0ecc 01F4      		brne .L284
 3332               	.LBB335:
 3333               	.LM579:
 3334 0ece 2091 0000 		lds r18,RunParameter+24
 3335               	.LVL147:
 3336 0ed2 225E      		subi r18,lo8(-(30))
 3337 0ed4 8091 0000 		lds r24,RunParameter+23
 3338 0ed8 3AE0      		ldi r19,lo8(10)
 3339 0eda 839F      		mul r24,r19
 3340 0edc C001      		movw r24,r0
 3341 0ede 1124      		clr r1
 3342 0ee0 280F      		add r18,r24
 3343 0ee2 00C0      		rjmp .L285
 3344               	.LVL148:
 3345               	.L283:
 3346               	.LBE335:
 3347               	.LM580:
 3348 0ee4 8091 0000 		lds r24,RunParameter+25
 3349 0ee8 8823      		tst r24
 3350 0eea 01F4      		brne .L284
 3351               	.LBB336:
 3352               	.LM581:
 3353 0eec 3EE1      		ldi r19,lo8(30)
 3354 0eee 8091 0000 		lds r24,RunParameter+24
 3355 0ef2 381B      		sub r19,r24
 3356 0ef4 2091 0000 		lds r18,RunParameter+23
 3357 0ef8 86EF      		ldi r24,lo8(-10)
 3358 0efa 9FEF      		ldi r25,hi8(-10)
 3359 0efc 289F      		mul r18,r24
 3360 0efe 202D      		mov r18,r0
 3361 0f00 1124      		clr r1
 3362               	.LVL149:
 3363 0f02 230F      		add r18,r19
 3364               	.LVL150:
 3365               	.L285:
 3366               	.LM582:
 3367 0f04 822F      		mov r24,r18
 3368 0f06 6AE0      		ldi r22,lo8(10)
 3369 0f08 0E94 0000 		call __udivmodqi4
 3370 0f0c 8093 0000 		sts RunParameter+10,r24
 3371               	.LM583:
 3372 0f10 822F      		mov r24,r18
 3373 0f12 0E94 0000 		call __udivmodqi4
 3374 0f16 9093 0000 		sts RunParameter+11,r25
 3375               	.LM584:
 3376 0f1a 0E94 0000 		call Write_time
 3377               	.LVL151:
 3378               	.LM585:
 3379 0f1e 1093 0000 		sts RunParameter+25,r17
 3380 0f22 00C0      		rjmp .L284
 3381               	.L282:
 3382               	.LBE336:
 3383               	.LM586:
 3384 0f24 8530      		cpi r24,lo8(5)
 3385 0f26 01F4      		brne .L284
 3386               	.LM587:
 3387 0f28 1092 0000 		sts RunParameter+25,__zero_reg__
 3388               	.L284:
 3389               	/* epilogue start */
 3390               	.LM588:
 3391 0f2c 1F91      		pop r17
 3392 0f2e 0895      		ret
 3393               	.LFE59:
 3395               	.global	Voice_Init
 3397               	Voice_Init:
 3398               	.LFB60:
 3399               	.LM589:
 3400               	/* prologue: function */
 3401               	/* frame size = 0 */
 3402               	.LM590:
 3403 0f30 AA9A      		sbi 53-32,2
 3404               	.LM591:
 3405 0f32 A298      		cbi 52-32,2
 3406               	.LM592:
 3407 0f34 A39A      		sbi 52-32,3
 3408               	.LM593:
 3409 0f36 A49A      		sbi 52-32,4
 3410               	/* epilogue start */
 3411               	.LM594:
 3412 0f38 0895      		ret
 3413               	.LFE60:
 3415               	.global	SPEEK_Time
 3417               	SPEEK_Time:
 3418               	.LFB61:
 3419               	.LM595:
 3420               	/* prologue: function */
 3421               	/* frame size = 0 */
 3422               	.LM596:
 3423 0f3a 9091 0000 		lds r25,SPEEK_TIME_Status
 3424 0f3e 9B30      		cpi r25,lo8(11)
 3425 0f40 01F4      		brne .+2
 3426 0f42 00C0      		rjmp .L301
 3427 0f44 9C30      		cpi r25,lo8(12)
 3428 0f46 00F4      		brsh .L313
 3429 0f48 9530      		cpi r25,lo8(5)
 3430 0f4a 01F4      		brne .+2
 3431 0f4c 00C0      		rjmp .L295
 3432 0f4e 9630      		cpi r25,lo8(6)
 3433 0f50 00F4      		brsh .L314
 3434 0f52 9230      		cpi r25,lo8(2)
 3435 0f54 01F4      		brne .+2
 3436 0f56 00C0      		rjmp .L292
 3437 0f58 9330      		cpi r25,lo8(3)
 3438 0f5a 00F4      		brsh .L315
 3439 0f5c 9923      		tst r25
 3440 0f5e 01F4      		brne .+2
 3441 0f60 00C0      		rjmp .L290
 3442 0f62 9130      		cpi r25,lo8(1)
 3443 0f64 01F0      		breq .+2
 3444 0f66 00C0      		rjmp .L340
 3445 0f68 00C0      		rjmp .L352
 3446               	.L315:
 3447 0f6a 9330      		cpi r25,lo8(3)
 3448 0f6c 01F4      		brne .+2
 3449 0f6e 00C0      		rjmp .L293
 3450 0f70 9430      		cpi r25,lo8(4)
 3451 0f72 01F0      		breq .+2
 3452 0f74 00C0      		rjmp .L340
 3453 0f76 00C0      		rjmp .L353
 3454               	.L314:
 3455 0f78 9830      		cpi r25,lo8(8)
 3456 0f7a 01F4      		brne .+2
 3457 0f7c 00C0      		rjmp .L298
 3458 0f7e 9930      		cpi r25,lo8(9)
 3459 0f80 00F4      		brsh .L316
 3460 0f82 9630      		cpi r25,lo8(6)
 3461 0f84 01F4      		brne .+2
 3462 0f86 00C0      		rjmp .L296
 3463 0f88 9730      		cpi r25,lo8(7)
 3464 0f8a 01F0      		breq .+2
 3465 0f8c 00C0      		rjmp .L340
 3466 0f8e 00C0      		rjmp .L354
 3467               	.L316:
 3468 0f90 9930      		cpi r25,lo8(9)
 3469 0f92 01F4      		brne .+2
 3470 0f94 00C0      		rjmp .L299
 3471 0f96 9A30      		cpi r25,lo8(10)
 3472 0f98 01F0      		breq .+2
 3473 0f9a 00C0      		rjmp .L340
 3474 0f9c 00C0      		rjmp .L355
 3475               	.L313:
 3476 0f9e 9131      		cpi r25,lo8(17)
 3477 0fa0 01F4      		brne .+2
 3478 0fa2 00C0      		rjmp .L307
 3479 0fa4 9231      		cpi r25,lo8(18)
 3480 0fa6 00F4      		brsh .L317
 3481 0fa8 9E30      		cpi r25,lo8(14)
 3482 0faa 01F4      		brne .+2
 3483 0fac 00C0      		rjmp .L304
 3484 0fae 9F30      		cpi r25,lo8(15)
 3485 0fb0 00F4      		brsh .L318
 3486 0fb2 9C30      		cpi r25,lo8(12)
 3487 0fb4 01F4      		brne .+2
 3488 0fb6 00C0      		rjmp .L302
 3489 0fb8 9D30      		cpi r25,lo8(13)
 3490 0fba 01F0      		breq .+2
 3491 0fbc 00C0      		rjmp .L340
 3492 0fbe 00C0      		rjmp .L356
 3493               	.L318:
 3494 0fc0 9F30      		cpi r25,lo8(15)
 3495 0fc2 01F4      		brne .+2
 3496 0fc4 00C0      		rjmp .L305
 3497 0fc6 9031      		cpi r25,lo8(16)
 3498 0fc8 01F0      		breq .+2
 3499 0fca 00C0      		rjmp .L340
 3500 0fcc 00C0      		rjmp .L357
 3501               	.L317:
 3502 0fce 9431      		cpi r25,lo8(20)
 3503 0fd0 01F4      		brne .+2
 3504 0fd2 00C0      		rjmp .L310
 3505 0fd4 9531      		cpi r25,lo8(21)
 3506 0fd6 00F4      		brsh .L319
 3507 0fd8 9231      		cpi r25,lo8(18)
 3508 0fda 01F4      		brne .+2
 3509 0fdc 00C0      		rjmp .L308
 3510 0fde 9331      		cpi r25,lo8(19)
 3511 0fe0 01F0      		breq .+2
 3512 0fe2 00C0      		rjmp .L340
 3513 0fe4 00C0      		rjmp .L358
 3514               	.L319:
 3515 0fe6 9436      		cpi r25,lo8(100)
 3516 0fe8 01F4      		brne .+2
 3517 0fea 00C0      		rjmp .L311
 3518 0fec 9536      		cpi r25,lo8(101)
 3519 0fee 01F0      		breq .+2
 3520 0ff0 00C0      		rjmp .L340
 3521 0ff2 00C0      		rjmp .L359
 3522               	.L290:
 3523               	.LM597:
 3524 0ff4 1092 0000 		sts inVoice,__zero_reg__
 3525 0ff8 0895      		ret
 3526               	.L352:
 3527               	.LM598:
 3528 0ffa 89E1      		ldi r24,lo8(25)
 3529 0ffc 8093 0000 		sts PLUSE_Number,r24
 3530               	.LM599:
 3531 1000 9093 0000 		sts PLUSE_Status,r25
 3532               	.LM600:
 3533 1004 82E0      		ldi r24,lo8(2)
 3534 1006 00C0      		rjmp .L341
 3535               	.L292:
 3536               	.LM601:
 3537 1008 8091 0000 		lds r24,PLUSE_Status
 3538 100c 8823      		tst r24
 3539 100e 01F0      		breq .+2
 3540 1010 00C0      		rjmp .L340
 3541 1012 9A9B      		sbis 51-32,2
 3542 1014 00C0      		rjmp .L340
 3543               	.LM602:
 3544 1016 86E1      		ldi r24,lo8(22)
 3545 1018 8093 0000 		sts PLUSE_Number,r24
 3546               	.LM603:
 3547 101c 81E0      		ldi r24,lo8(1)
 3548 101e 8093 0000 		sts PLUSE_Status,r24
 3549               	.LM604:
 3550 1022 83E0      		ldi r24,lo8(3)
 3551               	.LVL152:
 3552               	.L341:
 3553 1024 8093 0000 		sts SPEEK_TIME_Status,r24
 3554 1028 0895      		ret
 3555               	.LVL153:
 3556               	.L293:
 3557               	.LM605:
 3558 102a 8091 0000 		lds r24,PLUSE_Status
 3559 102e 8823      		tst r24
 3560 1030 01F0      		breq .+2
 3561 1032 00C0      		rjmp .L340
 3562 1034 9A9B      		sbis 51-32,2
 3563 1036 00C0      		rjmp .L340
 3564               	.LM606:
 3565 1038 8091 0000 		lds r24,RunParameter+8
 3566 103c 2AE0      		ldi r18,lo8(10)
 3567 103e 829F      		mul r24,r18
 3568 1040 C001      		movw r24,r0
 3569 1042 1124      		clr r1
 3570 1044 9091 0000 		lds r25,RunParameter+9
 3571               	.LVL154:
 3572 1048 980F      		add r25,r24
 3573               	.LM607:
 3574 104a 9730      		cpi r25,lo8(7)
 3575 104c 00F0      		brlo .L323
 3576               	.L320:
 3577               	.LM608:
 3578 104e 892F      		mov r24,r25
 3579 1050 8750      		subi r24,lo8(-(-7))
 3580 1052 8630      		cpi r24,lo8(6)
 3581 1054 00F4      		brsh .L321
 3582               	.LM609:
 3583 1056 8CE1      		ldi r24,lo8(28)
 3584 1058 00C0      		rjmp .L349
 3585               	.L321:
 3586               	.LM610:
 3587 105a 892F      		mov r24,r25
 3588 105c 8D50      		subi r24,lo8(-(-13))
 3589 105e 8630      		cpi r24,lo8(6)
 3590 1060 00F4      		brsh .L322
 3591               	.LM611:
 3592 1062 8DE1      		ldi r24,lo8(29)
 3593 1064 00C0      		rjmp .L349
 3594               	.L322:
 3595               	.LM612:
 3596 1066 9351      		subi r25,lo8(-(-19))
 3597 1068 9530      		cpi r25,lo8(5)
 3598 106a 00F4      		brsh .L323
 3599               	.LM613:
 3600 106c 8EE1      		ldi r24,lo8(30)
 3601               	.L349:
 3602 106e 8093 0000 		sts PLUSE_Number,r24
 3603               	.LM614:
 3604 1072 81E0      		ldi r24,lo8(1)
 3605 1074 8093 0000 		sts PLUSE_Status,r24
 3606               	.L323:
 3607               	.LM615:
 3608 1078 84E0      		ldi r24,lo8(4)
 3609 107a 00C0      		rjmp .L341
 3610               	.LVL155:
 3611               	.L353:
 3612               	.LM616:
 3613 107c 8091 0000 		lds r24,PLUSE_Status
 3614 1080 8823      		tst r24
 3615 1082 01F0      		breq .+2
 3616 1084 00C0      		rjmp .L340
 3617 1086 9A9B      		sbis 51-32,2
 3618 1088 00C0      		rjmp .L340
 3619               	.LM617:
 3620 108a 8091 0000 		lds r24,RunParameter+8
 3621 108e 8230      		cpi r24,lo8(2)
 3622 1090 00F0      		brlo .L324
 3623               	.LM618:
 3624 1092 8F5F      		subi r24,lo8(-(1))
 3625 1094 8093 0000 		sts PLUSE_Number,r24
 3626               	.LM619:
 3627 1098 81E0      		ldi r24,lo8(1)
 3628 109a 8093 0000 		sts PLUSE_Status,r24
 3629               	.L324:
 3630               	.LM620:
 3631 109e 85E0      		ldi r24,lo8(5)
 3632 10a0 00C0      		rjmp .L341
 3633               	.L295:
 3634               	.LM621:
 3635 10a2 8091 0000 		lds r24,PLUSE_Status
 3636 10a6 8823      		tst r24
 3637 10a8 01F0      		breq .+2
 3638 10aa 00C0      		rjmp .L340
 3639 10ac 9A9B      		sbis 51-32,2
 3640 10ae 00C0      		rjmp .L340
 3641               	.LM622:
 3642 10b0 8091 0000 		lds r24,RunParameter+8
 3643 10b4 8823      		tst r24
 3644 10b6 01F0      		breq .L325
 3645               	.LM623:
 3646 10b8 8BE0      		ldi r24,lo8(11)
 3647 10ba 8093 0000 		sts PLUSE_Number,r24
 3648               	.LM624:
 3649 10be 81E0      		ldi r24,lo8(1)
 3650 10c0 8093 0000 		sts PLUSE_Status,r24
 3651               	.L325:
 3652               	.LM625:
 3653 10c4 86E0      		ldi r24,lo8(6)
 3654 10c6 00C0      		rjmp .L341
 3655               	.L296:
 3656               	.LM626:
 3657 10c8 8091 0000 		lds r24,PLUSE_Status
 3658 10cc 8823      		tst r24
 3659 10ce 01F0      		breq .+2
 3660 10d0 00C0      		rjmp .L340
 3661 10d2 9A9B      		sbis 51-32,2
 3662 10d4 00C0      		rjmp .L340
 3663               	.LM627:
 3664 10d6 9091 0000 		lds r25,RunParameter+9
 3665 10da 9923      		tst r25
 3666 10dc 01F4      		brne .L326
 3667 10de 8091 0000 		lds r24,RunParameter+8
 3668 10e2 8823      		tst r24
 3669 10e4 01F4      		brne .L348
 3670               	.L326:
 3671               	.LM628:
 3672 10e6 9F5F      		subi r25,lo8(-(1))
 3673 10e8 9093 0000 		sts PLUSE_Number,r25
 3674               	.LM629:
 3675 10ec 81E0      		ldi r24,lo8(1)
 3676 10ee 8093 0000 		sts PLUSE_Status,r24
 3677               	.L348:
 3678               	.LM630:
 3679 10f2 87E0      		ldi r24,lo8(7)
 3680 10f4 00C0      		rjmp .L341
 3681               	.L354:
 3682               	.LM631:
 3683 10f6 8091 0000 		lds r24,PLUSE_Status
 3684 10fa 8823      		tst r24
 3685 10fc 01F0      		breq .+2
 3686 10fe 00C0      		rjmp .L340
 3687 1100 9A9B      		sbis 51-32,2
 3688 1102 00C0      		rjmp .L340
 3689               	.LM632:
 3690 1104 8DE0      		ldi r24,lo8(13)
 3691 1106 8093 0000 		sts PLUSE_Number,r24
 3692               	.LM633:
 3693 110a 81E0      		ldi r24,lo8(1)
 3694 110c 8093 0000 		sts PLUSE_Status,r24
 3695               	.LM634:
 3696 1110 88E0      		ldi r24,lo8(8)
 3697 1112 00C0      		rjmp .L341
 3698               	.L298:
 3699               	.LM635:
 3700 1114 8091 0000 		lds r24,PLUSE_Status
 3701 1118 8823      		tst r24
 3702 111a 01F0      		breq .+2
 3703 111c 00C0      		rjmp .L340
 3704 111e 9A9B      		sbis 51-32,2
 3705 1120 00C0      		rjmp .L340
 3706               	.LM636:
 3707 1122 8091 0000 		lds r24,RunParameter+10
 3708 1126 8823      		tst r24
 3709 1128 01F4      		brne .L327
 3710 112a 8091 0000 		lds r24,RunParameter+11
 3711 112e 8823      		tst r24
 3712 1130 01F4      		brne .L328
 3713               	.LM637:
 3714 1132 8AE1      		ldi r24,lo8(26)
 3715 1134 00C0      		rjmp .L350
 3716               	.L327:
 3717               	.LM638:
 3718 1136 8230      		cpi r24,lo8(2)
 3719 1138 00F0      		brlo .L328
 3720               	.LM639:
 3721 113a 8F5F      		subi r24,lo8(-(1))
 3722               	.L350:
 3723 113c 8093 0000 		sts PLUSE_Number,r24
 3724               	.LM640:
 3725 1140 81E0      		ldi r24,lo8(1)
 3726 1142 8093 0000 		sts PLUSE_Status,r24
 3727               	.L328:
 3728               	.LM641:
 3729 1146 89E0      		ldi r24,lo8(9)
 3730 1148 00C0      		rjmp .L341
 3731               	.L299:
 3732               	.LM642:
 3733 114a 8091 0000 		lds r24,PLUSE_Status
 3734 114e 8823      		tst r24
 3735 1150 01F0      		breq .+2
 3736 1152 00C0      		rjmp .L340
 3737 1154 9A9B      		sbis 51-32,2
 3738 1156 00C0      		rjmp .L340
 3739               	.LM643:
 3740 1158 8091 0000 		lds r24,RunParameter+10
 3741 115c 8823      		tst r24
 3742 115e 01F4      		brne .L329
 3743 1160 8091 0000 		lds r24,RunParameter+11
 3744 1164 8823      		tst r24
 3745 1166 01F4      		brne .L330
 3746 1168 00C0      		rjmp .L345
 3747               	.L329:
 3748               	.LM644:
 3749 116a 8BE0      		ldi r24,lo8(11)
 3750 116c 8093 0000 		sts PLUSE_Number,r24
 3751               	.LM645:
 3752 1170 81E0      		ldi r24,lo8(1)
 3753 1172 00C0      		rjmp .L343
 3754               	.L330:
 3755               	.LM646:
 3756 1174 81E0      		ldi r24,lo8(1)
 3757 1176 8093 0000 		sts PLUSE_Number,r24
 3758               	.L343:
 3759               	.LM647:
 3760 117a 8093 0000 		sts PLUSE_Status,r24
 3761               	.L345:
 3762               	.LM648:
 3763 117e 8AE0      		ldi r24,lo8(10)
 3764 1180 00C0      		rjmp .L341
 3765               	.L355:
 3766               	.LM649:
 3767 1182 8091 0000 		lds r24,PLUSE_Status
 3768 1186 8823      		tst r24
 3769 1188 01F0      		breq .+2
 3770 118a 00C0      		rjmp .L340
 3771 118c 9A9B      		sbis 51-32,2
 3772 118e 00C0      		rjmp .L340
 3773               	.LM650:
 3774 1190 8091 0000 		lds r24,RunParameter+11
 3775 1194 8823      		tst r24
 3776 1196 01F0      		breq .L342
 3777               	.L331:
 3778               	.LM651:
 3779 1198 8F5F      		subi r24,lo8(-(1))
 3780 119a 8093 0000 		sts PLUSE_Number,r24
 3781               	.LM652:
 3782 119e 81E0      		ldi r24,lo8(1)
 3783 11a0 8093 0000 		sts PLUSE_Status,r24
 3784               	.L342:
 3785               	.LM653:
 3786 11a4 8BE0      		ldi r24,lo8(11)
 3787 11a6 00C0      		rjmp .L341
 3788               	.L301:
 3789               	.LM654:
 3790 11a8 8091 0000 		lds r24,PLUSE_Status
 3791 11ac 8823      		tst r24
 3792 11ae 01F0      		breq .+2
 3793 11b0 00C0      		rjmp .L340
 3794 11b2 9A9B      		sbis 51-32,2
 3795 11b4 00C0      		rjmp .L340
 3796               	.LM655:
 3797 11b6 8091 0000 		lds r24,RunParameter+10
 3798 11ba 8823      		tst r24
 3799 11bc 01F4      		brne .L333
 3800 11be 8091 0000 		lds r24,RunParameter+11
 3801 11c2 8823      		tst r24
 3802 11c4 01F0      		breq .L344
 3803               	.L333:
 3804               	.LM656:
 3805 11c6 8EE0      		ldi r24,lo8(14)
 3806 11c8 8093 0000 		sts PLUSE_Number,r24
 3807               	.LM657:
 3808 11cc 81E0      		ldi r24,lo8(1)
 3809 11ce 8093 0000 		sts PLUSE_Status,r24
 3810               	.L344:
 3811               	.LM658:
 3812 11d2 8CE0      		ldi r24,lo8(12)
 3813 11d4 00C0      		rjmp .L341
 3814               	.L302:
 3815               	.LM659:
 3816 11d6 8091 0000 		lds r24,PLUSE_Status
 3817 11da 8823      		tst r24
 3818 11dc 01F0      		breq .+2
 3819 11de 00C0      		rjmp .L340
 3820 11e0 9A9B      		sbis 51-32,2
 3821 11e2 00C0      		rjmp .L340
 3822               	.LM660:
 3823 11e4 88EE      		ldi r24,lo8(1000)
 3824 11e6 93E0      		ldi r25,hi8(1000)
 3825 11e8 9093 0000 		sts (SPEEK_TIME_Delay)+1,r25
 3826 11ec 8093 0000 		sts SPEEK_TIME_Delay,r24
 3827               	.LM661:
 3828 11f0 8DE0      		ldi r24,lo8(13)
 3829 11f2 00C0      		rjmp .L341
 3830               	.L356:
 3831               	.LM662:
 3832 11f4 8091 0000 		lds r24,SPEEK_TIME_Delay
 3833 11f8 9091 0000 		lds r25,(SPEEK_TIME_Delay)+1
 3834 11fc 0197      		sbiw r24,1
 3835 11fe 9093 0000 		sts (SPEEK_TIME_Delay)+1,r25
 3836 1202 8093 0000 		sts SPEEK_TIME_Delay,r24
 3837               	.LM663:
 3838 1206 892B      		or r24,r25
 3839 1208 01F0      		breq .+2
 3840 120a 00C0      		rjmp .L340
 3841               	.LM664:
 3842 120c 87E1      		ldi r24,lo8(23)
 3843 120e 8093 0000 		sts PLUSE_Number,r24
 3844               	.LM665:
 3845 1212 81E0      		ldi r24,lo8(1)
 3846 1214 8093 0000 		sts PLUSE_Status,r24
 3847               	.LM666:
 3848 1218 8EE0      		ldi r24,lo8(14)
 3849 121a 00C0      		rjmp .L341
 3850               	.L304:
 3851               	.LM667:
 3852 121c 8091 0000 		lds r24,PLUSE_Status
 3853 1220 8823      		tst r24
 3854 1222 01F0      		breq .+2
 3855 1224 00C0      		rjmp .L340
 3856 1226 9A9B      		sbis 51-32,2
 3857 1228 00C0      		rjmp .L340
 3858               	.LM668:
 3859 122a 9091 0000 		lds r25,RunParameter+15
 3860 122e 892F      		mov r24,r25
 3861 1230 8250      		subi r24,lo8(-(-2))
 3862 1232 8830      		cpi r24,lo8(8)
 3863 1234 00F4      		brsh .L334
 3864               	.LM669:
 3865 1236 9F5F      		subi r25,lo8(-(1))
 3866 1238 9093 0000 		sts PLUSE_Number,r25
 3867 123c 00C0      		rjmp .L346
 3868               	.L334:
 3869               	.LM670:
 3870 123e 9B30      		cpi r25,lo8(11)
 3871 1240 00F0      		brlo .L347
 3872               	.LM671:
 3873 1242 8FE1      		ldi r24,lo8(31)
 3874 1244 8093 0000 		sts PLUSE_Number,r24
 3875               	.L346:
 3876               	.LM672:
 3877 1248 81E0      		ldi r24,lo8(1)
 3878 124a 8093 0000 		sts PLUSE_Status,r24
 3879               	.L347:
 3880               	.LM673:
 3881 124e 8FE0      		ldi r24,lo8(15)
 3882 1250 00C0      		rjmp .L341
 3883               	.L305:
 3884               	.LM674:
 3885 1252 8091 0000 		lds r24,PLUSE_Status
 3886 1256 8823      		tst r24
 3887 1258 01F0      		breq .+2
 3888 125a 00C0      		rjmp .L340
 3889 125c 9A9B      		sbis 51-32,2
 3890 125e 00C0      		rjmp .L340
 3891               	.LM675:
 3892 1260 8091 0000 		lds r24,RunParameter+15
 3893 1264 8823      		tst r24
 3894 1266 01F0      		breq .L336
 3895 1268 8E30      		cpi r24,lo8(14)
 3896 126a 01F0      		breq .L336
 3897               	.LM676:
 3898 126c 8BE0      		ldi r24,lo8(11)
 3899 126e 8093 0000 		sts PLUSE_Number,r24
 3900               	.LM677:
 3901 1272 81E0      		ldi r24,lo8(1)
 3902 1274 8093 0000 		sts PLUSE_Status,r24
 3903               	.L336:
 3904               	.LM678:
 3905 1278 80E1      		ldi r24,lo8(16)
 3906 127a 00C0      		rjmp .L341
 3907               	.L357:
 3908               	.LM679:
 3909 127c 8091 0000 		lds r24,PLUSE_Status
 3910 1280 8823      		tst r24
 3911 1282 01F0      		breq .+2
 3912 1284 00C0      		rjmp .L340
 3913 1286 9A9B      		sbis 51-32,2
 3914 1288 00C0      		rjmp .L340
 3915               	.LM680:
 3916 128a 8091 0000 		lds r24,RunParameter+16
 3917 128e 8823      		tst r24
 3918 1290 01F0      		breq .L337
 3919               	.LM681:
 3920 1292 8F5F      		subi r24,lo8(-(1))
 3921 1294 8093 0000 		sts PLUSE_Number,r24
 3922               	.LM682:
 3923 1298 81E0      		ldi r24,lo8(1)
 3924 129a 00C0      		rjmp .L351
 3925               	.L337:
 3926               	.LM683:
 3927 129c 8091 0000 		lds r24,RunParameter+15
 3928 12a0 8823      		tst r24
 3929 12a2 01F0      		breq .L338
 3930 12a4 8E30      		cpi r24,lo8(14)
 3931 12a6 01F4      		brne .L339
 3932               	.L338:
 3933               	.LM684:
 3934 12a8 81E0      		ldi r24,lo8(1)
 3935 12aa 8093 0000 		sts PLUSE_Number,r24
 3936               	.L351:
 3937               	.LM685:
 3938 12ae 8093 0000 		sts PLUSE_Status,r24
 3939               	.L339:
 3940               	.LM686:
 3941 12b2 81E1      		ldi r24,lo8(17)
 3942 12b4 00C0      		rjmp .L341
 3943               	.L307:
 3944               	.LM687:
 3945 12b6 8091 0000 		lds r24,PLUSE_Status
 3946 12ba 8823      		tst r24
 3947 12bc 01F4      		brne .L340
 3948 12be 9A9B      		sbis 51-32,2
 3949 12c0 00C0      		rjmp .L340
 3950               	.LM688:
 3951 12c2 8DE0      		ldi r24,lo8(13)
 3952 12c4 8093 0000 		sts PLUSE_Number,r24
 3953               	.LM689:
 3954 12c8 81E0      		ldi r24,lo8(1)
 3955 12ca 8093 0000 		sts PLUSE_Status,r24
 3956               	.LM690:
 3957 12ce 82E1      		ldi r24,lo8(18)
 3958 12d0 00C0      		rjmp .L341
 3959               	.L308:
 3960               	.LM691:
 3961 12d2 8091 0000 		lds r24,PLUSE_Status
 3962 12d6 8823      		tst r24
 3963 12d8 01F4      		brne .L340
 3964 12da 9A9B      		sbis 51-32,2
 3965 12dc 00C0      		rjmp .L340
 3966               	.LM692:
 3967 12de 8091 0000 		lds r24,RunParameter+17
 3968 12e2 8F5F      		subi r24,lo8(-(1))
 3969 12e4 8093 0000 		sts PLUSE_Number,r24
 3970               	.LM693:
 3971 12e8 81E0      		ldi r24,lo8(1)
 3972 12ea 8093 0000 		sts PLUSE_Status,r24
 3973               	.LM694:
 3974 12ee 83E1      		ldi r24,lo8(19)
 3975 12f0 00C0      		rjmp .L341
 3976               	.L358:
 3977               	.LM695:
 3978 12f2 8091 0000 		lds r24,PLUSE_Status
 3979 12f6 8823      		tst r24
 3980 12f8 01F4      		brne .L340
 3981 12fa 9A9B      		sbis 51-32,2
 3982 12fc 00C0      		rjmp .L340
 3983               	.LM696:
 3984 12fe 94E1      		ldi r25,lo8(20)
 3985 1300 9093 0000 		sts PLUSE_Number,r25
 3986               	.LM697:
 3987 1304 81E0      		ldi r24,lo8(1)
 3988 1306 8093 0000 		sts PLUSE_Status,r24
 3989               	.LM698:
 3990 130a 9093 0000 		sts SPEEK_TIME_Status,r25
 3991 130e 0895      		ret
 3992               	.L310:
 3993               	.LM699:
 3994 1310 8091 0000 		lds r24,PLUSE_Status
 3995 1314 8823      		tst r24
 3996 1316 01F4      		brne .L340
 3997 1318 9A9B      		sbis 51-32,2
 3998 131a 00C0      		rjmp .L340
 3999               	.L311:
 4000               	.LM700:
 4001 131c 1092 0000 		sts SPEEK_TIME_Status,__zero_reg__
 4002 1320 0895      		ret
 4003               	.L359:
 4004               	.LM701:
 4005 1322 8091 0000 		lds r24,PLUSE_Status
 4006 1326 8823      		tst r24
 4007 1328 01F4      		brne .L340
 4008 132a 9A9B      		sbis 51-32,2
 4009 132c 00C0      		rjmp .L340
 4010               	.LM702:
 4011 132e 1092 0000 		sts SPEEK_TIME_Status,__zero_reg__
 4012               	.L340:
 4013 1332 0895      		ret
 4014               	.LFE61:
 4016               	.global	PLUSE_Out
 4018               	PLUSE_Out:
 4019               	.LFB62:
 4020               	.LM703:
 4021               	/* prologue: function */
 4022               	/* frame size = 0 */
 4023               	.LM704:
 4024 1334 8091 0000 		lds r24,PLUSE_Status
 4025 1338 8230      		cpi r24,lo8(2)
 4026 133a 01F0      		breq .L364
 4027 133c 8330      		cpi r24,lo8(3)
 4028 133e 00F4      		brsh .L368
 4029 1340 8823      		tst r24
 4030 1342 01F0      		breq .L362
 4031 1344 8130      		cpi r24,lo8(1)
 4032 1346 01F0      		breq .+2
 4033 1348 00C0      		rjmp .L370
 4034 134a 00C0      		rjmp .L372
 4035               	.L368:
 4036 134c 8430      		cpi r24,lo8(4)
 4037 134e 01F0      		breq .L366
 4038 1350 8430      		cpi r24,lo8(4)
 4039 1352 00F0      		brlo .L365
 4040 1354 8530      		cpi r24,lo8(5)
 4041 1356 01F0      		breq .+2
 4042 1358 00C0      		rjmp .L370
 4043 135a 00C0      		rjmp .L373
 4044               	.L362:
 4045               	.LM705:
 4046 135c 82E0      		ldi r24,lo8(2)
 4047 135e 8093 0000 		sts PLUSE_Delay,r24
 4048               	.LM706:
 4049 1362 AC98      		cbi 53-32,4
 4050               	.LM707:
 4051 1364 AB98      		cbi 53-32,3
 4052 1366 0895      		ret
 4053               	.L372:
 4054               	.LM708:
 4055 1368 AC98      		cbi 53-32,4
 4056               	.LM709:
 4057 136a AB9A      		sbi 53-32,3
 4058               	.LM710:
 4059 136c 8091 0000 		lds r24,PLUSE_Delay
 4060 1370 8150      		subi r24,lo8(-(-1))
 4061 1372 8093 0000 		sts PLUSE_Delay,r24
 4062               	.LM711:
 4063 1376 8823      		tst r24
 4064 1378 01F4      		brne .L370
 4065               	.LM712:
 4066 137a AB98      		cbi 53-32,3
 4067               	.LM713:
 4068 137c 82E0      		ldi r24,lo8(2)
 4069 137e 00C0      		rjmp .L371
 4070               	.L364:
 4071               	.LM714:
 4072 1380 8091 0000 		lds r24,PLUSE_Number
 4073 1384 8823      		tst r24
 4074 1386 01F0      		breq .L369
 4075               	.LM715:
 4076 1388 81E0      		ldi r24,lo8(1)
 4077 138a 8093 0000 		sts PLUSE_Delay,r24
 4078               	.LM716:
 4079 138e 83E0      		ldi r24,lo8(3)
 4080 1390 00C0      		rjmp .L371
 4081               	.L369:
 4082               	.LM717:
 4083 1392 1092 0000 		sts PLUSE_Status,__zero_reg__
 4084 1396 0895      		ret
 4085               	.L365:
 4086               	.LM718:
 4087 1398 AC98      		cbi 53-32,4
 4088               	.LM719:
 4089 139a 8091 0000 		lds r24,PLUSE_Delay
 4090 139e 8150      		subi r24,lo8(-(-1))
 4091 13a0 8093 0000 		sts PLUSE_Delay,r24
 4092               	.LM720:
 4093 13a4 8823      		tst r24
 4094 13a6 01F4      		brne .L370
 4095               	.LM721:
 4096 13a8 81E0      		ldi r24,lo8(1)
 4097 13aa 8093 0000 		sts PLUSE_Delay,r24
 4098               	.LM722:
 4099 13ae 84E0      		ldi r24,lo8(4)
 4100 13b0 00C0      		rjmp .L371
 4101               	.L366:
 4102               	.LM723:
 4103 13b2 AC9A      		sbi 53-32,4
 4104               	.LM724:
 4105 13b4 8091 0000 		lds r24,PLUSE_Delay
 4106 13b8 8150      		subi r24,lo8(-(-1))
 4107 13ba 8093 0000 		sts PLUSE_Delay,r24
 4108               	.LM725:
 4109 13be 8823      		tst r24
 4110 13c0 01F4      		brne .L370
 4111               	.LM726:
 4112 13c2 85E0      		ldi r24,lo8(5)
 4113               	.L371:
 4114 13c4 8093 0000 		sts PLUSE_Status,r24
 4115 13c8 0895      		ret
 4116               	.L373:
 4117               	.LM727:
 4118 13ca AC98      		cbi 53-32,4
 4119               	.LM728:
 4120 13cc 8091 0000 		lds r24,PLUSE_Number
 4121 13d0 8150      		subi r24,lo8(-(-1))
 4122 13d2 8093 0000 		sts PLUSE_Number,r24
 4123               	.LM729:
 4124 13d6 82E0      		ldi r24,lo8(2)
 4125 13d8 8093 0000 		sts PLUSE_Status,r24
 4126               	.L370:
 4127 13dc 0895      		ret
 4128               	.LFE62:
 4130               	.global	Key_Init
 4132               	Key_Init:
 4133               	.LFB63:
 4134               	.LM730:
 4135               	/* prologue: function */
 4136               	/* frame size = 0 */
 4137               	.LM731:
 4138 13de AE9A      		sbi 53-32,6
 4139               	.LM732:
 4140 13e0 A698      		cbi 52-32,6
 4141               	.LM733:
 4142 13e2 AF9A      		sbi 53-32,7
 4143               	.LM734:
 4144 13e4 A798      		cbi 52-32,7
 4145               	.LM735:
 4146 13e6 909A      		sbi 50-32,0
 4147               	.LM736:
 4148 13e8 8898      		cbi 49-32,0
 4149               	.LM737:
 4150 13ea 919A      		sbi 50-32,1
 4151               	.LM738:
 4152 13ec 8998      		cbi 49-32,1
 4153               	/* epilogue start */
 4154               	.LM739:
 4155 13ee 0895      		ret
 4156               	.LFE63:
 4158               	.global	Key_Operation
 4160               	Key_Operation:
 4161               	.LFB64:
 4162               	.LM740:
 4163               	.LVL156:
 4164 13f0 CF92      		push r12
 4165 13f2 DF92      		push r13
 4166 13f4 EF92      		push r14
 4167 13f6 FF92      		push r15
 4168 13f8 0F93      		push r16
 4169               	.LVL157:
 4170 13fa 1F93      		push r17
 4171 13fc CF93      		push r28
 4172 13fe DF93      		push r29
 4173               	/* prologue: function */
 4174               	/* frame size = 0 */
 4175 1400 D82E      		mov r13,r24
 4176 1402 C62E      		mov r12,r22
 4177 1404 EA01      		movw r28,r20
 4178 1406 7901      		movw r14,r18
 4179               	.LM741:
 4180 1408 9E99      		sbic 51-32,6
 4181 140a 00C0      		rjmp .L377
 4182               	.LVL158:
 4183               	.LBB337:
 4184               	.LBB338:
 4185               	.LBB339:
 4186               	.LBB340:
 4187               	.LM742:
 4188 140c 80E2      		ldi r24,lo8(20000)
 4189 140e 9EE4      		ldi r25,hi8(20000)
 4190               	.LVL159:
 4191               	/* #APP */
 4192               	 ;  105 "c:/winavr-20090313/lib/gcc/../../avr/include/util/delay_basic.h" 1
 4193 1410 0197      		1: sbiw r24,1
 4194 1412 01F4      		brne 1b
 4195               	 ;  0 "" 2
 4196               	/* #NOAPP */
 4197               	.LBE340:
 4198               	.LBE339:
 4199               	.LBE338:
 4200               	.LBE337:
 4201               	.LM743:
 4202 1414 9E99      		sbic 51-32,6
 4203 1416 00C0      		rjmp .L387
 4204               	.LBB341:
 4205               	.LM744:
 4206 1418 84E6      		ldi r24,lo8(100)
 4207               	.LVL160:
 4208 141a 8093 0000 		sts SPEEK_TIME_Status,r24
 4209               	.LM745:
 4210 141e 1092 0000 		sts (KEY_Time_count)+1,__zero_reg__
 4211 1422 1092 0000 		sts KEY_Time_count,__zero_reg__
 4212               	.LM746:
 4213 1426 F901      		movw r30,r18
 4214 1428 3081      		ld r19,Z
 4215               	.LVL161:
 4216 142a 3F5F      		subi r19,lo8(-(1))
 4217               	.LM747:
 4218 142c 8881      		ld r24,Y
 4219 142e 2AE0      		ldi r18,lo8(10)
 4220 1430 829F      		mul r24,r18
 4221 1432 C001      		movw r24,r0
 4222 1434 1124      		clr r1
 4223 1436 380F      		add r19,r24
 4224               	.LM748:
 4225 1438 D316      		cp r13,r19
 4226 143a 00F4      		brsh .L379
 4227 143c 362F      		mov r19,r22
 4228               	.L379:
 4229               	.LM749:
 4230 143e 832F      		mov r24,r19
 4231 1440 6AE0      		ldi r22,lo8(10)
 4232 1442 0E94 0000 		call __udivmodqi4
 4233 1446 8883      		st Y,r24
 4234               	.LM750:
 4235 1448 832F      		mov r24,r19
 4236 144a 0E94 0000 		call __udivmodqi4
 4237 144e F701      		movw r30,r14
 4238 1450 9083      		st Z,r25
 4239               	.LM751:
 4240 1452 F801      		movw r30,r16
 4241 1454 0995      		icall
 4242               	.LVL162:
 4243               	.L387:
 4244               	.LBE341:
 4245               	.LM752:
 4246 1456 9E9B      		sbis 51-32,6
 4247 1458 00C0      		rjmp .L387
 4248               	.LVL163:
 4249               	.L377:
 4250               	.LM753:
 4251 145a 9F99      		sbic 51-32,7
 4252 145c 00C0      		rjmp .L384
 4253               	.LBB342:
 4254               	.LBB343:
 4255               	.LBB344:
 4256               	.LBB345:
 4257               	.LM754:
 4258 145e 80E2      		ldi r24,lo8(20000)
 4259 1460 9EE4      		ldi r25,hi8(20000)
 4260               	.LVL164:
 4261               	/* #APP */
 4262               	 ;  105 "c:/winavr-20090313/lib/gcc/../../avr/include/util/delay_basic.h" 1
 4263 1462 0197      		1: sbiw r24,1
 4264 1464 01F4      		brne 1b
 4265               	 ;  0 "" 2
 4266               	/* #NOAPP */
 4267               	.LBE345:
 4268               	.LBE344:
 4269               	.LBE343:
 4270               	.LBE342:
 4271               	.LM755:
 4272 1466 9F99      		sbic 51-32,7
 4273 1468 00C0      		rjmp .L386
 4274               	.LBB346:
 4275               	.LM756:
 4276 146a 84E6      		ldi r24,lo8(100)
 4277               	.LVL165:
 4278 146c 8093 0000 		sts SPEEK_TIME_Status,r24
 4279               	.LM757:
 4280 1470 1092 0000 		sts (KEY_Time_count)+1,__zero_reg__
 4281 1474 1092 0000 		sts KEY_Time_count,__zero_reg__
 4282               	.LM758:
 4283 1478 F701      		movw r30,r14
 4284 147a 3081      		ld r19,Z
 4285               	.LVL166:
 4286 147c 3150      		subi r19,lo8(-(-1))
 4287               	.LM759:
 4288 147e 8881      		ld r24,Y
 4289 1480 2AE0      		ldi r18,lo8(10)
 4290 1482 829F      		mul r24,r18
 4291 1484 C001      		movw r24,r0
 4292 1486 1124      		clr r1
 4293 1488 380F      		add r19,r24
 4294               	.LM760:
 4295 148a D316      		cp r13,r19
 4296 148c 00F0      		brlo .L385
 4297 148e 3C15      		cp r19,r12
 4298 1490 00F4      		brsh .L382
 4299               	.L385:
 4300 1492 3D2D      		mov r19,r13
 4301               	.L382:
 4302               	.LM761:
 4303 1494 832F      		mov r24,r19
 4304 1496 6AE0      		ldi r22,lo8(10)
 4305 1498 0E94 0000 		call __udivmodqi4
 4306 149c 8883      		st Y,r24
 4307               	.LM762:
 4308 149e 832F      		mov r24,r19
 4309 14a0 0E94 0000 		call __udivmodqi4
 4310 14a4 F701      		movw r30,r14
 4311 14a6 9083      		st Z,r25
 4312               	.LM763:
 4313 14a8 F801      		movw r30,r16
 4314 14aa 0995      		icall
 4315               	.LVL167:
 4316               	.L386:
 4317               	.LBE346:
 4318               	.LM764:
 4319 14ac 9F9B      		sbis 51-32,7
 4320 14ae 00C0      		rjmp .L386
 4321               	.LVL168:
 4322               	.L384:
 4323               	/* epilogue start */
 4324               	.LM765:
 4325 14b0 DF91      		pop r29
 4326 14b2 CF91      		pop r28
 4327               	.LVL169:
 4328 14b4 1F91      		pop r17
 4329 14b6 0F91      		pop r16
 4330               	.LVL170:
 4331 14b8 FF90      		pop r15
 4332 14ba EF90      		pop r14
 4333               	.LVL171:
 4334 14bc DF90      		pop r13
 4335               	.LVL172:
 4336 14be CF90      		pop r12
 4337               	.LVL173:
 4338 14c0 0895      		ret
 4339               	.LFE64:
 4341               	.global	StartAD
 4343               	StartAD:
 4344               	.LFB66:
 4345               	.LM766:
 4346               	/* prologue: function */
 4347               	/* frame size = 0 */
 4348               	.LM767:
 4349 14c2 16B8      		out 38-32,__zero_reg__
 4350               	.LM768:
 4351 14c4 80E4      		ldi r24,lo8(64)
 4352 14c6 87B9      		out 39-32,r24
 4353               	.LM769:
 4354 14c8 87ED      		ldi r24,lo8(-41)
 4355 14ca 86B9      		out 38-32,r24
 4356               	/* epilogue start */
 4357               	.LM770:
 4358 14cc 0895      		ret
 4359               	.LFE66:
 4361               	.global	GetDispalyLight
 4363               	GetDispalyLight:
 4364               	.LFB67:
 4365               	.LM771:
 4366               	/* prologue: function */
 4367               	/* frame size = 0 */
 4368               	.LM772:
 4369 14ce 24B1      		in r18,36-32
 4370               	.LM773:
 4371 14d0 45B1      		in r20,37-32
 4372               	.LM774:
 4373 14d2 942F      		mov r25,r20
 4374 14d4 80E0      		ldi r24,lo8(0)
 4375 14d6 30E0      		ldi r19,lo8(0)
 4376 14d8 822B      		or r24,r18
 4377 14da 932B      		or r25,r19
 4378               	.LM775:
 4379 14dc 9695      		lsr r25
 4380 14de 8795      		ror r24
 4381               	.LM776:
 4382 14e0 8397      		sbiw r24,35
 4383 14e2 6CE3      		ldi r22,lo8(60)
 4384 14e4 70E0      		ldi r23,hi8(60)
 4385 14e6 0E94 0000 		call __udivmodhi4
 4386 14ea 98E0      		ldi r25,lo8(8)
 4387 14ec 892F      		mov r24,r25
 4388 14ee 861B      		sub r24,r22
 4389 14f0 8093 0000 		sts RunParameter+19,r24
 4390               	.LM777:
 4391 14f4 8930      		cpi r24,lo8(9)
 4392 14f6 00F0      		brlo .L393
 4393               	.LM778:
 4394 14f8 9093 0000 		sts RunParameter+19,r25
 4395 14fc 00C0      		rjmp .L394
 4396               	.L393:
 4397               	.LM779:
 4398 14fe 8823      		tst r24
 4399 1500 01F4      		brne .L394
 4400               	.LM780:
 4401 1502 81E0      		ldi r24,lo8(1)
 4402 1504 8093 0000 		sts RunParameter+19,r24
 4403               	.L394:
 4404               	.LM781:
 4405 1508 8091 0000 		lds r24,RunParameter+19
 4406 150c 29E1      		ldi r18,lo8(25)
 4407 150e 829F      		mul r24,r18
 4408 1510 C001      		movw r24,r0
 4409 1512 1124      		clr r1
 4410 1514 8851      		subi r24,lo8(-(-24))
 4411 1516 8CBF      		out 92-32,r24
 4412               	/* epilogue start */
 4413               	.LM782:
 4414 1518 0895      		ret
 4415               	.LFE67:
 4417               	.global	timer0_init
 4419               	timer0_init:
 4420               	.LFB68:
 4421               	.LM783:
 4422               	/* prologue: function */
 4423               	/* frame size = 0 */
 4424               	.LM784:
 4425 151a 13BE      		out 83-32,__zero_reg__
 4426               	.LM785:
 4427 151c 12BE      		out 82-32,__zero_reg__
 4428               	.LM786:
 4429 151e 89E7      		ldi r24,lo8(121)
 4430 1520 83BF      		out 83-32,r24
 4431               	.LM787:
 4432 1522 8091 0000 		lds r24,RunParameter+18
 4433 1526 8930      		cpi r24,lo8(9)
 4434 1528 00F4      		brsh .L397
 4435               	.LM788:
 4436 152a 8091 0000 		lds r24,RunParameter+19
 4437 152e 29E1      		ldi r18,lo8(25)
 4438 1530 829F      		mul r24,r18
 4439 1532 C001      		movw r24,r0
 4440 1534 1124      		clr r1
 4441 1536 8851      		subi r24,lo8(-(-24))
 4442 1538 00C0      		rjmp .L400
 4443               	.L397:
 4444               	.LM789:
 4445 153a 84E6      		ldi r24,lo8(100)
 4446               	.L400:
 4447 153c 8CBF      		out 92-32,r24
 4448 153e 0895      		ret
 4449               	.LFE68:
 4451               	.global	timer2_init
 4453               	timer2_init:
 4454               	.LFB69:
 4455               	.LM790:
 4456               	/* prologue: function */
 4457               	/* frame size = 0 */
 4458               	.LM791:
 4459 1540 15BC      		out 69-32,__zero_reg__
 4460               	.LM792:
 4461 1542 12BC      		out 66-32,__zero_reg__
 4462               	.LM793:
 4463 1544 83E8      		ldi r24,lo8(-125)
 4464 1546 84BD      		out 68-32,r24
 4465               	.LM794:
 4466 1548 82E8      		ldi r24,lo8(-126)
 4467 154a 83BD      		out 67-32,r24
 4468               	.LM795:
 4469 154c 89B7      		in r24,89-32
 4470 154e 8064      		ori r24,lo8(64)
 4471 1550 89BF      		out 89-32,r24
 4472               	.LM796:
 4473 1552 84E0      		ldi r24,lo8(4)
 4474 1554 85BD      		out 69-32,r24
 4475               	/* epilogue start */
 4476               	.LM797:
 4477 1556 0895      		ret
 4478               	.LFE69:
 4480               	.global	__vector_4
 4482               	__vector_4:
 4483               	.LFB70:
 4484               	.LM798:
 4485 1558 1F92      		push __zero_reg__
 4486 155a 0F92      		push r0
 4487 155c 0FB6      		in r0,__SREG__
 4488 155e 0F92      		push r0
 4489 1560 1124      		clr __zero_reg__
 4490 1562 2F93      		push r18
 4491 1564 3F93      		push r19
 4492 1566 4F93      		push r20
 4493 1568 5F93      		push r21
 4494 156a 6F93      		push r22
 4495 156c 7F93      		push r23
 4496 156e 8F93      		push r24
 4497 1570 9F93      		push r25
 4498 1572 AF93      		push r26
 4499 1574 BF93      		push r27
 4500 1576 EF93      		push r30
 4501 1578 FF93      		push r31
 4502               	/* prologue: Signal */
 4503               	/* frame size = 0 */
 4504               	.LM799:
 4505 157a 0E94 0000 		call PLUSE_Out
 4506               	.LM800:
 4507 157e 0E94 0000 		call SPEEK_Time
 4508               	.LM801:
 4509 1582 8091 0000 		lds r24,RunParameter+21
 4510 1586 8823      		tst r24
 4511 1588 01F0      		breq .+2
 4512 158a 00C0      		rjmp .L404
 4513 158c 8091 0000 		lds r24,SPEEK_TIME_Status
 4514 1590 8823      		tst r24
 4515 1592 01F4      		brne .L404
 4516               	.LM802:
 4517 1594 8091 0000 		lds r24,ReadDS18B20Count
 4518 1598 9091 0000 		lds r25,(ReadDS18B20Count)+1
 4519 159c 0196      		adiw r24,1
 4520 159e 9093 0000 		sts (ReadDS18B20Count)+1,r25
 4521 15a2 8093 0000 		sts ReadDS18B20Count,r24
 4522               	.LM803:
 4523 15a6 8253      		subi r24,lo8(-14286)
 4524 15a8 984C      		sbci r25,hi8(-14286)
 4525 15aa 01F4      		brne .L405
 4526               	.LM804:
 4527 15ac 0E94 0000 		call ds1820_start
 4528               	.L405:
 4529               	.LM805:
 4530 15b0 8091 0000 		lds r24,ReadDS18B20Count
 4531 15b4 9091 0000 		lds r25,(ReadDS18B20Count)+1
 4532 15b8 8156      		subi r24,lo8(-5535)
 4533 15ba 9A4E      		sbci r25,hi8(-5535)
 4534 15bc 00F0      		brlo .L406
 4535               	.LM806:
 4536 15be 0E94 0000 		call ReadTemputer
 4537               	.LM807:
 4538 15c2 1092 0000 		sts (ReadDS18B20Count)+1,__zero_reg__
 4539 15c6 1092 0000 		sts ReadDS18B20Count,__zero_reg__
 4540               	.L406:
 4541               	.LM808:
 4542 15ca 8091 0000 		lds r24,RunParameter+18
 4543 15ce 8823      		tst r24
 4544 15d0 01F4      		brne .L404
 4545               	.LM809:
 4546 15d2 8091 0000 		lds r24,AD_time_count
 4547 15d6 9091 0000 		lds r25,(AD_time_count)+1
 4548 15da 0196      		adiw r24,1
 4549 15dc 9093 0000 		sts (AD_time_count)+1,r25
 4550 15e0 8093 0000 		sts AD_time_count,r24
 4551               	.LM810:
 4552 15e4 22E0      		ldi r18,hi8(600)
 4553 15e6 8835      		cpi r24,lo8(600)
 4554 15e8 9207      		cpc r25,r18
 4555 15ea 01F4      		brne .L407
 4556               	.LBB347:
 4557               	.LBB348:
 4558               	.LM811:
 4559 15ec 16B8      		out 38-32,__zero_reg__
 4560               	.LM812:
 4561 15ee 80E4      		ldi r24,lo8(64)
 4562 15f0 87B9      		out 39-32,r24
 4563               	.LM813:
 4564 15f2 87ED      		ldi r24,lo8(-41)
 4565 15f4 86B9      		out 38-32,r24
 4566 15f6 00C0      		rjmp .L404
 4567               	.L407:
 4568               	.LBE348:
 4569               	.LBE347:
 4570               	.LM814:
 4571 15f8 8558      		subi r24,lo8(901)
 4572 15fa 9340      		sbci r25,hi8(901)
 4573 15fc 00F0      		brlo .L404
 4574               	.LM815:
 4575 15fe 0E94 0000 		call GetDispalyLight
 4576               	.LM816:
 4577 1602 1092 0000 		sts (AD_time_count)+1,__zero_reg__
 4578 1606 1092 0000 		sts AD_time_count,__zero_reg__
 4579               	.L404:
 4580               	.LM817:
 4581 160a 8091 0000 		lds r24,KEY_Time_count
 4582 160e 9091 0000 		lds r25,(KEY_Time_count)+1
 4583 1612 0196      		adiw r24,1
 4584 1614 9093 0000 		sts (KEY_Time_count)+1,r25
 4585 1618 8093 0000 		sts KEY_Time_count,r24
 4586               	.LM818:
 4587 161c 8091 0000 		lds r24,KEY_Time_count_speed_color
 4588 1620 9091 0000 		lds r25,(KEY_Time_count_speed_color)+1
 4589 1624 0196      		adiw r24,1
 4590 1626 9093 0000 		sts (KEY_Time_count_speed_color)+1,r25
 4591 162a 8093 0000 		sts KEY_Time_count_speed_color,r24
 4592               	.LM819:
 4593 162e 83E8      		ldi r24,lo8(-125)
 4594 1630 84BD      		out 68-32,r24
 4595               	/* epilogue start */
 4596               	.LM820:
 4597 1632 FF91      		pop r31
 4598 1634 EF91      		pop r30
 4599 1636 BF91      		pop r27
 4600 1638 AF91      		pop r26
 4601 163a 9F91      		pop r25
 4602 163c 8F91      		pop r24
 4603 163e 7F91      		pop r23
 4604 1640 6F91      		pop r22
 4605 1642 5F91      		pop r21
 4606 1644 4F91      		pop r20
 4607 1646 3F91      		pop r19
 4608 1648 2F91      		pop r18
 4609 164a 0F90      		pop r0
 4610 164c 0FBE      		out __SREG__,r0
 4611 164e 0F90      		pop r0
 4612 1650 1F90      		pop __zero_reg__
 4613 1652 1895      		reti
 4614               	.LFE70:
 4616               	.global	fullScreen
 4618               	fullScreen:
 4619               	.LFB25:
 4620               	.LM821:
 4621               	/* prologue: function */
 4622               	/* frame size = 0 */
 4623               	.LM822:
 4624 1654 80E0      		ldi r24,lo8(display_buffer)
 4625 1656 90E0      		ldi r25,hi8(display_buffer)
 4626 1658 6FEF      		ldi r22,lo8(255)
 4627 165a 70E0      		ldi r23,hi8(255)
 4628 165c 40E0      		ldi r20,lo8(256)
 4629 165e 51E0      		ldi r21,hi8(256)
 4630 1660 0E94 0000 		call memset
 4631               	/* epilogue start */
 4632               	.LM823:
 4633 1664 0895      		ret
 4634               	.LFE25:
 4636               	.global	clearScreen
 4638               	clearScreen:
 4639               	.LFB24:
 4640               	.LM824:
 4641               	/* prologue: function */
 4642               	/* frame size = 0 */
 4643               	.LM825:
 4644 1666 80E0      		ldi r24,lo8(256)
 4645 1668 91E0      		ldi r25,hi8(256)
 4646 166a E0E0      		ldi r30,lo8(display_buffer)
 4647 166c F0E0      		ldi r31,hi8(display_buffer)
 4648 166e DF01      		movw r26,r30
 4649 1670 9C01      		movw r18,r24
 4650 1672 1D92      		st X+,__zero_reg__
 4651 1674 2150      		subi r18,1
 4652 1676 3040      		sbci r19,0
 4653 1678 01F4      		brne .-8
 4654               	/* epilogue start */
 4655               	.LM826:
 4656 167a 0895      		ret
 4657               	.LFE24:
 4659               	.global	init_devices
 4661               	init_devices:
 4662               	.LFB71:
 4663               	.LM827:
 4664               	/* prologue: function */
 4665               	/* frame size = 0 */
 4666               	.LM828:
 4667               	/* #APP */
 4668               	 ;  52 "LED3264.c" 1
 4669 167c F894      		cli
 4670               	 ;  0 "" 2
 4671               	.LM829:
 4672               	/* #NOAPP */
 4673 167e 15BE      		out 85-32,__zero_reg__
 4674               	.LM830:
 4675 1680 1BBE      		out 91-32,__zero_reg__
 4676               	.LM831:
 4677 1682 0E94 0000 		call LED_SCREEN_INI
 4678               	.LM832:
 4679 1686 0E94 0000 		call Key_Init
 4680               	.LBB349:
 4681               	.LBB350:
 4682               	.LM833:
 4683 168a AA9A      		sbi 53-32,2
 4684               	.LM834:
 4685 168c A298      		cbi 52-32,2
 4686               	.LM835:
 4687 168e A39A      		sbi 52-32,3
 4688               	.LM836:
 4689 1690 A49A      		sbi 52-32,4
 4690               	.LBE350:
 4691               	.LBE349:
 4692               	.LBB351:
 4693               	.LBB352:
 4694               	.LM837:
 4695 1692 13BE      		out 83-32,__zero_reg__
 4696               	.LM838:
 4697 1694 12BE      		out 82-32,__zero_reg__
 4698               	.LM839:
 4699 1696 89E7      		ldi r24,lo8(121)
 4700 1698 83BF      		out 83-32,r24
 4701               	.LM840:
 4702 169a 8091 0000 		lds r24,RunParameter+18
 4703 169e 8930      		cpi r24,lo8(9)
 4704 16a0 00F4      		brsh .L414
 4705               	.LM841:
 4706 16a2 8091 0000 		lds r24,RunParameter+19
 4707 16a6 29E1      		ldi r18,lo8(25)
 4708 16a8 829F      		mul r24,r18
 4709 16aa C001      		movw r24,r0
 4710 16ac 1124      		clr r1
 4711 16ae 8851      		subi r24,lo8(-(-24))
 4712 16b0 00C0      		rjmp .L417
 4713               	.L414:
 4714               	.LM842:
 4715 16b2 84E6      		ldi r24,lo8(100)
 4716               	.L417:
 4717 16b4 8CBF      		out 92-32,r24
 4718               	.LBE352:
 4719               	.LBE351:
 4720               	.LBB353:
 4721               	.LBB354:
 4722               	.LM843:
 4723 16b6 15BC      		out 69-32,__zero_reg__
 4724               	.LM844:
 4725 16b8 12BC      		out 66-32,__zero_reg__
 4726               	.LM845:
 4727 16ba 83E8      		ldi r24,lo8(-125)
 4728 16bc 84BD      		out 68-32,r24
 4729               	.LM846:
 4730 16be 82E8      		ldi r24,lo8(-126)
 4731 16c0 83BD      		out 67-32,r24
 4732               	.LM847:
 4733 16c2 89B7      		in r24,89-32
 4734 16c4 8064      		ori r24,lo8(64)
 4735 16c6 89BF      		out 89-32,r24
 4736               	.LM848:
 4737 16c8 84E0      		ldi r24,lo8(4)
 4738 16ca 85BD      		out 69-32,r24
 4739               	.LBE354:
 4740               	.LBE353:
 4741               	.LM849:
 4742 16cc 0E94 0000 		call PCF8563_init
 4743               	.LM850:
 4744 16d0 1092 0000 		sts (ReadDS18B20Count)+1,__zero_reg__
 4745 16d4 1092 0000 		sts ReadDS18B20Count,__zero_reg__
 4746               	.LM851:
 4747 16d8 1092 0000 		sts (AD_time_count)+1,__zero_reg__
 4748 16dc 1092 0000 		sts AD_time_count,__zero_reg__
 4749               	.LM852:
 4750 16e0 1092 0000 		sts (KEY_Time_count)+1,__zero_reg__
 4751 16e4 1092 0000 		sts KEY_Time_count,__zero_reg__
 4752               	.LM853:
 4753 16e8 0E94 0000 		call ds1820_reset
 4754               	.LBB355:
 4755               	.LBB356:
 4756               	.LM854:
 4757 16ec 80E0      		ldi r24,lo8(256)
 4758 16ee 91E0      		ldi r25,hi8(256)
 4759 16f0 E0E0      		ldi r30,lo8(display_buffer)
 4760 16f2 F0E0      		ldi r31,hi8(display_buffer)
 4761 16f4 DF01      		movw r26,r30
 4762 16f6 9C01      		movw r18,r24
 4763 16f8 1D92      		st X+,__zero_reg__
 4764 16fa 2150      		subi r18,1
 4765 16fc 3040      		sbci r19,0
 4766 16fe 01F4      		brne .-8
 4767               	.LBE356:
 4768               	.LBE355:
 4769               	.LM855:
 4770               	/* #APP */
 4771               	 ;  68 "LED3264.c" 1
 4772 1700 7894      		sei
 4773               	 ;  0 "" 2
 4774               	/* epilogue start */
 4775               	.LM856:
 4776               	/* #NOAPP */
 4777 1702 0895      		ret
 4778               	.LFE71:
 4780               	.global	Show_welcome
 4782               	Show_welcome:
 4783               	.LFB46:
 4784               	.LM857:
 4785 1704 CF93      		push r28
 4786 1706 DF93      		push r29
 4787               	/* prologue: function */
 4788               	/* frame size = 0 */
 4789               	.LM858:
 4790 1708 8CE1      		ldi r24,lo8(28)
 4791 170a 8093 0000 		sts RunParameter+21,r24
 4792               	.LM859:
 4793 170e 80E0      		ldi r24,lo8(0)
 4794 1710 60E0      		ldi r22,lo8(0)
 4795 1712 40E0      		ldi r20,lo8(0)
 4796 1714 0E94 0000 		call writeOneChinese
 4797               	.LM860:
 4798 1718 82E0      		ldi r24,lo8(2)
 4799 171a 60E0      		ldi r22,lo8(0)
 4800 171c 41E0      		ldi r20,lo8(1)
 4801 171e 0E94 0000 		call writeOneChinese
 4802               	.LM861:
 4803 1722 84E0      		ldi r24,lo8(4)
 4804 1724 60E0      		ldi r22,lo8(0)
 4805 1726 42E0      		ldi r20,lo8(2)
 4806 1728 0E94 0000 		call writeOneChinese
 4807               	.LM862:
 4808 172c 86E0      		ldi r24,lo8(6)
 4809 172e 60E0      		ldi r22,lo8(0)
 4810 1730 43E0      		ldi r20,lo8(3)
 4811 1732 0E94 0000 		call writeOneChinese
 4812               	.LM863:
 4813 1736 80E0      		ldi r24,lo8(0)
 4814 1738 60E1      		ldi r22,lo8(16)
 4815 173a 44E0      		ldi r20,lo8(4)
 4816 173c 0E94 0000 		call writeOneChinese
 4817               	.LM864:
 4818 1740 82E0      		ldi r24,lo8(2)
 4819 1742 60E1      		ldi r22,lo8(16)
 4820 1744 45E0      		ldi r20,lo8(5)
 4821 1746 0E94 0000 		call writeOneChinese
 4822               	.LM865:
 4823 174a 84E0      		ldi r24,lo8(4)
 4824 174c 60E1      		ldi r22,lo8(16)
 4825 174e 46E0      		ldi r20,lo8(6)
 4826 1750 0E94 0000 		call writeOneChinese
 4827               	.LM866:
 4828 1754 86E0      		ldi r24,lo8(6)
 4829 1756 60E1      		ldi r22,lo8(16)
 4830 1758 47E0      		ldi r20,lo8(7)
 4831 175a 0E94 0000 		call writeOneChinese
 4832 175e C0E0      		ldi r28,lo8(0)
 4833 1760 D0E0      		ldi r29,hi8(0)
 4834               	.LVL174:
 4835               	.L419:
 4836               	.LM867:
 4837 1762 0E94 0000 		call display
 4838               	.LM868:
 4839 1766 2196      		adiw r28,1
 4840 1768 23E1      		ldi r18,hi8(5000)
 4841 176a C838      		cpi r28,lo8(5000)
 4842 176c D207      		cpc r29,r18
 4843 176e 01F4      		brne .L419
 4844               	.LBB357:
 4845               	.LBB358:
 4846               	.LM869:
 4847 1770 80E0      		ldi r24,lo8(256)
 4848 1772 91E0      		ldi r25,hi8(256)
 4849 1774 E0E0      		ldi r30,lo8(display_buffer)
 4850 1776 F0E0      		ldi r31,hi8(display_buffer)
 4851 1778 DF01      		movw r26,r30
 4852 177a 9C01      		movw r18,r24
 4853 177c 1D92      		st X+,__zero_reg__
 4854 177e 2150      		subi r18,1
 4855 1780 3040      		sbci r19,0
 4856 1782 01F4      		brne .-8
 4857               	.LBE358:
 4858               	.LBE357:
 4859               	.LM870:
 4860 1784 1092 0000 		sts RunParameter+21,__zero_reg__
 4861               	/* epilogue start */
 4862               	.LM871:
 4863 1788 DF91      		pop r29
 4864 178a CF91      		pop r28
 4865               	.LVL175:
 4866 178c 0895      		ret
 4867               	.LFE46:
 4869               	.global	FreshDisplayBufferNormal
 4871               	FreshDisplayBufferNormal:
 4872               	.LFB44:
 4873               	.LM872:
 4874               	/* prologue: function */
 4875               	/* frame size = 0 */
 4876               	.LBB359:
 4877               	.LBB360:
 4878               	.LM873:
 4879 178e 80E0      		ldi r24,lo8(256)
 4880 1790 91E0      		ldi r25,hi8(256)
 4881 1792 E0E0      		ldi r30,lo8(display_buffer)
 4882 1794 F0E0      		ldi r31,hi8(display_buffer)
 4883 1796 DF01      		movw r26,r30
 4884 1798 9C01      		movw r18,r24
 4885 179a 1D92      		st X+,__zero_reg__
 4886 179c 2150      		subi r18,1
 4887 179e 3040      		sbci r19,0
 4888 17a0 01F4      		brne .-8
 4889               	.LBE360:
 4890               	.LBE359:
 4891               	.LM874:
 4892 17a2 80E0      		ldi r24,lo8(0)
 4893 17a4 60E0      		ldi r22,lo8(0)
 4894 17a6 4091 0000 		lds r20,RunParameter+8
 4895 17aa 0E94 0000 		call wirteOneBigNumber
 4896               	.LM875:
 4897 17ae 82E0      		ldi r24,lo8(2)
 4898 17b0 60E0      		ldi r22,lo8(0)
 4899 17b2 4091 0000 		lds r20,RunParameter+9
 4900 17b6 0E94 0000 		call wirteOneBigNumber
 4901               	.LM876:
 4902 17ba 84E0      		ldi r24,lo8(4)
 4903 17bc 63E0      		ldi r22,lo8(3)
 4904 17be 4091 0000 		lds r20,RunParameter+10
 4905 17c2 0E94 0000 		call wirteOneBigNumber
 4906               	.LM877:
 4907 17c6 86E0      		ldi r24,lo8(6)
 4908 17c8 63E0      		ldi r22,lo8(3)
 4909 17ca 4091 0000 		lds r20,RunParameter+11
 4910 17ce 0E94 0000 		call wirteOneBigNumber
 4911               	.LM878:
 4912 17d2 80E0      		ldi r24,lo8(0)
 4913 17d4 67E1      		ldi r22,lo8(23)
 4914 17d6 4091 0000 		lds r20,RunParameter
 4915 17da 0E94 0000 		call writeOneSCROLL
 4916               	.LM879:
 4917 17de 81E0      		ldi r24,lo8(1)
 4918 17e0 67E1      		ldi r22,lo8(23)
 4919 17e2 4091 0000 		lds r20,RunParameter+1
 4920 17e6 0E94 0000 		call writeOneSCROLL
 4921               	.LM880:
 4922 17ea 82E0      		ldi r24,lo8(2)
 4923 17ec 67E1      		ldi r22,lo8(23)
 4924 17ee 4091 0000 		lds r20,RunParameter+2
 4925 17f2 0E94 0000 		call writeOneSCROLL
 4926               	.LM881:
 4927 17f6 83E0      		ldi r24,lo8(3)
 4928 17f8 67E1      		ldi r22,lo8(23)
 4929 17fa 4091 0000 		lds r20,RunParameter+3
 4930 17fe 0E94 0000 		call writeOneSCROLL
 4931               	.LM882:
 4932 1802 84E0      		ldi r24,lo8(4)
 4933 1804 67E1      		ldi r22,lo8(23)
 4934 1806 4AE0      		ldi r20,lo8(10)
 4935 1808 0E94 0000 		call writeOneSCROLL
 4936               	.LM883:
 4937 180c 85E0      		ldi r24,lo8(5)
 4938 180e 67E1      		ldi r22,lo8(23)
 4939 1810 4091 0000 		lds r20,RunParameter+4
 4940 1814 0E94 0000 		call writeOneSCROLL
 4941               	.LM884:
 4942 1818 86E0      		ldi r24,lo8(6)
 4943 181a 67E1      		ldi r22,lo8(23)
 4944 181c 4091 0000 		lds r20,RunParameter+5
 4945 1820 0E94 0000 		call writeOneSCROLL
 4946               	.LM885:
 4947 1824 87E0      		ldi r24,lo8(7)
 4948 1826 67E1      		ldi r22,lo8(23)
 4949 1828 4BE0      		ldi r20,lo8(11)
 4950 182a 0E94 0000 		call writeOneSCROLL
 4951               	.LM886:
 4952 182e 80E0      		ldi r24,lo8(0)
 4953 1830 68E1      		ldi r22,lo8(24)
 4954 1832 4091 0000 		lds r20,RunParameter+6
 4955 1836 0E94 0000 		call writeOneSCROLL
 4956               	.LM887:
 4957 183a 81E0      		ldi r24,lo8(1)
 4958 183c 68E1      		ldi r22,lo8(24)
 4959 183e 4091 0000 		lds r20,RunParameter+7
 4960 1842 0E94 0000 		call writeOneSCROLL
 4961               	.LM888:
 4962 1846 82E0      		ldi r24,lo8(2)
 4963 1848 68E1      		ldi r22,lo8(24)
 4964 184a 44E1      		ldi r20,lo8(20)
 4965 184c 0E94 0000 		call writeOneSCROLL
 4966               	.LM889:
 4967 1850 84E0      		ldi r24,lo8(4)
 4968 1852 68E1      		ldi r22,lo8(24)
 4969 1854 4CE0      		ldi r20,lo8(12)
 4970 1856 0E94 0000 		call writeOneSCROLL
 4971               	.LM890:
 4972 185a 4091 0000 		lds r20,RunParameter+14
 4973 185e 435F      		subi r20,lo8(-(13))
 4974 1860 85E0      		ldi r24,lo8(5)
 4975 1862 68E1      		ldi r22,lo8(24)
 4976 1864 0E94 0000 		call writeOneSCROLL
 4977               	.LM891:
 4978 1868 87E0      		ldi r24,lo8(7)
 4979 186a 68E1      		ldi r22,lo8(24)
 4980 186c 4091 0000 		lds r20,RunParameter+15
 4981 1870 0E94 0000 		call writeOneSCROLL
 4982               	.LM892:
 4983 1874 80E0      		ldi r24,lo8(0)
 4984 1876 69E1      		ldi r22,lo8(25)
 4985 1878 4091 0000 		lds r20,RunParameter+16
 4986 187c 0E94 0000 		call writeOneSCROLL
 4987               	.LM893:
 4988 1880 81E0      		ldi r24,lo8(1)
 4989 1882 69E1      		ldi r22,lo8(25)
 4990 1884 45E1      		ldi r20,lo8(21)
 4991 1886 0E94 0000 		call writeOneSCROLL
 4992               	.LM894:
 4993 188a 82E0      		ldi r24,lo8(2)
 4994 188c 69E1      		ldi r22,lo8(25)
 4995 188e 4091 0000 		lds r20,RunParameter+17
 4996 1892 0E94 0000 		call writeOneSCROLL
 4997               	.LM895:
 4998 1896 83E0      		ldi r24,lo8(3)
 4999 1898 69E1      		ldi r22,lo8(25)
 5000 189a 4DE0      		ldi r20,lo8(13)
 5001 189c 0E94 0000 		call writeOneSCROLL
 5002               	/* epilogue start */
 5003               	.LM896:
 5004 18a0 0895      		ret
 5005               	.LFE44:
 5007               	.global	FreshDisplayBufferAjustProofTime
 5009               	FreshDisplayBufferAjustProofTime:
 5010               	.LFB43:
 5011               	.LM897:
 5012               	/* prologue: function */
 5013               	/* frame size = 0 */
 5014               	.LBB361:
 5015               	.LBB362:
 5016               	.LM898:
 5017 18a2 80E0      		ldi r24,lo8(256)
 5018 18a4 91E0      		ldi r25,hi8(256)
 5019 18a6 E0E0      		ldi r30,lo8(display_buffer)
 5020 18a8 F0E0      		ldi r31,hi8(display_buffer)
 5021 18aa DF01      		movw r26,r30
 5022 18ac 9C01      		movw r18,r24
 5023 18ae 1D92      		st X+,__zero_reg__
 5024 18b0 2150      		subi r18,1
 5025 18b2 3040      		sbci r19,0
 5026 18b4 01F4      		brne .-8
 5027               	.LBE362:
 5028               	.LBE361:
 5029               	.LM899:
 5030 18b6 80E0      		ldi r24,lo8(0)
 5031 18b8 60E0      		ldi r22,lo8(0)
 5032 18ba 4DE1      		ldi r20,lo8(29)
 5033 18bc 0E94 0000 		call writeOneChinese
 5034               	.LM900:
 5035 18c0 80E0      		ldi r24,lo8(0)
 5036 18c2 60E1      		ldi r22,lo8(16)
 5037 18c4 4DE0      		ldi r20,lo8(13)
 5038 18c6 0E94 0000 		call writeOneChinese
 5039 18ca E0E0      		ldi r30,lo8(SCROLL+260)
 5040 18cc F0E0      		ldi r31,hi8(SCROLL+260)
 5041 18ce A0E0      		ldi r26,lo8(display_buffer+182)
 5042 18d0 B0E0      		ldi r27,hi8(display_buffer+182)
 5043               	.L425:
 5044               	.LBB363:
 5045               	.LBB364:
 5046               	.LBB365:
 5047               	.LM901:
 5048               	/* #APP */
 5049               	 ;  112 "_Display.h" 1
 5050 18d2 8491      		lpm r24, Z
 5051               		
 5052               	 ;  0 "" 2
 5053               	.LVL176:
 5054               	/* #NOAPP */
 5055               	.LBE365:
 5056               	.LM902:
 5057 18d4 8C93      		st X,r24
 5058 18d6 3196      		adiw r30,1
 5059 18d8 1896      		adiw r26,8
 5060               	.LM903:
 5061 18da 30E0      		ldi r19,hi8(SCROLL+270)
 5062 18dc E030      		cpi r30,lo8(SCROLL+270)
 5063 18de F307      		cpc r31,r19
 5064 18e0 01F4      		brne .L425
 5065 18e2 20E0      		ldi r18,lo8(SCROLL+110)
 5066 18e4 30E0      		ldi r19,hi8(SCROLL+110)
 5067 18e6 A0E0      		ldi r26,lo8(display_buffer+183)
 5068 18e8 B0E0      		ldi r27,hi8(display_buffer+183)
 5069               	.L426:
 5070               	.LBE364:
 5071               	.LBE363:
 5072               	.LBB366:
 5073               	.LBB367:
 5074               	.LBB368:
 5075               	.LM904:
 5076 18ea F901      		movw r30,r18
 5077               	/* #APP */
 5078               	 ;  112 "_Display.h" 1
 5079 18ec 8491      		lpm r24, Z
 5080               		
 5081               	 ;  0 "" 2
 5082               	.LVL177:
 5083               	/* #NOAPP */
 5084               	.LBE368:
 5085               	.LM905:
 5086 18ee 8C93      		st X,r24
 5087 18f0 2F5F      		subi r18,lo8(-(1))
 5088 18f2 3F4F      		sbci r19,hi8(-(1))
 5089 18f4 1896      		adiw r26,8
 5090               	.LM906:
 5091 18f6 F0E0      		ldi r31,hi8(display_buffer+263)
 5092 18f8 A030      		cpi r26,lo8(display_buffer+263)
 5093 18fa BF07      		cpc r27,r31
 5094 18fc 01F4      		brne .L426
 5095               	.LBE367:
 5096               	.LBE366:
 5097               	.LM907:
 5098 18fe 8091 0000 		lds r24,RunParameter+22
 5099               	.LVL178:
 5100 1902 8823      		tst r24
 5101 1904 01F0      		breq .L427
 5102 1906 20E0      		ldi r18,lo8(SCROLL+270)
 5103 1908 30E0      		ldi r19,hi8(SCROLL+270)
 5104 190a A0E0      		ldi r26,lo8(display_buffer+178)
 5105 190c B0E0      		ldi r27,hi8(display_buffer+178)
 5106               	.L428:
 5107               	.LBB369:
 5108               	.LBB370:
 5109               	.LBB371:
 5110               	.LM908:
 5111 190e F901      		movw r30,r18
 5112               	/* #APP */
 5113               	 ;  112 "_Display.h" 1
 5114 1910 8491      		lpm r24, Z
 5115               		
 5116               	 ;  0 "" 2
 5117               	.LVL179:
 5118               	/* #NOAPP */
 5119               	.LBE371:
 5120               	.LM909:
 5121 1912 8C93      		st X,r24
 5122 1914 2F5F      		subi r18,lo8(-(1))
 5123 1916 3F4F      		sbci r19,hi8(-(1))
 5124 1918 1896      		adiw r26,8
 5125               	.LM910:
 5126 191a F0E0      		ldi r31,hi8(display_buffer+258)
 5127 191c A030      		cpi r26,lo8(display_buffer+258)
 5128 191e BF07      		cpc r27,r31
 5129 1920 01F4      		brne .L428
 5130 1922 00C0      		rjmp .L429
 5131               	.LVL180:
 5132               	.L427:
 5133 1924 20E0      		ldi r18,lo8(SCROLL+330)
 5134 1926 30E0      		ldi r19,hi8(SCROLL+330)
 5135 1928 A0E0      		ldi r26,lo8(display_buffer+178)
 5136 192a B0E0      		ldi r27,hi8(display_buffer+178)
 5137               	.L430:
 5138               	.LBE370:
 5139               	.LBE369:
 5140               	.LBB372:
 5141               	.LBB373:
 5142               	.LBB374:
 5143               	.LM911:
 5144 192c F901      		movw r30,r18
 5145               	/* #APP */
 5146               	 ;  112 "_Display.h" 1
 5147 192e 8491      		lpm r24, Z
 5148               		
 5149               	 ;  0 "" 2
 5150               	.LVL181:
 5151               	/* #NOAPP */
 5152               	.LBE374:
 5153               	.LM912:
 5154 1930 8C93      		st X,r24
 5155 1932 2F5F      		subi r18,lo8(-(1))
 5156 1934 3F4F      		sbci r19,hi8(-(1))
 5157 1936 1896      		adiw r26,8
 5158               	.LM913:
 5159 1938 F0E0      		ldi r31,hi8(display_buffer+258)
 5160 193a A030      		cpi r26,lo8(display_buffer+258)
 5161 193c BF07      		cpc r27,r31
 5162 193e 01F4      		brne .L430
 5163               	.LVL182:
 5164               	.L429:
 5165               	.LBE373:
 5166               	.LBE372:
 5167               	.LM914:
 5168 1940 83E0      		ldi r24,lo8(3)
 5169               	.LVL183:
 5170 1942 60E0      		ldi r22,lo8(0)
 5171 1944 4091 0000 		lds r20,RunParameter+23
 5172 1948 0E94 0000 		call wirteOneBigNumber
 5173               	.LM915:
 5174 194c 85E0      		ldi r24,lo8(5)
 5175 194e 60E0      		ldi r22,lo8(0)
 5176 1950 4091 0000 		lds r20,RunParameter+24
 5177 1954 0E94 0000 		call wirteOneBigNumber
 5178 1958 20E0      		ldi r18,lo8(SCROLL+240)
 5179 195a 30E0      		ldi r19,hi8(SCROLL+240)
 5180 195c A0E0      		ldi r26,lo8(display_buffer+95)
 5181 195e B0E0      		ldi r27,hi8(display_buffer+95)
 5182               	.L431:
 5183               	.LBB375:
 5184               	.LBB376:
 5185               	.LBB377:
 5186               	.LM916:
 5187 1960 F901      		movw r30,r18
 5188               	/* #APP */
 5189               	 ;  112 "_Display.h" 1
 5190 1962 8491      		lpm r24, Z
 5191               		
 5192               	 ;  0 "" 2
 5193               	.LVL184:
 5194               	/* #NOAPP */
 5195               	.LBE377:
 5196               	.LM917:
 5197 1964 8C93      		st X,r24
 5198 1966 2F5F      		subi r18,lo8(-(1))
 5199 1968 3F4F      		sbci r19,hi8(-(1))
 5200 196a 1896      		adiw r26,8
 5201               	.LM918:
 5202 196c F0E0      		ldi r31,hi8(display_buffer+175)
 5203 196e A030      		cpi r26,lo8(display_buffer+175)
 5204 1970 BF07      		cpc r27,r31
 5205 1972 01F4      		brne .L431
 5206               	/* epilogue start */
 5207               	.LBE376:
 5208               	.LBE375:
 5209               	.LM919:
 5210 1974 0895      		ret
 5211               	.LFE43:
 5213               	.global	FreshDisplayBufferChangeFont
 5215               	FreshDisplayBufferChangeFont:
 5216               	.LFB42:
 5217               	.LM920:
 5218               	/* prologue: function */
 5219               	/* frame size = 0 */
 5220               	.LBB378:
 5221               	.LBB379:
 5222               	.LM921:
 5223 1976 80E0      		ldi r24,lo8(256)
 5224 1978 91E0      		ldi r25,hi8(256)
 5225 197a E0E0      		ldi r30,lo8(display_buffer)
 5226 197c F0E0      		ldi r31,hi8(display_buffer)
 5227 197e DF01      		movw r26,r30
 5228 1980 9C01      		movw r18,r24
 5229 1982 1D92      		st X+,__zero_reg__
 5230 1984 2150      		subi r18,1
 5231 1986 3040      		sbci r19,0
 5232 1988 01F4      		brne .-8
 5233               	.LBE379:
 5234               	.LBE378:
 5235               	.LM922:
 5236 198a 80E0      		ldi r24,lo8(0)
 5237 198c 60E0      		ldi r22,lo8(0)
 5238 198e 48E0      		ldi r20,lo8(8)
 5239 1990 0E94 0000 		call writeOneChinese
 5240               	.LM923:
 5241 1994 82E0      		ldi r24,lo8(2)
 5242 1996 60E0      		ldi r22,lo8(0)
 5243 1998 49E0      		ldi r20,lo8(9)
 5244 199a 0E94 0000 		call writeOneChinese
 5245               	.LM924:
 5246 199e 80E0      		ldi r24,lo8(0)
 5247 19a0 60E1      		ldi r22,lo8(16)
 5248 19a2 4BE1      		ldi r20,lo8(27)
 5249 19a4 0E94 0000 		call writeOneChinese
 5250               	.LM925:
 5251 19a8 82E0      		ldi r24,lo8(2)
 5252 19aa 60E1      		ldi r22,lo8(16)
 5253 19ac 4CE1      		ldi r20,lo8(28)
 5254 19ae 0E94 0000 		call writeOneChinese
 5255 19b2 E0E0      		ldi r30,lo8(SCROLL+300)
 5256 19b4 F0E0      		ldi r31,hi8(SCROLL+300)
 5257 19b6 A0E0      		ldi r26,lo8(display_buffer+180)
 5258 19b8 B0E0      		ldi r27,hi8(display_buffer+180)
 5259               	.L439:
 5260               	.LBB380:
 5261               	.LBB381:
 5262               	.LBB382:
 5263               	.LM926:
 5264               	/* #APP */
 5265               	 ;  112 "_Display.h" 1
 5266 19ba 8491      		lpm r24, Z
 5267               		
 5268               	 ;  0 "" 2
 5269               	.LVL185:
 5270               	/* #NOAPP */
 5271               	.LBE382:
 5272               	.LM927:
 5273 19bc 8C93      		st X,r24
 5274 19be 3196      		adiw r30,1
 5275 19c0 1896      		adiw r26,8
 5276               	.LM928:
 5277 19c2 30E0      		ldi r19,hi8(SCROLL+310)
 5278 19c4 E030      		cpi r30,lo8(SCROLL+310)
 5279 19c6 F307      		cpc r31,r19
 5280 19c8 01F4      		brne .L439
 5281               	.LBE381:
 5282               	.LBE380:
 5283               	.LM929:
 5284 19ca 85E0      		ldi r24,lo8(5)
 5285               	.LVL186:
 5286 19cc 60E0      		ldi r22,lo8(0)
 5287 19ce 43E0      		ldi r20,lo8(3)
 5288 19d0 0E94 0000 		call wirteOneBigNumber
 5289               	/* epilogue start */
 5290               	.LM930:
 5291 19d4 0895      		ret
 5292               	.LFE42:
 5294               	.global	FreshDisplayBufferAjustLightMode
 5296               	FreshDisplayBufferAjustLightMode:
 5297               	.LFB40:
 5298               	.LM931:
 5299               	/* prologue: function */
 5300               	/* frame size = 0 */
 5301               	.LBB383:
 5302               	.LBB384:
 5303               	.LM932:
 5304 19d6 80E0      		ldi r24,lo8(256)
 5305 19d8 91E0      		ldi r25,hi8(256)
 5306 19da E0E0      		ldi r30,lo8(display_buffer)
 5307 19dc F0E0      		ldi r31,hi8(display_buffer)
 5308 19de DF01      		movw r26,r30
 5309 19e0 9C01      		movw r18,r24
 5310 19e2 1D92      		st X+,__zero_reg__
 5311 19e4 2150      		subi r18,1
 5312 19e6 3040      		sbci r19,0
 5313 19e8 01F4      		brne .-8
 5314               	.LBE384:
 5315               	.LBE383:
 5316               	.LM933:
 5317 19ea 80E0      		ldi r24,lo8(0)
 5318 19ec 60E0      		ldi r22,lo8(0)
 5319 19ee 48E0      		ldi r20,lo8(8)
 5320 19f0 0E94 0000 		call writeOneChinese
 5321               	.LM934:
 5322 19f4 82E0      		ldi r24,lo8(2)
 5323 19f6 60E0      		ldi r22,lo8(0)
 5324 19f8 49E0      		ldi r20,lo8(9)
 5325 19fa 0E94 0000 		call writeOneChinese
 5326               	.LM935:
 5327 19fe 80E0      		ldi r24,lo8(0)
 5328 1a00 60E1      		ldi r22,lo8(16)
 5329 1a02 4CE0      		ldi r20,lo8(12)
 5330 1a04 0E94 0000 		call writeOneChinese
 5331               	.LM936:
 5332 1a08 82E0      		ldi r24,lo8(2)
 5333 1a0a 60E1      		ldi r22,lo8(16)
 5334 1a0c 4BE0      		ldi r20,lo8(11)
 5335 1a0e 0E94 0000 		call writeOneChinese
 5336 1a12 E0E0      		ldi r30,lo8(SCROLL+300)
 5337 1a14 F0E0      		ldi r31,hi8(SCROLL+300)
 5338 1a16 A0E0      		ldi r26,lo8(display_buffer+180)
 5339 1a18 B0E0      		ldi r27,hi8(display_buffer+180)
 5340               	.L443:
 5341               	.LBB385:
 5342               	.LBB386:
 5343               	.LBB387:
 5344               	.LM937:
 5345               	/* #APP */
 5346               	 ;  112 "_Display.h" 1
 5347 1a1a 8491      		lpm r24, Z
 5348               		
 5349               	 ;  0 "" 2
 5350               	.LVL187:
 5351               	/* #NOAPP */
 5352               	.LBE387:
 5353               	.LM938:
 5354 1a1c 8C93      		st X,r24
 5355 1a1e 3196      		adiw r30,1
 5356 1a20 1896      		adiw r26,8
 5357               	.LM939:
 5358 1a22 30E0      		ldi r19,hi8(SCROLL+310)
 5359 1a24 E030      		cpi r30,lo8(SCROLL+310)
 5360 1a26 F307      		cpc r31,r19
 5361 1a28 01F4      		brne .L443
 5362               	.LBE386:
 5363               	.LBE385:
 5364               	.LM940:
 5365 1a2a 8091 0000 		lds r24,RunParameter+18
 5366               	.LVL188:
 5367 1a2e 8823      		tst r24
 5368 1a30 01F0      		breq .L444
 5369               	.LM941:
 5370 1a32 86E0      		ldi r24,lo8(6)
 5371 1a34 60E0      		ldi r22,lo8(0)
 5372 1a36 49E1      		ldi r20,lo8(25)
 5373 1a38 00C0      		rjmp .L448
 5374               	.L444:
 5375               	.LM942:
 5376 1a3a 86E0      		ldi r24,lo8(6)
 5377 1a3c 60E0      		ldi r22,lo8(0)
 5378 1a3e 48E1      		ldi r20,lo8(24)
 5379               	.L448:
 5380 1a40 0E94 0000 		call writeOneChinese
 5381               	.LM943:
 5382 1a44 86E0      		ldi r24,lo8(6)
 5383 1a46 60E1      		ldi r22,lo8(16)
 5384 1a48 4AE1      		ldi r20,lo8(26)
 5385 1a4a 0E94 0000 		call writeOneChinese
 5386               	/* epilogue start */
 5387               	.LM944:
 5388 1a4e 0895      		ret
 5389               	.LFE40:
 5391               	.global	FreshDisplayBufferAjustLight
 5393               	FreshDisplayBufferAjustLight:
 5394               	.LFB41:
 5395               	.LM945:
 5396               	/* prologue: function */
 5397               	/* frame size = 0 */
 5398               	.LBB388:
 5399               	.LBB389:
 5400               	.LM946:
 5401 1a50 80E0      		ldi r24,lo8(256)
 5402 1a52 91E0      		ldi r25,hi8(256)
 5403 1a54 E0E0      		ldi r30,lo8(display_buffer)
 5404 1a56 F0E0      		ldi r31,hi8(display_buffer)
 5405 1a58 DF01      		movw r26,r30
 5406 1a5a 9C01      		movw r18,r24
 5407 1a5c 1D92      		st X+,__zero_reg__
 5408 1a5e 2150      		subi r18,1
 5409 1a60 3040      		sbci r19,0
 5410 1a62 01F4      		brne .-8
 5411               	.LBE389:
 5412               	.LBE388:
 5413               	.LM947:
 5414 1a64 8091 0000 		lds r24,RunParameter+18
 5415 1a68 8823      		tst r24
 5416 1a6a 01F0      		breq .L450
 5417               	.LM948:
 5418 1a6c 80E0      		ldi r24,lo8(0)
 5419 1a6e 60E0      		ldi r22,lo8(0)
 5420 1a70 48E0      		ldi r20,lo8(8)
 5421 1a72 0E94 0000 		call writeOneChinese
 5422               	.LM949:
 5423 1a76 82E0      		ldi r24,lo8(2)
 5424 1a78 60E0      		ldi r22,lo8(0)
 5425 1a7a 49E0      		ldi r20,lo8(9)
 5426 1a7c 0E94 0000 		call writeOneChinese
 5427               	.LM950:
 5428 1a80 80E0      		ldi r24,lo8(0)
 5429 1a82 60E1      		ldi r22,lo8(16)
 5430 1a84 4CE0      		ldi r20,lo8(12)
 5431 1a86 0E94 0000 		call writeOneChinese
 5432               	.LM951:
 5433 1a8a 82E0      		ldi r24,lo8(2)
 5434 1a8c 60E1      		ldi r22,lo8(16)
 5435 1a8e 4BE0      		ldi r20,lo8(11)
 5436 1a90 0E94 0000 		call writeOneChinese
 5437 1a94 E0E0      		ldi r30,lo8(SCROLL+300)
 5438 1a96 F0E0      		ldi r31,hi8(SCROLL+300)
 5439 1a98 A0E0      		ldi r26,lo8(display_buffer+180)
 5440 1a9a B0E0      		ldi r27,hi8(display_buffer+180)
 5441               	.L451:
 5442               	.LBB390:
 5443               	.LBB391:
 5444               	.LBB392:
 5445               	.LM952:
 5446               	/* #APP */
 5447               	 ;  112 "_Display.h" 1
 5448 1a9c 8491      		lpm r24, Z
 5449               		
 5450               	 ;  0 "" 2
 5451               	.LVL189:
 5452               	/* #NOAPP */
 5453               	.LBE392:
 5454               	.LM953:
 5455 1a9e 8C93      		st X,r24
 5456 1aa0 3196      		adiw r30,1
 5457 1aa2 1896      		adiw r26,8
 5458               	.LM954:
 5459 1aa4 30E0      		ldi r19,hi8(SCROLL+310)
 5460 1aa6 E030      		cpi r30,lo8(SCROLL+310)
 5461 1aa8 F307      		cpc r31,r19
 5462 1aaa 01F4      		brne .L451
 5463               	.LBE391:
 5464               	.LBE390:
 5465               	.LM955:
 5466 1aac 85E0      		ldi r24,lo8(5)
 5467               	.LVL190:
 5468 1aae 60E0      		ldi r22,lo8(0)
 5469 1ab0 4091 0000 		lds r20,RunParameter+19
 5470 1ab4 0E94 0000 		call wirteOneBigNumber
 5471 1ab8 0895      		ret
 5472               	.L450:
 5473               	.LM956:
 5474 1aba 0E94 0000 		call FreshDisplayBufferAjustLightMode
 5475 1abe 0895      		ret
 5476               	.LFE41:
 5478               	.global	FreshDisplayBufferVoiceMode
 5480               	FreshDisplayBufferVoiceMode:
 5481               	.LFB39:
 5482               	.LM957:
 5483               	/* prologue: function */
 5484               	/* frame size = 0 */
 5485               	.LBB393:
 5486               	.LBB394:
 5487               	.LM958:
 5488 1ac0 80E0      		ldi r24,lo8(256)
 5489 1ac2 91E0      		ldi r25,hi8(256)
 5490 1ac4 E0E0      		ldi r30,lo8(display_buffer)
 5491 1ac6 F0E0      		ldi r31,hi8(display_buffer)
 5492 1ac8 DF01      		movw r26,r30
 5493 1aca 9C01      		movw r18,r24
 5494 1acc 1D92      		st X+,__zero_reg__
 5495 1ace 2150      		subi r18,1
 5496 1ad0 3040      		sbci r19,0
 5497 1ad2 01F4      		brne .-8
 5498               	.LBE394:
 5499               	.LBE393:
 5500               	.LM959:
 5501 1ad4 80E0      		ldi r24,lo8(0)
 5502 1ad6 60E0      		ldi r22,lo8(0)
 5503 1ad8 48E2      		ldi r20,lo8(40)
 5504 1ada 0E94 0000 		call writeOneChinese
 5505               	.LM960:
 5506 1ade 82E0      		ldi r24,lo8(2)
 5507 1ae0 60E0      		ldi r22,lo8(0)
 5508 1ae2 49E2      		ldi r20,lo8(41)
 5509 1ae4 0E94 0000 		call writeOneChinese
 5510               	.LM961:
 5511 1ae8 80E0      		ldi r24,lo8(0)
 5512 1aea 60E1      		ldi r22,lo8(16)
 5513 1aec 4AE2      		ldi r20,lo8(42)
 5514 1aee 0E94 0000 		call writeOneChinese
 5515               	.LM962:
 5516 1af2 82E0      		ldi r24,lo8(2)
 5517 1af4 60E1      		ldi r22,lo8(16)
 5518 1af6 4DE0      		ldi r20,lo8(13)
 5519 1af8 0E94 0000 		call writeOneChinese
 5520 1afc E0E0      		ldi r30,lo8(SCROLL+300)
 5521 1afe F0E0      		ldi r31,hi8(SCROLL+300)
 5522 1b00 A0E0      		ldi r26,lo8(display_buffer+180)
 5523 1b02 B0E0      		ldi r27,hi8(display_buffer+180)
 5524               	.L456:
 5525               	.LBB395:
 5526               	.LBB396:
 5527               	.LBB397:
 5528               	.LM963:
 5529               	/* #APP */
 5530               	 ;  112 "_Display.h" 1
 5531 1b04 8491      		lpm r24, Z
 5532               		
 5533               	 ;  0 "" 2
 5534               	.LVL191:
 5535               	/* #NOAPP */
 5536               	.LBE397:
 5537               	.LM964:
 5538 1b06 8C93      		st X,r24
 5539 1b08 3196      		adiw r30,1
 5540 1b0a 1896      		adiw r26,8
 5541               	.LM965:
 5542 1b0c 30E0      		ldi r19,hi8(SCROLL+310)
 5543 1b0e E030      		cpi r30,lo8(SCROLL+310)
 5544 1b10 F307      		cpc r31,r19
 5545 1b12 01F4      		brne .L456
 5546               	.LBE396:
 5547               	.LBE395:
 5548               	.LM966:
 5549 1b14 8091 0000 		lds r24,RunParameter+28
 5550               	.LVL192:
 5551 1b18 8823      		tst r24
 5552 1b1a 01F4      		brne .L457
 5553               	.LM967:
 5554 1b1c 86E0      		ldi r24,lo8(6)
 5555 1b1e 60E0      		ldi r22,lo8(0)
 5556 1b20 4BE2      		ldi r20,lo8(43)
 5557 1b22 0E94 0000 		call writeOneChinese
 5558               	.LM968:
 5559 1b26 86E0      		ldi r24,lo8(6)
 5560 1b28 60E1      		ldi r22,lo8(16)
 5561 1b2a 4CE2      		ldi r20,lo8(44)
 5562 1b2c 00C0      		rjmp .L462
 5563               	.L457:
 5564               	.LM969:
 5565 1b2e 8130      		cpi r24,lo8(1)
 5566 1b30 01F4      		brne .L459
 5567               	.LM970:
 5568 1b32 86E0      		ldi r24,lo8(6)
 5569 1b34 60E0      		ldi r22,lo8(0)
 5570 1b36 4DE2      		ldi r20,lo8(45)
 5571 1b38 0E94 0000 		call writeOneChinese
 5572               	.LM971:
 5573 1b3c 86E0      		ldi r24,lo8(6)
 5574 1b3e 60E1      		ldi r22,lo8(16)
 5575 1b40 4EE2      		ldi r20,lo8(46)
 5576 1b42 00C0      		rjmp .L462
 5577               	.L459:
 5578               	.LM972:
 5579 1b44 86E0      		ldi r24,lo8(6)
 5580 1b46 60E0      		ldi r22,lo8(0)
 5581 1b48 4FE2      		ldi r20,lo8(47)
 5582 1b4a 0E94 0000 		call writeOneChinese
 5583               	.LM973:
 5584 1b4e 86E0      		ldi r24,lo8(6)
 5585 1b50 60E1      		ldi r22,lo8(16)
 5586 1b52 40E3      		ldi r20,lo8(48)
 5587               	.L462:
 5588 1b54 0E94 0000 		call writeOneChinese
 5589 1b58 0895      		ret
 5590               	.LFE39:
 5592               	.global	FreshDisplayBufferAjustSpeed
 5594               	FreshDisplayBufferAjustSpeed:
 5595               	.LFB38:
 5596               	.LM974:
 5597               	/* prologue: function */
 5598               	/* frame size = 0 */
 5599               	.LBB398:
 5600               	.LBB399:
 5601               	.LM975:
 5602 1b5a 80E0      		ldi r24,lo8(256)
 5603 1b5c 91E0      		ldi r25,hi8(256)
 5604 1b5e E0E0      		ldi r30,lo8(display_buffer)
 5605 1b60 F0E0      		ldi r31,hi8(display_buffer)
 5606 1b62 DF01      		movw r26,r30
 5607 1b64 9C01      		movw r18,r24
 5608 1b66 1D92      		st X+,__zero_reg__
 5609 1b68 2150      		subi r18,1
 5610 1b6a 3040      		sbci r19,0
 5611 1b6c 01F4      		brne .-8
 5612               	.LBE399:
 5613               	.LBE398:
 5614               	.LM976:
 5615 1b6e 80E0      		ldi r24,lo8(0)
 5616 1b70 60E0      		ldi r22,lo8(0)
 5617 1b72 48E0      		ldi r20,lo8(8)
 5618 1b74 0E94 0000 		call writeOneChinese
 5619               	.LM977:
 5620 1b78 82E0      		ldi r24,lo8(2)
 5621 1b7a 60E0      		ldi r22,lo8(0)
 5622 1b7c 49E0      		ldi r20,lo8(9)
 5623 1b7e 0E94 0000 		call writeOneChinese
 5624               	.LM978:
 5625 1b82 80E0      		ldi r24,lo8(0)
 5626 1b84 60E1      		ldi r22,lo8(16)
 5627 1b86 4AE0      		ldi r20,lo8(10)
 5628 1b88 0E94 0000 		call writeOneChinese
 5629               	.LM979:
 5630 1b8c 82E0      		ldi r24,lo8(2)
 5631 1b8e 60E1      		ldi r22,lo8(16)
 5632 1b90 4BE0      		ldi r20,lo8(11)
 5633 1b92 0E94 0000 		call writeOneChinese
 5634 1b96 E0E0      		ldi r30,lo8(SCROLL+300)
 5635 1b98 F0E0      		ldi r31,hi8(SCROLL+300)
 5636 1b9a A0E0      		ldi r26,lo8(display_buffer+180)
 5637 1b9c B0E0      		ldi r27,hi8(display_buffer+180)
 5638               	.L464:
 5639               	.LBB400:
 5640               	.LBB401:
 5641               	.LBB402:
 5642               	.LM980:
 5643               	/* #APP */
 5644               	 ;  112 "_Display.h" 1
 5645 1b9e 8491      		lpm r24, Z
 5646               		
 5647               	 ;  0 "" 2
 5648               	.LVL193:
 5649               	/* #NOAPP */
 5650               	.LBE402:
 5651               	.LM981:
 5652 1ba0 8C93      		st X,r24
 5653 1ba2 3196      		adiw r30,1
 5654 1ba4 1896      		adiw r26,8
 5655               	.LM982:
 5656 1ba6 30E0      		ldi r19,hi8(SCROLL+310)
 5657 1ba8 E030      		cpi r30,lo8(SCROLL+310)
 5658 1baa F307      		cpc r31,r19
 5659 1bac 01F4      		brne .L464
 5660               	.LBE401:
 5661               	.LBE400:
 5662               	.LM983:
 5663 1bae 85E0      		ldi r24,lo8(5)
 5664               	.LVL194:
 5665 1bb0 60E0      		ldi r22,lo8(0)
 5666 1bb2 4091 0000 		lds r20,RunParameter+20
 5667 1bb6 0E94 0000 		call wirteOneBigNumber
 5668               	/* epilogue start */
 5669               	.LM984:
 5670 1bba 0895      		ret
 5671               	.LFE38:
 5673               	.global	FreshDisplayBufferAjustWeek
 5675               	FreshDisplayBufferAjustWeek:
 5676               	.LFB37:
 5677               	.LM985:
 5678               	/* prologue: function */
 5679               	/* frame size = 0 */
 5680               	.LBB403:
 5681               	.LBB404:
 5682               	.LM986:
 5683 1bbc 80E0      		ldi r24,lo8(256)
 5684 1bbe 91E0      		ldi r25,hi8(256)
 5685 1bc0 E0E0      		ldi r30,lo8(display_buffer)
 5686 1bc2 F0E0      		ldi r31,hi8(display_buffer)
 5687 1bc4 DF01      		movw r26,r30
 5688 1bc6 9C01      		movw r18,r24
 5689 1bc8 1D92      		st X+,__zero_reg__
 5690 1bca 2150      		subi r18,1
 5691 1bcc 3040      		sbci r19,0
 5692 1bce 01F4      		brne .-8
 5693               	.LBE404:
 5694               	.LBE403:
 5695               	.LM987:
 5696 1bd0 80E0      		ldi r24,lo8(0)
 5697 1bd2 60E0      		ldi r22,lo8(0)
 5698 1bd4 48E0      		ldi r20,lo8(8)
 5699 1bd6 0E94 0000 		call writeOneChinese
 5700               	.LM988:
 5701 1bda 82E0      		ldi r24,lo8(2)
 5702 1bdc 60E0      		ldi r22,lo8(0)
 5703 1bde 49E0      		ldi r20,lo8(9)
 5704 1be0 0E94 0000 		call writeOneChinese
 5705               	.LM989:
 5706 1be4 80E0      		ldi r24,lo8(0)
 5707 1be6 60E1      		ldi r22,lo8(16)
 5708 1be8 45E1      		ldi r20,lo8(21)
 5709 1bea 0E94 0000 		call writeOneChinese
 5710               	.LM990:
 5711 1bee 82E0      		ldi r24,lo8(2)
 5712 1bf0 60E1      		ldi r22,lo8(16)
 5713 1bf2 46E1      		ldi r20,lo8(22)
 5714 1bf4 0E94 0000 		call writeOneChinese
 5715 1bf8 E0E0      		ldi r30,lo8(SCROLL+300)
 5716 1bfa F0E0      		ldi r31,hi8(SCROLL+300)
 5717 1bfc A0E0      		ldi r26,lo8(display_buffer+180)
 5718 1bfe B0E0      		ldi r27,hi8(display_buffer+180)
 5719               	.L468:
 5720               	.LBB405:
 5721               	.LBB406:
 5722               	.LBB407:
 5723               	.LM991:
 5724               	/* #APP */
 5725               	 ;  112 "_Display.h" 1
 5726 1c00 8491      		lpm r24, Z
 5727               		
 5728               	 ;  0 "" 2
 5729               	.LVL195:
 5730               	/* #NOAPP */
 5731               	.LBE407:
 5732               	.LM992:
 5733 1c02 8C93      		st X,r24
 5734 1c04 3196      		adiw r30,1
 5735 1c06 1896      		adiw r26,8
 5736               	.LM993:
 5737 1c08 30E0      		ldi r19,hi8(SCROLL+310)
 5738 1c0a E030      		cpi r30,lo8(SCROLL+310)
 5739 1c0c F307      		cpc r31,r19
 5740 1c0e 01F4      		brne .L468
 5741               	.LBE406:
 5742               	.LBE405:
 5743               	.LM994:
 5744 1c10 85E0      		ldi r24,lo8(5)
 5745               	.LVL196:
 5746 1c12 60E0      		ldi r22,lo8(0)
 5747 1c14 4091 0000 		lds r20,RunParameter+14
 5748 1c18 0E94 0000 		call wirteOneBigNumber
 5749               	/* epilogue start */
 5750               	.LM995:
 5751 1c1c 0895      		ret
 5752               	.LFE37:
 5754               	.global	FreshDisplayComment
 5756               	FreshDisplayComment:
 5757               	.LFB31:
 5758               	.LM996:
 5759               	.LVL197:
 5760 1c1e DF92      		push r13
 5761 1c20 EF92      		push r14
 5762 1c22 FF92      		push r15
 5763 1c24 0F93      		push r16
 5764 1c26 1F93      		push r17
 5765               	/* prologue: function */
 5766               	/* frame size = 0 */
 5767 1c28 8C01      		movw r16,r24
 5768 1c2a 7B01      		movw r14,r22
 5769 1c2c D42E      		mov r13,r20
 5770               	.LBB408:
 5771               	.LBB409:
 5772               	.LM997:
 5773 1c2e 80E0      		ldi r24,lo8(256)
 5774 1c30 91E0      		ldi r25,hi8(256)
 5775               	.LVL198:
 5776 1c32 E0E0      		ldi r30,lo8(display_buffer)
 5777 1c34 F0E0      		ldi r31,hi8(display_buffer)
 5778 1c36 DF01      		movw r26,r30
 5779 1c38 9C01      		movw r18,r24
 5780 1c3a 1D92      		st X+,__zero_reg__
 5781 1c3c 2150      		subi r18,1
 5782 1c3e 3040      		sbci r19,0
 5783 1c40 01F4      		brne .-8
 5784               	.LBE409:
 5785               	.LBE408:
 5786               	.LM998:
 5787 1c42 80E0      		ldi r24,lo8(0)
 5788 1c44 60E0      		ldi r22,lo8(0)
 5789               	.LVL199:
 5790 1c46 48E0      		ldi r20,lo8(8)
 5791               	.LVL200:
 5792 1c48 0E94 0000 		call writeOneChinese
 5793               	.LM999:
 5794 1c4c 80E0      		ldi r24,lo8(0)
 5795 1c4e 60E1      		ldi r22,lo8(16)
 5796 1c50 49E0      		ldi r20,lo8(9)
 5797 1c52 0E94 0000 		call writeOneChinese
 5798               	.LM1000:
 5799 1c56 82E0      		ldi r24,lo8(2)
 5800 1c58 60E0      		ldi r22,lo8(0)
 5801 1c5a D801      		movw r26,r16
 5802 1c5c 4C91      		ld r20,X
 5803 1c5e 0E94 0000 		call wirteOneBigNumber
 5804               	.LM1001:
 5805 1c62 84E0      		ldi r24,lo8(4)
 5806 1c64 60E0      		ldi r22,lo8(0)
 5807 1c66 F701      		movw r30,r14
 5808 1c68 4081      		ld r20,Z
 5809 1c6a 0E94 0000 		call wirteOneBigNumber
 5810               	.LM1002:
 5811 1c6e 86E0      		ldi r24,lo8(6)
 5812 1c70 60E1      		ldi r22,lo8(16)
 5813 1c72 4D2D      		mov r20,r13
 5814 1c74 0E94 0000 		call writeOneChinese
 5815               	/* epilogue start */
 5816               	.LM1003:
 5817 1c78 1F91      		pop r17
 5818 1c7a 0F91      		pop r16
 5819               	.LVL201:
 5820 1c7c FF90      		pop r15
 5821 1c7e EF90      		pop r14
 5822               	.LVL202:
 5823 1c80 DF90      		pop r13
 5824               	.LVL203:
 5825 1c82 0895      		ret
 5826               	.LFE31:
 5828               	.global	FreshDisplayBufferAjustMinute
 5830               	FreshDisplayBufferAjustMinute:
 5831               	.LFB36:
 5832               	.LM1004:
 5833               	/* prologue: function */
 5834               	/* frame size = 0 */
 5835               	.LM1005:
 5836 1c84 60E0      		ldi r22,lo8(RunParameter+10)
 5837 1c86 70E0      		ldi r23,hi8(RunParameter+10)
 5838 1c88 CB01      		movw r24,r22
 5839 1c8a 6F5F      		subi r22,lo8(-(1))
 5840 1c8c 7F4F      		sbci r23,hi8(-(1))
 5841 1c8e 42E1      		ldi r20,lo8(18)
 5842 1c90 0E94 0000 		call FreshDisplayComment
 5843               	/* epilogue start */
 5844               	.LM1006:
 5845 1c94 0895      		ret
 5846               	.LFE36:
 5848               	.global	FreshDisplayBufferAjustHour
 5850               	FreshDisplayBufferAjustHour:
 5851               	.LFB35:
 5852               	.LM1007:
 5853               	/* prologue: function */
 5854               	/* frame size = 0 */
 5855               	.LM1008:
 5856 1c96 60E0      		ldi r22,lo8(RunParameter+8)
 5857 1c98 70E0      		ldi r23,hi8(RunParameter+8)
 5858 1c9a CB01      		movw r24,r22
 5859 1c9c 6F5F      		subi r22,lo8(-(1))
 5860 1c9e 7F4F      		sbci r23,hi8(-(1))
 5861 1ca0 4DE0      		ldi r20,lo8(13)
 5862 1ca2 0E94 0000 		call FreshDisplayComment
 5863               	/* epilogue start */
 5864               	.LM1009:
 5865 1ca6 0895      		ret
 5866               	.LFE35:
 5868               	.global	FreshDisplayBufferAjustDay
 5870               	FreshDisplayBufferAjustDay:
 5871               	.LFB34:
 5872               	.LM1010:
 5873               	/* prologue: function */
 5874               	/* frame size = 0 */
 5875               	.LM1011:
 5876 1ca8 60E0      		ldi r22,lo8(RunParameter+6)
 5877 1caa 70E0      		ldi r23,hi8(RunParameter+6)
 5878 1cac CB01      		movw r24,r22
 5879 1cae 6F5F      		subi r22,lo8(-(1))
 5880 1cb0 7F4F      		sbci r23,hi8(-(1))
 5881 1cb2 41E1      		ldi r20,lo8(17)
 5882 1cb4 0E94 0000 		call FreshDisplayComment
 5883               	/* epilogue start */
 5884               	.LM1012:
 5885 1cb8 0895      		ret
 5886               	.LFE34:
 5888               	.global	FreshDisplayBufferAjustMonth
 5890               	FreshDisplayBufferAjustMonth:
 5891               	.LFB33:
 5892               	.LM1013:
 5893               	/* prologue: function */
 5894               	/* frame size = 0 */
 5895               	.LM1014:
 5896 1cba 60E0      		ldi r22,lo8(RunParameter+4)
 5897 1cbc 70E0      		ldi r23,hi8(RunParameter+4)
 5898 1cbe CB01      		movw r24,r22
 5899 1cc0 6F5F      		subi r22,lo8(-(1))
 5900 1cc2 7F4F      		sbci r23,hi8(-(1))
 5901 1cc4 40E1      		ldi r20,lo8(16)
 5902 1cc6 0E94 0000 		call FreshDisplayComment
 5903               	/* epilogue start */
 5904               	.LM1015:
 5905 1cca 0895      		ret
 5906               	.LFE33:
 5908               	.global	FreshDisplayBufferAjustYear
 5910               	FreshDisplayBufferAjustYear:
 5911               	.LFB32:
 5912               	.LM1016:
 5913               	/* prologue: function */
 5914               	/* frame size = 0 */
 5915               	.LM1017:
 5916 1ccc 60E0      		ldi r22,lo8(RunParameter+2)
 5917 1cce 70E0      		ldi r23,hi8(RunParameter+2)
 5918 1cd0 CB01      		movw r24,r22
 5919 1cd2 6F5F      		subi r22,lo8(-(1))
 5920 1cd4 7F4F      		sbci r23,hi8(-(1))
 5921 1cd6 4FE0      		ldi r20,lo8(15)
 5922 1cd8 0E94 0000 		call FreshDisplayComment
 5923               	/* epilogue start */
 5924               	.LM1018:
 5925 1cdc 0895      		ret
 5926               	.LFE32:
 5928               	.global	Scan_Key
 5930               	Scan_Key:
 5931               	.LFB65:
 5932               	.LM1019:
 5933 1cde 0F93      		push r16
 5934 1ce0 1F93      		push r17
 5935 1ce2 DF93      		push r29
 5936 1ce4 CF93      		push r28
 5937 1ce6 0F92      		push __tmp_reg__
 5938 1ce8 CDB7      		in r28,__SP_L__
 5939 1cea DEB7      		in r29,__SP_H__
 5940               	/* prologue: function */
 5941               	/* frame size = 1 */
 5942               	.LM1020:
 5943 1cec 8091 0000 		lds r24,RunParameter+21
 5944 1cf0 8823      		tst r24
 5945 1cf2 01F0      		breq .L484
 5946 1cf4 8B31      		cpi r24,lo8(27)
 5947 1cf6 01F0      		breq .L484
 5948 1cf8 8A31      		cpi r24,lo8(26)
 5949 1cfa 01F0      		breq .L484
 5950 1cfc 8091 0000 		lds r24,KEY_Time_count
 5951 1d00 9091 0000 		lds r25,(KEY_Time_count)+1
 5952 1d04 8950      		subi r24,lo8(21001)
 5953 1d06 9245      		sbci r25,hi8(21001)
 5954 1d08 00F0      		brlo .L484
 5955               	.LM1021:
 5956 1d0a 1092 0000 		sts RunParameter+21,__zero_reg__
 5957               	.LM1022:
 5958 1d0e 0E94 0000 		call Write_time
 5959               	.LM1023:
 5960 1d12 0E94 0000 		call SaveRunParameter
 5961               	.LBB410:
 5962               	.LBB411:
 5963               	.LM1024:
 5964 1d16 80E0      		ldi r24,lo8(256)
 5965 1d18 91E0      		ldi r25,hi8(256)
 5966 1d1a E0E0      		ldi r30,lo8(display_buffer)
 5967 1d1c F0E0      		ldi r31,hi8(display_buffer)
 5968 1d1e DF01      		movw r26,r30
 5969 1d20 9C01      		movw r18,r24
 5970 1d22 1D92      		st X+,__zero_reg__
 5971 1d24 2150      		subi r18,1
 5972 1d26 3040      		sbci r19,0
 5973 1d28 01F4      		brne .-8
 5974               	.LBE411:
 5975               	.LBE410:
 5976               	.LM1025:
 5977 1d2a 0E94 0000 		call FreshDisplayBufferNormal
 5978               	.L484:
 5979               	.LM1026:
 5980 1d2e 8091 0000 		lds r24,RunParameter+21
 5981 1d32 8A51      		subi r24,lo8(-(-26))
 5982 1d34 8230      		cpi r24,lo8(2)
 5983 1d36 00F4      		brsh .L485
 5984               	.LM1027:
 5985 1d38 8091 0000 		lds r24,KEY_Time_count_speed_color
 5986 1d3c 9091 0000 		lds r25,(KEY_Time_count_speed_color)+1
 5987 1d40 855F      		subi r24,lo8(501)
 5988 1d42 9140      		sbci r25,hi8(501)
 5989 1d44 00F0      		brlo .L485
 5990               	.LM1028:
 5991 1d46 1092 0000 		sts RunParameter+21,__zero_reg__
 5992               	.LM1029:
 5993 1d4a 0E94 0000 		call SaveRunParameter
 5994               	.LM1030:
 5995 1d4e 0E94 0000 		call FreshDisplayBufferNormal
 5996               	.L485:
 5997               	.LM1031:
 5998 1d52 8199      		sbic 48-32,1
 5999 1d54 00C0      		rjmp .L486
 6000               	.LBB412:
 6001               	.LBB413:
 6002               	.LBB414:
 6003               	.LBB415:
 6004               	.LM1032:
 6005 1d56 80E2      		ldi r24,lo8(20000)
 6006 1d58 9EE4      		ldi r25,hi8(20000)
 6007               	.LVL204:
 6008               	/* #APP */
 6009               	 ;  105 "c:/winavr-20090313/lib/gcc/../../avr/include/util/delay_basic.h" 1
 6010 1d5a 0197      		1: sbiw r24,1
 6011 1d5c 01F4      		brne 1b
 6012               	 ;  0 "" 2
 6013               	/* #NOAPP */
 6014               	.LBE415:
 6015               	.LBE414:
 6016               	.LBE413:
 6017               	.LBE412:
 6018               	.LM1033:
 6019 1d5e 8199      		sbic 48-32,1
 6020 1d60 00C0      		rjmp .L536
 6021               	.LM1034:
 6022 1d62 81E0      		ldi r24,lo8(1)
 6023               	.LVL205:
 6024 1d64 8093 0000 		sts SPEEK_TIME_Status,r24
 6025               	.LM1035:
 6026 1d68 8091 0000 		lds r24,RunParameter+26
 6027 1d6c 8F5F      		subi r24,lo8(-(1))
 6028 1d6e 8093 0000 		sts RunParameter+26,r24
 6029               	.LM1036:
 6030 1d72 8530      		cpi r24,lo8(5)
 6031 1d74 00F0      		brlo .L488
 6032               	.LM1037:
 6033 1d76 1092 0000 		sts RunParameter+26,__zero_reg__
 6034               	.L488:
 6035               	.LM1038:
 6036 1d7a 0E94 0000 		call SaveRunParameter
 6037               	.LVL206:
 6038               	.L536:
 6039               	.LM1039:
 6040 1d7e 819B      		sbis 48-32,1
 6041 1d80 00C0      		rjmp .L536
 6042               	.L486:
 6043               	.LM1040:
 6044 1d82 8091 0000 		lds r24,RunParameter+21
 6045               	.LVL207:
 6046 1d86 8823      		tst r24
 6047 1d88 01F0      		breq .L489
 6048 1d8a 8B31      		cpi r24,lo8(27)
 6049 1d8c 01F0      		breq .L489
 6050 1d8e 8A31      		cpi r24,lo8(26)
 6051 1d90 01F0      		breq .+2
 6052 1d92 00C0      		rjmp .L490
 6053               	.L489:
 6054               	.LM1041:
 6055 1d94 9E99      		sbic 51-32,6
 6056 1d96 00C0      		rjmp .L491
 6057               	.LBB416:
 6058               	.LBB417:
 6059               	.LBB418:
 6060               	.LBB419:
 6061               	.LM1042:
 6062 1d98 80E2      		ldi r24,lo8(20000)
 6063 1d9a 9EE4      		ldi r25,hi8(20000)
 6064               	.LVL208:
 6065               	/* #APP */
 6066               	 ;  105 "c:/winavr-20090313/lib/gcc/../../avr/include/util/delay_basic.h" 1
 6067 1d9c 0197      		1: sbiw r24,1
 6068 1d9e 01F4      		brne 1b
 6069               	 ;  0 "" 2
 6070               	/* #NOAPP */
 6071               	.LBE419:
 6072               	.LBE418:
 6073               	.LBE417:
 6074               	.LBE416:
 6075               	.LM1043:
 6076 1da0 9E99      		sbic 51-32,6
 6077 1da2 00C0      		rjmp .L533
 6078               	.LM1044:
 6079 1da4 84E6      		ldi r24,lo8(100)
 6080               	.LVL209:
 6081 1da6 8093 0000 		sts SPEEK_TIME_Status,r24
 6082               	.LM1045:
 6083 1daa 8091 0000 		lds r24,RunParameter+18
 6084 1dae 8823      		tst r24
 6085 1db0 01F0      		breq .L493
 6086               	.LM1046:
 6087 1db2 8091 0000 		lds r24,RunParameter+19
 6088 1db6 8F5F      		subi r24,lo8(-(1))
 6089 1db8 8093 0000 		sts RunParameter+19,r24
 6090               	.LM1047:
 6091 1dbc 8930      		cpi r24,lo8(9)
 6092 1dbe 00F0      		brlo .L494
 6093               	.LM1048:
 6094 1dc0 81E0      		ldi r24,lo8(1)
 6095 1dc2 8093 0000 		sts RunParameter+19,r24
 6096               	.L494:
 6097               	.LM1049:
 6098 1dc6 8091 0000 		lds r24,RunParameter+19
 6099 1dca 29E1      		ldi r18,lo8(25)
 6100 1dcc 829F      		mul r24,r18
 6101 1dce C001      		movw r24,r0
 6102 1dd0 1124      		clr r1
 6103 1dd2 8851      		subi r24,lo8(-(-24))
 6104 1dd4 8CBF      		out 92-32,r24
 6105               	.L493:
 6106               	.LM1050:
 6107 1dd6 8BE1      		ldi r24,lo8(27)
 6108 1dd8 8093 0000 		sts RunParameter+21,r24
 6109               	.LM1051:
 6110 1ddc 1092 0000 		sts (KEY_Time_count_speed_color)+1,__zero_reg__
 6111 1de0 1092 0000 		sts KEY_Time_count_speed_color,__zero_reg__
 6112               	.LM1052:
 6113 1de4 0E94 0000 		call FreshDisplayBufferAjustLight
 6114               	.LVL210:
 6115               	.L533:
 6116               	.LM1053:
 6117 1de8 9E9B      		sbis 51-32,6
 6118 1dea 00C0      		rjmp .L533
 6119               	.L491:
 6120               	.LM1054:
 6121 1dec 9F99      		sbic 51-32,7
 6122 1dee 00C0      		rjmp .L495
 6123               	.LBB420:
 6124               	.LBB421:
 6125               	.LBB422:
 6126               	.LBB423:
 6127               	.LM1055:
 6128 1df0 80E2      		ldi r24,lo8(20000)
 6129 1df2 9EE4      		ldi r25,hi8(20000)
 6130               	.LVL211:
 6131               	/* #APP */
 6132               	 ;  105 "c:/winavr-20090313/lib/gcc/../../avr/include/util/delay_basic.h" 1
 6133 1df4 0197      		1: sbiw r24,1
 6134 1df6 01F4      		brne 1b
 6135               	 ;  0 "" 2
 6136               	/* #NOAPP */
 6137               	.LBE423:
 6138               	.LBE422:
 6139               	.LBE421:
 6140               	.LBE420:
 6141               	.LM1056:
 6142 1df8 9F99      		sbic 51-32,7
 6143 1dfa 00C0      		rjmp .L532
 6144               	.LM1057:
 6145 1dfc 84E6      		ldi r24,lo8(100)
 6146               	.LVL212:
 6147 1dfe 8093 0000 		sts SPEEK_TIME_Status,r24
 6148               	.LM1058:
 6149 1e02 8091 0000 		lds r24,RunParameter+20
 6150 1e06 8F5F      		subi r24,lo8(-(1))
 6151 1e08 8093 0000 		sts RunParameter+20,r24
 6152               	.LM1059:
 6153 1e0c 8930      		cpi r24,lo8(9)
 6154 1e0e 00F0      		brlo .L497
 6155               	.LM1060:
 6156 1e10 81E0      		ldi r24,lo8(1)
 6157 1e12 8093 0000 		sts RunParameter+20,r24
 6158               	.L497:
 6159               	.LM1061:
 6160 1e16 8AE1      		ldi r24,lo8(26)
 6161 1e18 8093 0000 		sts RunParameter+21,r24
 6162               	.LM1062:
 6163 1e1c 1092 0000 		sts (KEY_Time_count_speed_color)+1,__zero_reg__
 6164 1e20 1092 0000 		sts KEY_Time_count_speed_color,__zero_reg__
 6165               	.LM1063:
 6166 1e24 0E94 0000 		call FreshDisplayBufferAjustSpeed
 6167               	.LVL213:
 6168               	.L532:
 6169               	.LM1064:
 6170 1e28 9F9B      		sbis 51-32,7
 6171 1e2a 00C0      		rjmp .L532
 6172 1e2c 00C0      		rjmp .L495
 6173               	.LVL214:
 6174               	.L490:
 6175               	.LM1065:
 6176 1e2e 8130      		cpi r24,lo8(1)
 6177 1e30 01F4      		brne .L498
 6178               	.LM1066:
 6179 1e32 83E6      		ldi r24,lo8(99)
 6180 1e34 60E0      		ldi r22,lo8(0)
 6181 1e36 40E0      		ldi r20,lo8(RunParameter+2)
 6182 1e38 50E0      		ldi r21,hi8(RunParameter+2)
 6183 1e3a 20E0      		ldi r18,lo8(RunParameter+3)
 6184 1e3c 30E0      		ldi r19,hi8(RunParameter+3)
 6185 1e3e 00E0      		ldi r16,lo8(gs(FreshDisplayBufferAjustYear))
 6186 1e40 10E0      		ldi r17,hi8(gs(FreshDisplayBufferAjustYear))
 6187 1e42 00C0      		rjmp .L543
 6188               	.L498:
 6189               	.LM1067:
 6190 1e44 8230      		cpi r24,lo8(2)
 6191 1e46 01F4      		brne .L499
 6192               	.LM1068:
 6193 1e48 8CE0      		ldi r24,lo8(12)
 6194 1e4a 61E0      		ldi r22,lo8(1)
 6195 1e4c 40E0      		ldi r20,lo8(RunParameter+4)
 6196 1e4e 50E0      		ldi r21,hi8(RunParameter+4)
 6197 1e50 20E0      		ldi r18,lo8(RunParameter+5)
 6198 1e52 30E0      		ldi r19,hi8(RunParameter+5)
 6199 1e54 00E0      		ldi r16,lo8(gs(FreshDisplayBufferAjustMonth))
 6200 1e56 10E0      		ldi r17,hi8(gs(FreshDisplayBufferAjustMonth))
 6201 1e58 00C0      		rjmp .L543
 6202               	.L499:
 6203               	.LM1069:
 6204 1e5a 8330      		cpi r24,lo8(3)
 6205 1e5c 01F4      		brne .L500
 6206               	.LM1070:
 6207 1e5e 8FE1      		ldi r24,lo8(31)
 6208 1e60 61E0      		ldi r22,lo8(1)
 6209 1e62 40E0      		ldi r20,lo8(RunParameter+6)
 6210 1e64 50E0      		ldi r21,hi8(RunParameter+6)
 6211 1e66 20E0      		ldi r18,lo8(RunParameter+7)
 6212 1e68 30E0      		ldi r19,hi8(RunParameter+7)
 6213 1e6a 00E0      		ldi r16,lo8(gs(FreshDisplayBufferAjustDay))
 6214 1e6c 10E0      		ldi r17,hi8(gs(FreshDisplayBufferAjustDay))
 6215 1e6e 00C0      		rjmp .L543
 6216               	.L500:
 6217               	.LM1071:
 6218 1e70 8430      		cpi r24,lo8(4)
 6219 1e72 01F4      		brne .L501
 6220               	.LM1072:
 6221 1e74 87E1      		ldi r24,lo8(23)
 6222 1e76 60E0      		ldi r22,lo8(0)
 6223 1e78 40E0      		ldi r20,lo8(RunParameter+8)
 6224 1e7a 50E0      		ldi r21,hi8(RunParameter+8)
 6225 1e7c 20E0      		ldi r18,lo8(RunParameter+9)
 6226 1e7e 30E0      		ldi r19,hi8(RunParameter+9)
 6227 1e80 00E0      		ldi r16,lo8(gs(FreshDisplayBufferAjustHour))
 6228 1e82 10E0      		ldi r17,hi8(gs(FreshDisplayBufferAjustHour))
 6229 1e84 00C0      		rjmp .L543
 6230               	.L501:
 6231               	.LM1073:
 6232 1e86 8530      		cpi r24,lo8(5)
 6233 1e88 01F4      		brne .L502
 6234               	.LM1074:
 6235 1e8a 8BE3      		ldi r24,lo8(59)
 6236 1e8c 60E0      		ldi r22,lo8(0)
 6237 1e8e 40E0      		ldi r20,lo8(RunParameter+10)
 6238 1e90 50E0      		ldi r21,hi8(RunParameter+10)
 6239 1e92 20E0      		ldi r18,lo8(RunParameter+11)
 6240 1e94 30E0      		ldi r19,hi8(RunParameter+11)
 6241 1e96 00E0      		ldi r16,lo8(gs(FreshDisplayBufferAjustMinute))
 6242 1e98 10E0      		ldi r17,hi8(gs(FreshDisplayBufferAjustMinute))
 6243 1e9a 00C0      		rjmp .L543
 6244               	.L502:
 6245               	.LM1075:
 6246 1e9c 8630      		cpi r24,lo8(6)
 6247 1e9e 01F4      		brne .L503
 6248               	.LBB424:
 6249               	.LM1076:
 6250 1ea0 1982      		std Y+1,__zero_reg__
 6251               	.LVL215:
 6252               	.LM1077:
 6253 1ea2 87E0      		ldi r24,lo8(7)
 6254 1ea4 61E0      		ldi r22,lo8(1)
 6255 1ea6 AE01      		movw r20,r28
 6256 1ea8 4F5F      		subi r20,lo8(-(1))
 6257 1eaa 5F4F      		sbci r21,hi8(-(1))
 6258 1eac 20E0      		ldi r18,lo8(RunParameter+14)
 6259 1eae 30E0      		ldi r19,hi8(RunParameter+14)
 6260 1eb0 00E0      		ldi r16,lo8(gs(FreshDisplayBufferAjustWeek))
 6261 1eb2 10E0      		ldi r17,hi8(gs(FreshDisplayBufferAjustWeek))
 6262 1eb4 00C0      		rjmp .L543
 6263               	.LVL216:
 6264               	.L503:
 6265               	.LBE424:
 6266               	.LM1078:
 6267 1eb6 8730      		cpi r24,lo8(7)
 6268 1eb8 01F4      		brne .L504
 6269               	.LBB425:
 6270               	.LM1079:
 6271 1eba 1982      		std Y+1,__zero_reg__
 6272               	.LVL217:
 6273               	.LM1080:
 6274 1ebc 81E0      		ldi r24,lo8(1)
 6275 1ebe 60E0      		ldi r22,lo8(0)
 6276 1ec0 AE01      		movw r20,r28
 6277 1ec2 4F5F      		subi r20,lo8(-(1))
 6278 1ec4 5F4F      		sbci r21,hi8(-(1))
 6279 1ec6 20E0      		ldi r18,lo8(RunParameter+18)
 6280 1ec8 30E0      		ldi r19,hi8(RunParameter+18)
 6281 1eca 00E0      		ldi r16,lo8(gs(FreshDisplayBufferAjustLightMode))
 6282 1ecc 10E0      		ldi r17,hi8(gs(FreshDisplayBufferAjustLightMode))
 6283 1ece 00C0      		rjmp .L543
 6284               	.LVL218:
 6285               	.L504:
 6286               	.LBE425:
 6287               	.LM1081:
 6288 1ed0 8830      		cpi r24,lo8(8)
 6289 1ed2 01F4      		brne .L505
 6290               	.LBB426:
 6291               	.LM1082:
 6292 1ed4 1982      		std Y+1,__zero_reg__
 6293               	.LVL219:
 6294               	.LM1083:
 6295 1ed6 82E0      		ldi r24,lo8(2)
 6296 1ed8 60E0      		ldi r22,lo8(0)
 6297 1eda AE01      		movw r20,r28
 6298 1edc 4F5F      		subi r20,lo8(-(1))
 6299 1ede 5F4F      		sbci r21,hi8(-(1))
 6300 1ee0 20E0      		ldi r18,lo8(RunParameter+27)
 6301 1ee2 30E0      		ldi r19,hi8(RunParameter+27)
 6302 1ee4 00E0      		ldi r16,lo8(gs(FreshDisplayBufferChangeFont))
 6303 1ee6 10E0      		ldi r17,hi8(gs(FreshDisplayBufferChangeFont))
 6304 1ee8 00C0      		rjmp .L543
 6305               	.LVL220:
 6306               	.L505:
 6307               	.LBE426:
 6308               	.LM1084:
 6309 1eea 8930      		cpi r24,lo8(9)
 6310 1eec 01F0      		breq .+2
 6311 1eee 00C0      		rjmp .L506
 6312               	.LM1085:
 6313 1ef0 9E99      		sbic 51-32,6
 6314 1ef2 00C0      		rjmp .L507
 6315               	.LBB427:
 6316               	.LBB428:
 6317               	.LBB429:
 6318               	.LBB430:
 6319               	.LM1086:
 6320 1ef4 80E2      		ldi r24,lo8(20000)
 6321 1ef6 9EE4      		ldi r25,hi8(20000)
 6322               	.LVL221:
 6323               	/* #APP */
 6324               	 ;  105 "c:/winavr-20090313/lib/gcc/../../avr/include/util/delay_basic.h" 1
 6325 1ef8 0197      		1: sbiw r24,1
 6326 1efa 01F4      		brne 1b
 6327               	 ;  0 "" 2
 6328               	/* #NOAPP */
 6329               	.LBE430:
 6330               	.LBE429:
 6331               	.LBE428:
 6332               	.LBE427:
 6333               	.LM1087:
 6334 1efc 9E99      		sbic 51-32,6
 6335 1efe 00C0      		rjmp .L535
 6336               	.LBB431:
 6337               	.LM1088:
 6338 1f00 1092 0000 		sts (KEY_Time_count)+1,__zero_reg__
 6339 1f04 1092 0000 		sts KEY_Time_count,__zero_reg__
 6340               	.LM1089:
 6341 1f08 84E6      		ldi r24,lo8(100)
 6342               	.LVL222:
 6343 1f0a 8093 0000 		sts SPEEK_TIME_Status,r24
 6344               	.LM1090:
 6345 1f0e 3091 0000 		lds r19,RunParameter+24
 6346               	.LVL223:
 6347 1f12 3F5F      		subi r19,lo8(-(1))
 6348               	.LM1091:
 6349 1f14 8091 0000 		lds r24,RunParameter+23
 6350 1f18 2AE0      		ldi r18,lo8(10)
 6351 1f1a 829F      		mul r24,r18
 6352 1f1c C001      		movw r24,r0
 6353 1f1e 1124      		clr r1
 6354 1f20 380F      		add r19,r24
 6355               	.LM1092:
 6356 1f22 3531      		cpi r19,lo8(21)
 6357 1f24 00F0      		brlo .L509
 6358 1f26 30E0      		ldi r19,lo8(0)
 6359               	.L509:
 6360               	.LM1093:
 6361 1f28 832F      		mov r24,r19
 6362 1f2a 6AE0      		ldi r22,lo8(10)
 6363 1f2c 0E94 0000 		call __udivmodqi4
 6364 1f30 8093 0000 		sts RunParameter+23,r24
 6365               	.LM1094:
 6366 1f34 832F      		mov r24,r19
 6367 1f36 0E94 0000 		call __udivmodqi4
 6368 1f3a 9093 0000 		sts RunParameter+24,r25
 6369               	.LM1095:
 6370 1f3e 0E94 0000 		call FreshDisplayBufferAjustProofTime
 6371               	.LVL224:
 6372               	.L535:
 6373               	.LBE431:
 6374               	.LM1096:
 6375 1f42 9E9B      		sbis 51-32,6
 6376 1f44 00C0      		rjmp .L535
 6377               	.L507:
 6378               	.LM1097:
 6379 1f46 9F99      		sbic 51-32,7
 6380 1f48 00C0      		rjmp .L495
 6381               	.LBB432:
 6382               	.LBB433:
 6383               	.LBB434:
 6384               	.LBB435:
 6385               	.LM1098:
 6386 1f4a 80E2      		ldi r24,lo8(20000)
 6387 1f4c 9EE4      		ldi r25,hi8(20000)
 6388               	.LVL225:
 6389               	/* #APP */
 6390               	 ;  105 "c:/winavr-20090313/lib/gcc/../../avr/include/util/delay_basic.h" 1
 6391 1f4e 0197      		1: sbiw r24,1
 6392 1f50 01F4      		brne 1b
 6393               	 ;  0 "" 2
 6394               	/* #NOAPP */
 6395               	.LBE435:
 6396               	.LBE434:
 6397               	.LBE433:
 6398               	.LBE432:
 6399               	.LM1099:
 6400 1f52 9F99      		sbic 51-32,7
 6401 1f54 00C0      		rjmp .L534
 6402               	.LM1100:
 6403 1f56 1092 0000 		sts (KEY_Time_count)+1,__zero_reg__
 6404 1f5a 1092 0000 		sts KEY_Time_count,__zero_reg__
 6405               	.LM1101:
 6406 1f5e 84E6      		ldi r24,lo8(100)
 6407               	.LVL226:
 6408 1f60 8093 0000 		sts SPEEK_TIME_Status,r24
 6409               	.LM1102:
 6410 1f64 8091 0000 		lds r24,RunParameter+22
 6411 1f68 8823      		tst r24
 6412 1f6a 01F0      		breq .L511
 6413               	.LM1103:
 6414 1f6c 1092 0000 		sts RunParameter+22,__zero_reg__
 6415 1f70 00C0      		rjmp .L512
 6416               	.L511:
 6417               	.LM1104:
 6418 1f72 81E0      		ldi r24,lo8(1)
 6419 1f74 8093 0000 		sts RunParameter+22,r24
 6420               	.L512:
 6421               	.LM1105:
 6422 1f78 0E94 0000 		call FreshDisplayBufferAjustProofTime
 6423               	.LVL227:
 6424               	.L534:
 6425               	.LM1106:
 6426 1f7c 9F9B      		sbis 51-32,7
 6427 1f7e 00C0      		rjmp .L534
 6428 1f80 00C0      		rjmp .L495
 6429               	.LVL228:
 6430               	.L506:
 6431               	.LM1107:
 6432 1f82 8A30      		cpi r24,lo8(10)
 6433 1f84 01F4      		brne .L495
 6434               	.LBB436:
 6435               	.LM1108:
 6436 1f86 1982      		std Y+1,__zero_reg__
 6437               	.LVL229:
 6438               	.LM1109:
 6439 1f88 82E0      		ldi r24,lo8(2)
 6440 1f8a 60E0      		ldi r22,lo8(0)
 6441 1f8c AE01      		movw r20,r28
 6442 1f8e 4F5F      		subi r20,lo8(-(1))
 6443 1f90 5F4F      		sbci r21,hi8(-(1))
 6444 1f92 20E0      		ldi r18,lo8(RunParameter+28)
 6445 1f94 30E0      		ldi r19,hi8(RunParameter+28)
 6446 1f96 00E0      		ldi r16,lo8(gs(FreshDisplayBufferVoiceMode))
 6447 1f98 10E0      		ldi r17,hi8(gs(FreshDisplayBufferVoiceMode))
 6448               	.LVL230:
 6449               	.L543:
 6450 1f9a 0E94 0000 		call Key_Operation
 6451               	.LVL231:
 6452               	.L495:
 6453               	.LBE436:
 6454               	.LM1110:
 6455 1f9e 8099      		sbic 48-32,0
 6456 1fa0 00C0      		rjmp .L530
 6457               	.LBB437:
 6458               	.LBB438:
 6459               	.LBB439:
 6460               	.LBB440:
 6461               	.LM1111:
 6462 1fa2 80E2      		ldi r24,lo8(20000)
 6463 1fa4 9EE4      		ldi r25,hi8(20000)
 6464               	.LVL232:
 6465               	/* #APP */
 6466               	 ;  105 "c:/winavr-20090313/lib/gcc/../../avr/include/util/delay_basic.h" 1
 6467 1fa6 0197      		1: sbiw r24,1
 6468 1fa8 01F4      		brne 1b
 6469               	 ;  0 "" 2
 6470               	/* #NOAPP */
 6471               	.LBE440:
 6472               	.LBE439:
 6473               	.LBE438:
 6474               	.LBE437:
 6475               	.LM1112:
 6476 1faa 8099      		sbic 48-32,0
 6477 1fac 00C0      		rjmp .L531
 6478               	.LM1113:
 6479 1fae 84E6      		ldi r24,lo8(100)
 6480               	.LVL233:
 6481 1fb0 8093 0000 		sts SPEEK_TIME_Status,r24
 6482               	.LM1114:
 6483 1fb4 1092 0000 		sts (KEY_Time_count)+1,__zero_reg__
 6484 1fb8 1092 0000 		sts KEY_Time_count,__zero_reg__
 6485               	.LM1115:
 6486 1fbc 8091 0000 		lds r24,RunParameter+21
 6487 1fc0 8F5F      		subi r24,lo8(-(1))
 6488 1fc2 8093 0000 		sts RunParameter+21,r24
 6489               	.LM1116:
 6490 1fc6 8B30      		cpi r24,lo8(11)
 6491 1fc8 00F0      		brlo .L515
 6492               	.LM1117:
 6493 1fca 1092 0000 		sts RunParameter+21,__zero_reg__
 6494               	.L515:
 6495               	.LM1118:
 6496 1fce 8091 0000 		lds r24,RunParameter+21
 6497 1fd2 8530      		cpi r24,lo8(5)
 6498 1fd4 01F0      		breq .L521
 6499 1fd6 8630      		cpi r24,lo8(6)
 6500 1fd8 00F4      		brsh .L527
 6501 1fda 8230      		cpi r24,lo8(2)
 6502 1fdc 01F0      		breq .L518
 6503 1fde 8330      		cpi r24,lo8(3)
 6504 1fe0 00F4      		brsh .L528
 6505 1fe2 8823      		tst r24
 6506 1fe4 01F0      		breq .L516
 6507 1fe6 8130      		cpi r24,lo8(1)
 6508 1fe8 01F0      		breq .+2
 6509 1fea 00C0      		rjmp .L531
 6510 1fec 00C0      		rjmp .L544
 6511               	.L528:
 6512 1fee 8330      		cpi r24,lo8(3)
 6513 1ff0 01F0      		breq .L519
 6514 1ff2 8430      		cpi r24,lo8(4)
 6515 1ff4 01F4      		brne .L531
 6516 1ff6 00C0      		rjmp .L545
 6517               	.L527:
 6518 1ff8 8830      		cpi r24,lo8(8)
 6519 1ffa 01F0      		breq .L524
 6520 1ffc 8930      		cpi r24,lo8(9)
 6521 1ffe 00F4      		brsh .L529
 6522 2000 8630      		cpi r24,lo8(6)
 6523 2002 01F0      		breq .L522
 6524 2004 8730      		cpi r24,lo8(7)
 6525 2006 01F4      		brne .L531
 6526 2008 00C0      		rjmp .L546
 6527               	.L529:
 6528 200a 8930      		cpi r24,lo8(9)
 6529 200c 01F0      		breq .L525
 6530 200e 8A30      		cpi r24,lo8(10)
 6531 2010 01F4      		brne .L531
 6532 2012 00C0      		rjmp .L547
 6533               	.L516:
 6534               	.LM1119:
 6535 2014 0E94 0000 		call Write_time
 6536               	.LM1120:
 6537 2018 0E94 0000 		call SaveRunParameter
 6538               	.LBB441:
 6539               	.LBB442:
 6540               	.LM1121:
 6541 201c 80E0      		ldi r24,lo8(256)
 6542 201e 91E0      		ldi r25,hi8(256)
 6543 2020 E0E0      		ldi r30,lo8(display_buffer)
 6544 2022 F0E0      		ldi r31,hi8(display_buffer)
 6545 2024 DF01      		movw r26,r30
 6546 2026 9C01      		movw r18,r24
 6547 2028 1D92      		st X+,__zero_reg__
 6548 202a 2150      		subi r18,1
 6549 202c 3040      		sbci r19,0
 6550 202e 01F4      		brne .-8
 6551               	.LBE442:
 6552               	.LBE441:
 6553               	.LM1122:
 6554 2030 0E94 0000 		call FreshDisplayBufferNormal
 6555 2034 00C0      		rjmp .L531
 6556               	.L544:
 6557               	.LM1123:
 6558 2036 0E94 0000 		call FreshDisplayBufferAjustYear
 6559 203a 00C0      		rjmp .L531
 6560               	.L518:
 6561               	.LM1124:
 6562 203c 0E94 0000 		call FreshDisplayBufferAjustMonth
 6563 2040 00C0      		rjmp .L531
 6564               	.L519:
 6565               	.LM1125:
 6566 2042 0E94 0000 		call FreshDisplayBufferAjustDay
 6567 2046 00C0      		rjmp .L531
 6568               	.L545:
 6569               	.LM1126:
 6570 2048 0E94 0000 		call FreshDisplayBufferAjustHour
 6571 204c 00C0      		rjmp .L531
 6572               	.L521:
 6573               	.LM1127:
 6574 204e 0E94 0000 		call FreshDisplayBufferAjustMinute
 6575 2052 00C0      		rjmp .L531
 6576               	.L522:
 6577               	.LM1128:
 6578 2054 0E94 0000 		call FreshDisplayBufferAjustWeek
 6579 2058 00C0      		rjmp .L531
 6580               	.L546:
 6581               	.LM1129:
 6582 205a 0E94 0000 		call FreshDisplayBufferAjustLightMode
 6583 205e 00C0      		rjmp .L531
 6584               	.L524:
 6585               	.LM1130:
 6586 2060 0E94 0000 		call FreshDisplayBufferChangeFont
 6587 2064 00C0      		rjmp .L531
 6588               	.L525:
 6589               	.LM1131:
 6590 2066 0E94 0000 		call FreshDisplayBufferAjustProofTime
 6591 206a 00C0      		rjmp .L531
 6592               	.L547:
 6593               	.LM1132:
 6594 206c 0E94 0000 		call FreshDisplayBufferVoiceMode
 6595               	.LVL234:
 6596               	.L531:
 6597               	.LM1133:
 6598 2070 809B      		sbis 48-32,0
 6599 2072 00C0      		rjmp .L531
 6600               	.LVL235:
 6601               	.L530:
 6602               	/* epilogue start */
 6603               	.LM1134:
 6604 2074 0F90      		pop __tmp_reg__
 6605 2076 CF91      		pop r28
 6606 2078 DF91      		pop r29
 6607 207a 1F91      		pop r17
 6608 207c 0F91      		pop r16
 6609 207e 0895      		ret
 6610               	.LFE65:
 6612               	.global	main
 6614               	main:
 6615               	.LFB72:
 6616               	.LM1135:
 6617 2080 0F93      		push r16
 6618 2082 1F93      		push r17
 6619               	/* prologue: function */
 6620               	/* frame size = 0 */
 6621               	.LM1136:
 6622 2084 0E94 0000 		call init_devices
 6623               	.LM1137:
 6624 2088 0E94 0000 		call ds1820_start
 6625               	.LM1138:
 6626 208c 0E94 0000 		call ReadTemputer
 6627               	.LM1139:
 6628 2090 8099      		sbic 48-32,0
 6629 2092 00C0      		rjmp .L549
 6630               	.LBB443:
 6631               	.LBB444:
 6632               	.LBB445:
 6633               	.LBB446:
 6634               	.LM1140:
 6635 2094 80E2      		ldi r24,lo8(20000)
 6636 2096 9EE4      		ldi r25,hi8(20000)
 6637               	.LVL236:
 6638               	/* #APP */
 6639               	 ;  105 "c:/winavr-20090313/lib/gcc/../../avr/include/util/delay_basic.h" 1
 6640 2098 0197      		1: sbiw r24,1
 6641 209a 01F4      		brne 1b
 6642               	 ;  0 "" 2
 6643               	/* #NOAPP */
 6644               	.LBE446:
 6645               	.LBE445:
 6646               	.LBE444:
 6647               	.LBE443:
 6648               	.LM1141:
 6649 209c 8099      		sbic 48-32,0
 6650 209e 00C0      		rjmp .L549
 6651               	.LM1142:
 6652 20a0 81E0      		ldi r24,lo8(1)
 6653               	.LVL237:
 6654 20a2 8093 0000 		sts RunParameter+18,r24
 6655               	.LM1143:
 6656 20a6 8093 0000 		sts RunParameter+19,r24
 6657               	.LM1144:
 6658 20aa 8093 0000 		sts RunParameter+20,r24
 6659               	.LM1145:
 6660 20ae 1092 0000 		sts RunParameter+21,__zero_reg__
 6661               	.LM1146:
 6662 20b2 1092 0000 		sts RunParameter+22,__zero_reg__
 6663               	.LM1147:
 6664 20b6 1092 0000 		sts RunParameter+23,__zero_reg__
 6665               	.LM1148:
 6666 20ba 1092 0000 		sts RunParameter+24,__zero_reg__
 6667               	.LM1149:
 6668 20be 1092 0000 		sts RunParameter+26,__zero_reg__
 6669               	.LM1150:
 6670 20c2 1092 0000 		sts RunParameter+27,__zero_reg__
 6671               	.LM1151:
 6672 20c6 8CBF      		out 92-32,r24
 6673               	.LM1152:
 6674 20c8 0E94 0000 		call SaveRunParameter
 6675               	.LVL238:
 6676               	.L549:
 6677               	.LM1153:
 6678 20cc 0E94 0000 		call ReadRunParameter
 6679               	.LVL239:
 6680               	.LM1154:
 6681 20d0 0E94 0000 		call Show_welcome
 6682               	.LM1155:
 6683 20d4 0E94 0000 		call Updata_time
 6684               	.LM1156:
 6685 20d8 0E94 0000 		call FreshDisplayBufferNormal
 6686               	.LM1157:
 6687 20dc 81E0      		ldi r24,lo8(1)
 6688 20de 8093 0000 		sts SPEEK_TIME_Status,r24
 6689               	.LM1158:
 6690 20e2 0AE0      		ldi r16,lo8(10)
 6691               	.LM1159:
 6692 20e4 11E0      		ldi r17,lo8(1)
 6693               	.L553:
 6694               	.LM1160:
 6695 20e6 8091 0000 		lds r24,RunParameter+21
 6696 20ea 8823      		tst r24
 6697 20ec 01F0      		breq .+2
 6698 20ee 00C0      		rjmp .L550
 6699               	.LM1161:
 6700 20f0 0E94 0000 		call Updata_time
 6701               	.LM1162:
 6702 20f4 3091 0000 		lds r19,RunParameter+28
 6703 20f8 3323      		tst r19
 6704 20fa 01F4      		brne .L551
 6705               	.LM1163:
 6706 20fc 8091 0000 		lds r24,RunParameter+10
 6707 2100 8823      		tst r24
 6708 2102 01F4      		brne .L552
 6709 2104 8091 0000 		lds r24,RunParameter+11
 6710 2108 8823      		tst r24
 6711 210a 01F4      		brne .L552
 6712 210c 8091 0000 		lds r24,RunParameter+12
 6713 2110 8823      		tst r24
 6714 2112 01F4      		brne .L552
 6715 2114 8091 0000 		lds r24,RunParameter+13
 6716 2118 8A30      		cpi r24,lo8(10)
 6717 211a 00F4      		brsh .L552
 6718 211c 8091 0000 		lds r24,inVoice
 6719 2120 8823      		tst r24
 6720 2122 01F4      		brne .L552
 6721               	.LM1164:
 6722 2124 1093 0000 		sts inVoice,r17
 6723               	.LM1165:
 6724 2128 1093 0000 		sts SPEEK_TIME_Status,r17
 6725 212c 00C0      		rjmp .L552
 6726               	.L551:
 6727               	.LM1166:
 6728 212e 3130      		cpi r19,lo8(1)
 6729 2130 01F4      		brne .L552
 6730               	.LM1167:
 6731 2132 2091 0000 		lds r18,RunParameter+9
 6732 2136 2750      		subi r18,lo8(-(-7))
 6733 2138 8091 0000 		lds r24,RunParameter+8
 6734 213c 809F      		mul r24,r16
 6735 213e C001      		movw r24,r0
 6736 2140 1124      		clr r1
 6737 2142 280F      		add r18,r24
 6738 2144 2131      		cpi r18,lo8(17)
 6739 2146 00F4      		brsh .L552
 6740               	.LM1168:
 6741 2148 8091 0000 		lds r24,RunParameter+10
 6742 214c 8823      		tst r24
 6743 214e 01F4      		brne .L552
 6744 2150 8091 0000 		lds r24,RunParameter+11
 6745 2154 8823      		tst r24
 6746 2156 01F4      		brne .L552
 6747 2158 8091 0000 		lds r24,RunParameter+12
 6748 215c 8823      		tst r24
 6749 215e 01F4      		brne .L552
 6750 2160 8091 0000 		lds r24,RunParameter+13
 6751 2164 8A30      		cpi r24,lo8(10)
 6752 2166 00F4      		brsh .L552
 6753 2168 8091 0000 		lds r24,inVoice
 6754 216c 8823      		tst r24
 6755 216e 01F4      		brne .L552
 6756               	.LM1169:
 6757 2170 3093 0000 		sts inVoice,r19
 6758               	.LM1170:
 6759 2174 3093 0000 		sts SPEEK_TIME_Status,r19
 6760               	.L552:
 6761               	.LM1171:
 6762 2178 8091 0000 		lds r24,FreshDisplayBufferCount
 6763 217c 9091 0000 		lds r25,(FreshDisplayBufferCount)+1
 6764 2180 0196      		adiw r24,1
 6765 2182 9093 0000 		sts (FreshDisplayBufferCount)+1,r25
 6766 2186 8093 0000 		sts FreshDisplayBufferCount,r24
 6767               	.LM1172:
 6768 218a 8151      		subi r24,lo8(10001)
 6769 218c 9742      		sbci r25,hi8(10001)
 6770 218e 00F0      		brlo .L550
 6771               	.LM1173:
 6772 2190 0E94 0000 		call AjustTimerMonthly
 6773               	.LM1174:
 6774 2194 0E94 0000 		call FreshDisplayBufferNormal
 6775               	.LM1175:
 6776 2198 1092 0000 		sts (FreshDisplayBufferCount)+1,__zero_reg__
 6777 219c 1092 0000 		sts FreshDisplayBufferCount,__zero_reg__
 6778               	.L550:
 6779               	.LM1176:
 6780 21a0 0E94 0000 		call display
 6781               	.LM1177:
 6782 21a4 0E94 0000 		call Scan_Key
 6783 21a8 00C0      		rjmp .L553
 6784               	.LFE72:
 6786               	.global	RunParameter
 6787               		.data
 6790               	RunParameter:
 6791 0000 02        		.byte	2
 6792 0001 00        		.byte	0
 6793 0002 01        		.byte	1
 6794 0003 02        		.byte	2
 6795 0004 00        		.byte	0
 6796 0005 01        		.byte	1
 6797 0006 01        		.byte	1
 6798 0007 07        		.byte	7
 6799 0008 02        		.byte	2
 6800 0009 02        		.byte	2
 6801 000a 01        		.byte	1
 6802 000b 09        		.byte	9
 6803 000c 00        		.byte	0
 6804 000d 00        		.byte	0
 6805 000e 02        		.byte	2
 6806 000f 02        		.byte	2
 6807 0010 03        		.byte	3
 6808 0011 04        		.byte	4
 6809 0012 00        		.byte	0
 6810 0013 07        		.byte	7
 6811 0014 01        		.byte	1
 6812 0015 00        		.byte	0
 6813 0016 00        		.byte	0
 6814 0017 00        		.byte	0
 6815 0018 00        		.byte	0
 6816 0019 00        		.byte	0
 6817 001a 00        		.byte	0
 6818 001b 00        		.byte	0
 6819 001c 00        		.byte	0
 6820               	.global	BIG_NUMBER_STYLE1
 6821               		.section	.progmem.data,"a",@progbits
 6824               	BIG_NUMBER_STYLE1:
 6825 0000 07        		.byte	7
 6826 0001 80        		.byte	-128
 6827 0002 0F        		.byte	15
 6828 0003 C0        		.byte	-64
 6829 0004 3F        		.byte	63
 6830 0005 E0        		.byte	-32
 6831 0006 38        		.byte	56
 6832 0007 70        		.byte	112
 6833 0008 70        		.byte	112
 6834 0009 70        		.byte	112
 6835 000a 70        		.byte	112
 6836 000b 38        		.byte	56
 6837 000c 70        		.byte	112
 6838 000d 38        		.byte	56
 6839 000e 60        		.byte	96
 6840 000f 38        		.byte	56
 6841 0010 E0        		.byte	-32
 6842 0011 38        		.byte	56
 6843 0012 E0        		.byte	-32
 6844 0013 38        		.byte	56
 6845 0014 E0        		.byte	-32
 6846 0015 38        		.byte	56
 6847 0016 E0        		.byte	-32
 6848 0017 38        		.byte	56
 6849 0018 E0        		.byte	-32
 6850 0019 38        		.byte	56
 6851 001a 60        		.byte	96
 6852 001b 38        		.byte	56
 6853 001c 70        		.byte	112
 6854 001d 38        		.byte	56
 6855 001e 70        		.byte	112
 6856 001f 30        		.byte	48
 6857 0020 70        		.byte	112
 6858 0021 70        		.byte	112
 6859 0022 3C        		.byte	60
 6860 0023 E0        		.byte	-32
 6861 0024 1F        		.byte	31
 6862 0025 E0        		.byte	-32
 6863 0026 0F        		.byte	15
 6864 0027 80        		.byte	-128
 6865 0028 06        		.byte	6
 6866 0029 00        		.byte	0
 6867 002a 03        		.byte	3
 6868 002b 00        		.byte	0
 6869 002c 1F        		.byte	31
 6870 002d 00        		.byte	0
 6871 002e FF        		.byte	-1
 6872 002f 00        		.byte	0
 6873 0030 FF        		.byte	-1
 6874 0031 00        		.byte	0
 6875 0032 C7        		.byte	-57
 6876 0033 00        		.byte	0
 6877 0034 07        		.byte	7
 6878 0035 00        		.byte	0
 6879 0036 07        		.byte	7
 6880 0037 00        		.byte	0
 6881 0038 07        		.byte	7
 6882 0039 00        		.byte	0
 6883 003a 07        		.byte	7
 6884 003b 00        		.byte	0
 6885 003c 07        		.byte	7
 6886 003d 00        		.byte	0
 6887 003e 07        		.byte	7
 6888 003f 00        		.byte	0
 6889 0040 07        		.byte	7
 6890 0041 00        		.byte	0
 6891 0042 07        		.byte	7
 6892 0043 00        		.byte	0
 6893 0044 07        		.byte	7
 6894 0045 00        		.byte	0
 6895 0046 07        		.byte	7
 6896 0047 00        		.byte	0
 6897 0048 07        		.byte	7
 6898 0049 00        		.byte	0
 6899 004a 07        		.byte	7
 6900 004b 00        		.byte	0
 6901 004c 07        		.byte	7
 6902 004d 00        		.byte	0
 6903 004e 07        		.byte	7
 6904 004f 00        		.byte	0
 6905 0050 7F        		.byte	127
 6906 0051 F8        		.byte	-8
 6907 0052 7F        		.byte	127
 6908 0053 F8        		.byte	-8
 6909 0054 0F        		.byte	15
 6910 0055 C0        		.byte	-64
 6911 0056 3F        		.byte	63
 6912 0057 F0        		.byte	-16
 6913 0058 3F        		.byte	63
 6914 0059 F8        		.byte	-8
 6915 005a 30        		.byte	48
 6916 005b 38        		.byte	56
 6917 005c 00        		.byte	0
 6918 005d 38        		.byte	56
 6919 005e 00        		.byte	0
 6920 005f 18        		.byte	24
 6921 0060 00        		.byte	0
 6922 0061 18        		.byte	24
 6923 0062 00        		.byte	0
 6924 0063 38        		.byte	56
 6925 0064 00        		.byte	0
 6926 0065 38        		.byte	56
 6927 0066 00        		.byte	0
 6928 0067 38        		.byte	56
 6929 0068 00        		.byte	0
 6930 0069 70        		.byte	112
 6931 006a 00        		.byte	0
 6932 006b E0        		.byte	-32
 6933 006c 01        		.byte	1
 6934 006d C0        		.byte	-64
 6935 006e 03        		.byte	3
 6936 006f 80        		.byte	-128
 6937 0070 07        		.byte	7
 6938 0071 00        		.byte	0
 6939 0072 0E        		.byte	14
 6940 0073 00        		.byte	0
 6941 0074 1C        		.byte	28
 6942 0075 00        		.byte	0
 6943 0076 38        		.byte	56
 6944 0077 00        		.byte	0
 6945 0078 70        		.byte	112
 6946 0079 00        		.byte	0
 6947 007a 7F        		.byte	127
 6948 007b F8        		.byte	-8
 6949 007c 7F        		.byte	127
 6950 007d F8        		.byte	-8
 6951 007e 1F        		.byte	31
 6952 007f 80        		.byte	-128
 6953 0080 3F        		.byte	63
 6954 0081 E0        		.byte	-32
 6955 0082 3F        		.byte	63
 6956 0083 F0        		.byte	-16
 6957 0084 20        		.byte	32
 6958 0085 78        		.byte	120
 6959 0086 00        		.byte	0
 6960 0087 38        		.byte	56
 6961 0088 00        		.byte	0
 6962 0089 38        		.byte	56
 6963 008a 00        		.byte	0
 6964 008b 70        		.byte	112
 6965 008c 00        		.byte	0
 6966 008d E0        		.byte	-32
 6967 008e 1F        		.byte	31
 6968 008f C0        		.byte	-64
 6969 0090 1F        		.byte	31
 6970 0091 C0        		.byte	-64
 6971 0092 1F        		.byte	31
 6972 0093 F0        		.byte	-16
 6973 0094 00        		.byte	0
 6974 0095 38        		.byte	56
 6975 0096 00        		.byte	0
 6976 0097 38        		.byte	56
 6977 0098 00        		.byte	0
 6978 0099 38        		.byte	56
 6979 009a 00        		.byte	0
 6980 009b 38        		.byte	56
 6981 009c 00        		.byte	0
 6982 009d 38        		.byte	56
 6983 009e 00        		.byte	0
 6984 009f 38        		.byte	56
 6985 00a0 60        		.byte	96
 6986 00a1 F0        		.byte	-16
 6987 00a2 7F        		.byte	127
 6988 00a3 F0        		.byte	-16
 6989 00a4 7F        		.byte	127
 6990 00a5 C0        		.byte	-64
 6991 00a6 0E        		.byte	14
 6992 00a7 00        		.byte	0
 6993 00a8 01        		.byte	1
 6994 00a9 E0        		.byte	-32
 6995 00aa 01        		.byte	1
 6996 00ab E0        		.byte	-32
 6997 00ac 03        		.byte	3
 6998 00ad E0        		.byte	-32
 6999 00ae 03        		.byte	3
 7000 00af E0        		.byte	-32
 7001 00b0 06        		.byte	6
 7002 00b1 E0        		.byte	-32
 7003 00b2 0E        		.byte	14
 7004 00b3 E0        		.byte	-32
 7005 00b4 1C        		.byte	28
 7006 00b5 E0        		.byte	-32
 7007 00b6 18        		.byte	24
 7008 00b7 E0        		.byte	-32
 7009 00b8 30        		.byte	48
 7010 00b9 E0        		.byte	-32
 7011 00ba 70        		.byte	112
 7012 00bb E0        		.byte	-32
 7013 00bc 60        		.byte	96
 7014 00bd E0        		.byte	-32
 7015 00be E0        		.byte	-32
 7016 00bf E0        		.byte	-32
 7017 00c0 C0        		.byte	-64
 7018 00c1 E0        		.byte	-32
 7019 00c2 FF        		.byte	-1
 7020 00c3 F8        		.byte	-8
 7021 00c4 FF        		.byte	-1
 7022 00c5 F8        		.byte	-8
 7023 00c6 FF        		.byte	-1
 7024 00c7 F8        		.byte	-8
 7025 00c8 00        		.byte	0
 7026 00c9 E0        		.byte	-32
 7027 00ca 00        		.byte	0
 7028 00cb E0        		.byte	-32
 7029 00cc 00        		.byte	0
 7030 00cd E0        		.byte	-32
 7031 00ce 00        		.byte	0
 7032 00cf E0        		.byte	-32
 7033 00d0 00        		.byte	0
 7034 00d1 E0        		.byte	-32
 7035 00d2 3F        		.byte	63
 7036 00d3 F8        		.byte	-8
 7037 00d4 3F        		.byte	63
 7038 00d5 F8        		.byte	-8
 7039 00d6 3F        		.byte	63
 7040 00d7 F8        		.byte	-8
 7041 00d8 38        		.byte	56
 7042 00d9 00        		.byte	0
 7043 00da 38        		.byte	56
 7044 00db 00        		.byte	0
 7045 00dc 38        		.byte	56
 7046 00dd 00        		.byte	0
 7047 00de 38        		.byte	56
 7048 00df 00        		.byte	0
 7049 00e0 3F        		.byte	63
 7050 00e1 80        		.byte	-128
 7051 00e2 3F        		.byte	63
 7052 00e3 E0        		.byte	-32
 7053 00e4 3F        		.byte	63
 7054 00e5 F0        		.byte	-16
 7055 00e6 00        		.byte	0
 7056 00e7 78        		.byte	120
 7057 00e8 00        		.byte	0
 7058 00e9 38        		.byte	56
 7059 00ea 00        		.byte	0
 7060 00eb 38        		.byte	56
 7061 00ec 00        		.byte	0
 7062 00ed 18        		.byte	24
 7063 00ee 00        		.byte	0
 7064 00ef 18        		.byte	24
 7065 00f0 00        		.byte	0
 7066 00f1 18        		.byte	24
 7067 00f2 00        		.byte	0
 7068 00f3 38        		.byte	56
 7069 00f4 70        		.byte	112
 7070 00f5 F0        		.byte	-16
 7071 00f6 7F        		.byte	127
 7072 00f7 F0        		.byte	-16
 7073 00f8 3F        		.byte	63
 7074 00f9 C0        		.byte	-64
 7075 00fa 0E        		.byte	14
 7076 00fb 00        		.byte	0
 7077 00fc 03        		.byte	3
 7078 00fd C0        		.byte	-64
 7079 00fe 0F        		.byte	15
 7080 00ff E0        		.byte	-32
 7081 0100 1F        		.byte	31
 7082 0101 F0        		.byte	-16
 7083 0102 3C        		.byte	60
 7084 0103 00        		.byte	0
 7085 0104 70        		.byte	112
 7086 0105 00        		.byte	0
 7087 0106 70        		.byte	112
 7088 0107 00        		.byte	0
 7089 0108 E0        		.byte	-32
 7090 0109 00        		.byte	0
 7091 010a E7        		.byte	-25
 7092 010b C0        		.byte	-64
 7093 010c FF        		.byte	-1
 7094 010d E0        		.byte	-32
 7095 010e FF        		.byte	-1
 7096 010f F0        		.byte	-16
 7097 0110 F0        		.byte	-16
 7098 0111 78        		.byte	120
 7099 0112 E0        		.byte	-32
 7100 0113 38        		.byte	56
 7101 0114 E0        		.byte	-32
 7102 0115 38        		.byte	56
 7103 0116 E0        		.byte	-32
 7104 0117 38        		.byte	56
 7105 0118 E0        		.byte	-32
 7106 0119 38        		.byte	56
 7107 011a E0        		.byte	-32
 7108 011b 38        		.byte	56
 7109 011c 70        		.byte	112
 7110 011d 78        		.byte	120
 7111 011e 78        		.byte	120
 7112 011f 70        		.byte	112
 7113 0120 3F        		.byte	63
 7114 0121 E0        		.byte	-32
 7115 0122 1F        		.byte	31
 7116 0123 C0        		.byte	-64
 7117 0124 07        		.byte	7
 7118 0125 00        		.byte	0
 7119 0126 FF        		.byte	-1
 7120 0127 F8        		.byte	-8
 7121 0128 FF        		.byte	-1
 7122 0129 F8        		.byte	-8
 7123 012a FF        		.byte	-1
 7124 012b F0        		.byte	-16
 7125 012c 00        		.byte	0
 7126 012d 70        		.byte	112
 7127 012e 00        		.byte	0
 7128 012f 70        		.byte	112
 7129 0130 00        		.byte	0
 7130 0131 60        		.byte	96
 7131 0132 00        		.byte	0
 7132 0133 E0        		.byte	-32
 7133 0134 00        		.byte	0
 7134 0135 C0        		.byte	-64
 7135 0136 01        		.byte	1
 7136 0137 C0        		.byte	-64
 7137 0138 01        		.byte	1
 7138 0139 C0        		.byte	-64
 7139 013a 03        		.byte	3
 7140 013b 80        		.byte	-128
 7141 013c 03        		.byte	3
 7142 013d 80        		.byte	-128
 7143 013e 03        		.byte	3
 7144 013f 00        		.byte	0
 7145 0140 07        		.byte	7
 7146 0141 00        		.byte	0
 7147 0142 07        		.byte	7
 7148 0143 00        		.byte	0
 7149 0144 0E        		.byte	14
 7150 0145 00        		.byte	0
 7151 0146 0E        		.byte	14
 7152 0147 00        		.byte	0
 7153 0148 1C        		.byte	28
 7154 0149 00        		.byte	0
 7155 014a 1C        		.byte	28
 7156 014b 00        		.byte	0
 7157 014c 1C        		.byte	28
 7158 014d 00        		.byte	0
 7159 014e 38        		.byte	56
 7160 014f 00        		.byte	0
 7161 0150 0F        		.byte	15
 7162 0151 80        		.byte	-128
 7163 0152 3F        		.byte	63
 7164 0153 E0        		.byte	-32
 7165 0154 7F        		.byte	127
 7166 0155 F0        		.byte	-16
 7167 0156 70        		.byte	112
 7168 0157 70        		.byte	112
 7169 0158 E0        		.byte	-32
 7170 0159 70        		.byte	112
 7171 015a E0        		.byte	-32
 7172 015b 70        		.byte	112
 7173 015c 70        		.byte	112
 7174 015d 70        		.byte	112
 7175 015e 79        		.byte	121
 7176 015f E0        		.byte	-32
 7177 0160 1F        		.byte	31
 7178 0161 C0        		.byte	-64
 7179 0162 1F        		.byte	31
 7180 0163 80        		.byte	-128
 7181 0164 3F        		.byte	63
 7182 0165 E0        		.byte	-32
 7183 0166 70        		.byte	112
 7184 0167 F0        		.byte	-16
 7185 0168 E0        		.byte	-32
 7186 0169 70        		.byte	112
 7187 016a E0        		.byte	-32
 7188 016b 38        		.byte	56
 7189 016c C0        		.byte	-64
 7190 016d 38        		.byte	56
 7191 016e E0        		.byte	-32
 7192 016f 38        		.byte	56
 7193 0170 E0        		.byte	-32
 7194 0171 38        		.byte	56
 7195 0172 F0        		.byte	-16
 7196 0173 F0        		.byte	-16
 7197 0174 7F        		.byte	127
 7198 0175 F0        		.byte	-16
 7199 0176 3F        		.byte	63
 7200 0177 C0        		.byte	-64
 7201 0178 06        		.byte	6
 7202 0179 00        		.byte	0
 7203 017a 1F        		.byte	31
 7204 017b 80        		.byte	-128
 7205 017c 3F        		.byte	63
 7206 017d C0        		.byte	-64
 7207 017e 7F        		.byte	127
 7208 017f E0        		.byte	-32
 7209 0180 E0        		.byte	-32
 7210 0181 70        		.byte	112
 7211 0182 E0        		.byte	-32
 7212 0183 70        		.byte	112
 7213 0184 C0        		.byte	-64
 7214 0185 30        		.byte	48
 7215 0186 C0        		.byte	-64
 7216 0187 38        		.byte	56
 7217 0188 E0        		.byte	-32
 7218 0189 38        		.byte	56
 7219 018a E0        		.byte	-32
 7220 018b 78        		.byte	120
 7221 018c F0        		.byte	-16
 7222 018d F8        		.byte	-8
 7223 018e 7F        		.byte	127
 7224 018f F8        		.byte	-8
 7225 0190 3F        		.byte	63
 7226 0191 B8        		.byte	-72
 7227 0192 00        		.byte	0
 7228 0193 30        		.byte	48
 7229 0194 00        		.byte	0
 7230 0195 30        		.byte	48
 7231 0196 00        		.byte	0
 7232 0197 70        		.byte	112
 7233 0198 00        		.byte	0
 7234 0199 70        		.byte	112
 7235 019a 00        		.byte	0
 7236 019b E0        		.byte	-32
 7237 019c 43        		.byte	67
 7238 019d E0        		.byte	-32
 7239 019e 7F        		.byte	127
 7240 019f C0        		.byte	-64
 7241 01a0 7F        		.byte	127
 7242 01a1 00        		.byte	0
 7243 01a2 1C        		.byte	28
 7244 01a3 00        		.byte	0
 7245               	.global	BIG_NUMBER_STYLE2
 7248               	BIG_NUMBER_STYLE2:
 7249 01a4 FF        		.byte	-1
 7250 01a5 F8        		.byte	-8
 7251 01a6 FF        		.byte	-1
 7252 01a7 F8        		.byte	-8
 7253 01a8 FF        		.byte	-1
 7254 01a9 F8        		.byte	-8
 7255 01aa E0        		.byte	-32
 7256 01ab 38        		.byte	56
 7257 01ac E0        		.byte	-32
 7258 01ad 38        		.byte	56
 7259 01ae E0        		.byte	-32
 7260 01af 38        		.byte	56
 7261 01b0 E0        		.byte	-32
 7262 01b1 38        		.byte	56
 7263 01b2 E0        		.byte	-32
 7264 01b3 38        		.byte	56
 7265 01b4 E0        		.byte	-32
 7266 01b5 38        		.byte	56
 7267 01b6 E0        		.byte	-32
 7268 01b7 38        		.byte	56
 7269 01b8 E0        		.byte	-32
 7270 01b9 38        		.byte	56
 7271 01ba E0        		.byte	-32
 7272 01bb 38        		.byte	56
 7273 01bc E0        		.byte	-32
 7274 01bd 38        		.byte	56
 7275 01be E0        		.byte	-32
 7276 01bf 38        		.byte	56
 7277 01c0 E0        		.byte	-32
 7278 01c1 38        		.byte	56
 7279 01c2 E0        		.byte	-32
 7280 01c3 38        		.byte	56
 7281 01c4 E0        		.byte	-32
 7282 01c5 38        		.byte	56
 7283 01c6 E0        		.byte	-32
 7284 01c7 38        		.byte	56
 7285 01c8 FF        		.byte	-1
 7286 01c9 F8        		.byte	-8
 7287 01ca FF        		.byte	-1
 7288 01cb F8        		.byte	-8
 7289 01cc FF        		.byte	-1
 7290 01cd F8        		.byte	-8
 7291 01ce 07        		.byte	7
 7292 01cf 00        		.byte	0
 7293 01d0 07        		.byte	7
 7294 01d1 00        		.byte	0
 7295 01d2 07        		.byte	7
 7296 01d3 00        		.byte	0
 7297 01d4 07        		.byte	7
 7298 01d5 00        		.byte	0
 7299 01d6 07        		.byte	7
 7300 01d7 00        		.byte	0
 7301 01d8 07        		.byte	7
 7302 01d9 00        		.byte	0
 7303 01da 07        		.byte	7
 7304 01db 00        		.byte	0
 7305 01dc 07        		.byte	7
 7306 01dd 00        		.byte	0
 7307 01de 07        		.byte	7
 7308 01df 00        		.byte	0
 7309 01e0 07        		.byte	7
 7310 01e1 00        		.byte	0
 7311 01e2 07        		.byte	7
 7312 01e3 00        		.byte	0
 7313 01e4 07        		.byte	7
 7314 01e5 00        		.byte	0
 7315 01e6 07        		.byte	7
 7316 01e7 00        		.byte	0
 7317 01e8 07        		.byte	7
 7318 01e9 00        		.byte	0
 7319 01ea 07        		.byte	7
 7320 01eb 00        		.byte	0
 7321 01ec 07        		.byte	7
 7322 01ed 00        		.byte	0
 7323 01ee 07        		.byte	7
 7324 01ef 00        		.byte	0
 7325 01f0 07        		.byte	7
 7326 01f1 00        		.byte	0
 7327 01f2 07        		.byte	7
 7328 01f3 00        		.byte	0
 7329 01f4 07        		.byte	7
 7330 01f5 00        		.byte	0
 7331 01f6 07        		.byte	7
 7332 01f7 00        		.byte	0
 7333 01f8 FF        		.byte	-1
 7334 01f9 F8        		.byte	-8
 7335 01fa FF        		.byte	-1
 7336 01fb F8        		.byte	-8
 7337 01fc FF        		.byte	-1
 7338 01fd F8        		.byte	-8
 7339 01fe 00        		.byte	0
 7340 01ff 38        		.byte	56
 7341 0200 00        		.byte	0
 7342 0201 38        		.byte	56
 7343 0202 00        		.byte	0
 7344 0203 38        		.byte	56
 7345 0204 00        		.byte	0
 7346 0205 38        		.byte	56
 7347 0206 00        		.byte	0
 7348 0207 38        		.byte	56
 7349 0208 00        		.byte	0
 7350 0209 38        		.byte	56
 7351 020a FF        		.byte	-1
 7352 020b F8        		.byte	-8
 7353 020c FF        		.byte	-1
 7354 020d F8        		.byte	-8
 7355 020e FF        		.byte	-1
 7356 020f F8        		.byte	-8
 7357 0210 E0        		.byte	-32
 7358 0211 00        		.byte	0
 7359 0212 E0        		.byte	-32
 7360 0213 00        		.byte	0
 7361 0214 E0        		.byte	-32
 7362 0215 00        		.byte	0
 7363 0216 E0        		.byte	-32
 7364 0217 00        		.byte	0
 7365 0218 E0        		.byte	-32
 7366 0219 00        		.byte	0
 7367 021a E0        		.byte	-32
 7368 021b 00        		.byte	0
 7369 021c FF        		.byte	-1
 7370 021d F8        		.byte	-8
 7371 021e FF        		.byte	-1
 7372 021f F8        		.byte	-8
 7373 0220 FF        		.byte	-1
 7374 0221 F8        		.byte	-8
 7375 0222 FF        		.byte	-1
 7376 0223 F8        		.byte	-8
 7377 0224 FF        		.byte	-1
 7378 0225 F8        		.byte	-8
 7379 0226 FF        		.byte	-1
 7380 0227 F8        		.byte	-8
 7381 0228 00        		.byte	0
 7382 0229 38        		.byte	56
 7383 022a 00        		.byte	0
 7384 022b 38        		.byte	56
 7385 022c 00        		.byte	0
 7386 022d 38        		.byte	56
 7387 022e 00        		.byte	0
 7388 022f 38        		.byte	56
 7389 0230 00        		.byte	0
 7390 0231 38        		.byte	56
 7391 0232 00        		.byte	0
 7392 0233 38        		.byte	56
 7393 0234 FF        		.byte	-1
 7394 0235 F8        		.byte	-8
 7395 0236 FF        		.byte	-1
 7396 0237 F8        		.byte	-8
 7397 0238 FF        		.byte	-1
 7398 0239 F8        		.byte	-8
 7399 023a 00        		.byte	0
 7400 023b 38        		.byte	56
 7401 023c 00        		.byte	0
 7402 023d 38        		.byte	56
 7403 023e 00        		.byte	0
 7404 023f 38        		.byte	56
 7405 0240 00        		.byte	0
 7406 0241 38        		.byte	56
 7407 0242 00        		.byte	0
 7408 0243 38        		.byte	56
 7409 0244 00        		.byte	0
 7410 0245 38        		.byte	56
 7411 0246 FF        		.byte	-1
 7412 0247 F8        		.byte	-8
 7413 0248 FF        		.byte	-1
 7414 0249 F8        		.byte	-8
 7415 024a FF        		.byte	-1
 7416 024b F8        		.byte	-8
 7417 024c E0        		.byte	-32
 7418 024d 38        		.byte	56
 7419 024e E0        		.byte	-32
 7420 024f 38        		.byte	56
 7421 0250 E0        		.byte	-32
 7422 0251 38        		.byte	56
 7423 0252 E0        		.byte	-32
 7424 0253 38        		.byte	56
 7425 0254 E0        		.byte	-32
 7426 0255 38        		.byte	56
 7427 0256 E0        		.byte	-32
 7428 0257 38        		.byte	56
 7429 0258 E0        		.byte	-32
 7430 0259 38        		.byte	56
 7431 025a E0        		.byte	-32
 7432 025b 38        		.byte	56
 7433 025c E0        		.byte	-32
 7434 025d 38        		.byte	56
 7435 025e FF        		.byte	-1
 7436 025f F8        		.byte	-8
 7437 0260 FF        		.byte	-1
 7438 0261 F8        		.byte	-8
 7439 0262 FF        		.byte	-1
 7440 0263 F8        		.byte	-8
 7441 0264 00        		.byte	0
 7442 0265 38        		.byte	56
 7443 0266 00        		.byte	0
 7444 0267 38        		.byte	56
 7445 0268 00        		.byte	0
 7446 0269 38        		.byte	56
 7447 026a 00        		.byte	0
 7448 026b 38        		.byte	56
 7449 026c 00        		.byte	0
 7450 026d 38        		.byte	56
 7451 026e 00        		.byte	0
 7452 026f 38        		.byte	56
 7453 0270 00        		.byte	0
 7454 0271 38        		.byte	56
 7455 0272 00        		.byte	0
 7456 0273 38        		.byte	56
 7457 0274 00        		.byte	0
 7458 0275 38        		.byte	56
 7459 0276 FF        		.byte	-1
 7460 0277 F8        		.byte	-8
 7461 0278 FF        		.byte	-1
 7462 0279 F8        		.byte	-8
 7463 027a FF        		.byte	-1
 7464 027b F8        		.byte	-8
 7465 027c E0        		.byte	-32
 7466 027d 00        		.byte	0
 7467 027e E0        		.byte	-32
 7468 027f 00        		.byte	0
 7469 0280 E0        		.byte	-32
 7470 0281 00        		.byte	0
 7471 0282 E0        		.byte	-32
 7472 0283 00        		.byte	0
 7473 0284 E0        		.byte	-32
 7474 0285 00        		.byte	0
 7475 0286 E0        		.byte	-32
 7476 0287 00        		.byte	0
 7477 0288 FF        		.byte	-1
 7478 0289 F8        		.byte	-8
 7479 028a FF        		.byte	-1
 7480 028b F8        		.byte	-8
 7481 028c FF        		.byte	-1
 7482 028d F8        		.byte	-8
 7483 028e 00        		.byte	0
 7484 028f 38        		.byte	56
 7485 0290 00        		.byte	0
 7486 0291 38        		.byte	56
 7487 0292 00        		.byte	0
 7488 0293 38        		.byte	56
 7489 0294 00        		.byte	0
 7490 0295 38        		.byte	56
 7491 0296 00        		.byte	0
 7492 0297 38        		.byte	56
 7493 0298 00        		.byte	0
 7494 0299 38        		.byte	56
 7495 029a FF        		.byte	-1
 7496 029b F8        		.byte	-8
 7497 029c FF        		.byte	-1
 7498 029d F8        		.byte	-8
 7499 029e FF        		.byte	-1
 7500 029f F8        		.byte	-8
 7501 02a0 FF        		.byte	-1
 7502 02a1 F8        		.byte	-8
 7503 02a2 FF        		.byte	-1
 7504 02a3 F8        		.byte	-8
 7505 02a4 FF        		.byte	-1
 7506 02a5 F8        		.byte	-8
 7507 02a6 E0        		.byte	-32
 7508 02a7 00        		.byte	0
 7509 02a8 E0        		.byte	-32
 7510 02a9 00        		.byte	0
 7511 02aa E0        		.byte	-32
 7512 02ab 00        		.byte	0
 7513 02ac E0        		.byte	-32
 7514 02ad 00        		.byte	0
 7515 02ae E0        		.byte	-32
 7516 02af 00        		.byte	0
 7517 02b0 E0        		.byte	-32
 7518 02b1 00        		.byte	0
 7519 02b2 FF        		.byte	-1
 7520 02b3 F8        		.byte	-8
 7521 02b4 FF        		.byte	-1
 7522 02b5 F8        		.byte	-8
 7523 02b6 FF        		.byte	-1
 7524 02b7 F8        		.byte	-8
 7525 02b8 E0        		.byte	-32
 7526 02b9 38        		.byte	56
 7527 02ba E0        		.byte	-32
 7528 02bb 38        		.byte	56
 7529 02bc E0        		.byte	-32
 7530 02bd 38        		.byte	56
 7531 02be E0        		.byte	-32
 7532 02bf 38        		.byte	56
 7533 02c0 E0        		.byte	-32
 7534 02c1 38        		.byte	56
 7535 02c2 E0        		.byte	-32
 7536 02c3 38        		.byte	56
 7537 02c4 FF        		.byte	-1
 7538 02c5 F8        		.byte	-8
 7539 02c6 FF        		.byte	-1
 7540 02c7 F8        		.byte	-8
 7541 02c8 FF        		.byte	-1
 7542 02c9 F8        		.byte	-8
 7543 02ca FF        		.byte	-1
 7544 02cb F8        		.byte	-8
 7545 02cc FF        		.byte	-1
 7546 02cd F8        		.byte	-8
 7547 02ce FF        		.byte	-1
 7548 02cf F8        		.byte	-8
 7549 02d0 00        		.byte	0
 7550 02d1 38        		.byte	56
 7551 02d2 00        		.byte	0
 7552 02d3 38        		.byte	56
 7553 02d4 00        		.byte	0
 7554 02d5 38        		.byte	56
 7555 02d6 00        		.byte	0
 7556 02d7 38        		.byte	56
 7557 02d8 00        		.byte	0
 7558 02d9 38        		.byte	56
 7559 02da 00        		.byte	0
 7560 02db 38        		.byte	56
 7561 02dc 00        		.byte	0
 7562 02dd 38        		.byte	56
 7563 02de 00        		.byte	0
 7564 02df 38        		.byte	56
 7565 02e0 00        		.byte	0
 7566 02e1 38        		.byte	56
 7567 02e2 00        		.byte	0
 7568 02e3 38        		.byte	56
 7569 02e4 00        		.byte	0
 7570 02e5 38        		.byte	56
 7571 02e6 00        		.byte	0
 7572 02e7 38        		.byte	56
 7573 02e8 00        		.byte	0
 7574 02e9 38        		.byte	56
 7575 02ea 00        		.byte	0
 7576 02eb 38        		.byte	56
 7577 02ec 00        		.byte	0
 7578 02ed 38        		.byte	56
 7579 02ee 00        		.byte	0
 7580 02ef 38        		.byte	56
 7581 02f0 00        		.byte	0
 7582 02f1 38        		.byte	56
 7583 02f2 00        		.byte	0
 7584 02f3 38        		.byte	56
 7585 02f4 FF        		.byte	-1
 7586 02f5 F8        		.byte	-8
 7587 02f6 FF        		.byte	-1
 7588 02f7 F8        		.byte	-8
 7589 02f8 FF        		.byte	-1
 7590 02f9 F8        		.byte	-8
 7591 02fa E0        		.byte	-32
 7592 02fb 38        		.byte	56
 7593 02fc E0        		.byte	-32
 7594 02fd 38        		.byte	56
 7595 02fe E0        		.byte	-32
 7596 02ff 38        		.byte	56
 7597 0300 E0        		.byte	-32
 7598 0301 38        		.byte	56
 7599 0302 E0        		.byte	-32
 7600 0303 38        		.byte	56
 7601 0304 E0        		.byte	-32
 7602 0305 38        		.byte	56
 7603 0306 FF        		.byte	-1
 7604 0307 F8        		.byte	-8
 7605 0308 FF        		.byte	-1
 7606 0309 F8        		.byte	-8
 7607 030a FF        		.byte	-1
 7608 030b F8        		.byte	-8
 7609 030c E0        		.byte	-32
 7610 030d 38        		.byte	56
 7611 030e E0        		.byte	-32
 7612 030f 38        		.byte	56
 7613 0310 E0        		.byte	-32
 7614 0311 38        		.byte	56
 7615 0312 E0        		.byte	-32
 7616 0313 38        		.byte	56
 7617 0314 E0        		.byte	-32
 7618 0315 38        		.byte	56
 7619 0316 E0        		.byte	-32
 7620 0317 38        		.byte	56
 7621 0318 FF        		.byte	-1
 7622 0319 F8        		.byte	-8
 7623 031a FF        		.byte	-1
 7624 031b F8        		.byte	-8
 7625 031c FF        		.byte	-1
 7626 031d F8        		.byte	-8
 7627 031e FF        		.byte	-1
 7628 031f F8        		.byte	-8
 7629 0320 FF        		.byte	-1
 7630 0321 F8        		.byte	-8
 7631 0322 FF        		.byte	-1
 7632 0323 F8        		.byte	-8
 7633 0324 E0        		.byte	-32
 7634 0325 38        		.byte	56
 7635 0326 E0        		.byte	-32
 7636 0327 38        		.byte	56
 7637 0328 E0        		.byte	-32
 7638 0329 38        		.byte	56
 7639 032a E0        		.byte	-32
 7640 032b 38        		.byte	56
 7641 032c E0        		.byte	-32
 7642 032d 38        		.byte	56
 7643 032e E0        		.byte	-32
 7644 032f 38        		.byte	56
 7645 0330 FF        		.byte	-1
 7646 0331 F8        		.byte	-8
 7647 0332 FF        		.byte	-1
 7648 0333 F8        		.byte	-8
 7649 0334 FF        		.byte	-1
 7650 0335 F8        		.byte	-8
 7651 0336 00        		.byte	0
 7652 0337 38        		.byte	56
 7653 0338 00        		.byte	0
 7654 0339 38        		.byte	56
 7655 033a 00        		.byte	0
 7656 033b 38        		.byte	56
 7657 033c 00        		.byte	0
 7658 033d 38        		.byte	56
 7659 033e 00        		.byte	0
 7660 033f 38        		.byte	56
 7661 0340 00        		.byte	0
 7662 0341 38        		.byte	56
 7663 0342 FF        		.byte	-1
 7664 0343 F8        		.byte	-8
 7665 0344 FF        		.byte	-1
 7666 0345 F8        		.byte	-8
 7667 0346 FF        		.byte	-1
 7668 0347 F8        		.byte	-8
 7669               	.global	BIG_NUMBER_STYLE3
 7672               	BIG_NUMBER_STYLE3:
 7673 0348 3F        		.byte	63
 7674 0349 E0        		.byte	-32
 7675 034a 7F        		.byte	127
 7676 034b F0        		.byte	-16
 7677 034c FF        		.byte	-1
 7678 034d F8        		.byte	-8
 7679 034e E0        		.byte	-32
 7680 034f 38        		.byte	56
 7681 0350 E0        		.byte	-32
 7682 0351 38        		.byte	56
 7683 0352 E0        		.byte	-32
 7684 0353 38        		.byte	56
 7685 0354 E0        		.byte	-32
 7686 0355 38        		.byte	56
 7687 0356 E0        		.byte	-32
 7688 0357 38        		.byte	56
 7689 0358 E0        		.byte	-32
 7690 0359 38        		.byte	56
 7691 035a E0        		.byte	-32
 7692 035b 38        		.byte	56
 7693 035c E0        		.byte	-32
 7694 035d 38        		.byte	56
 7695 035e E0        		.byte	-32
 7696 035f 38        		.byte	56
 7697 0360 E0        		.byte	-32
 7698 0361 38        		.byte	56
 7699 0362 E0        		.byte	-32
 7700 0363 38        		.byte	56
 7701 0364 E0        		.byte	-32
 7702 0365 38        		.byte	56
 7703 0366 E0        		.byte	-32
 7704 0367 38        		.byte	56
 7705 0368 E0        		.byte	-32
 7706 0369 38        		.byte	56
 7707 036a E0        		.byte	-32
 7708 036b 38        		.byte	56
 7709 036c FF        		.byte	-1
 7710 036d F8        		.byte	-8
 7711 036e 7F        		.byte	127
 7712 036f F0        		.byte	-16
 7713 0370 3F        		.byte	63
 7714 0371 E0        		.byte	-32
 7715 0372 07        		.byte	7
 7716 0373 00        		.byte	0
 7717 0374 0F        		.byte	15
 7718 0375 00        		.byte	0
 7719 0376 1F        		.byte	31
 7720 0377 00        		.byte	0
 7721 0378 1F        		.byte	31
 7722 0379 00        		.byte	0
 7723 037a 1F        		.byte	31
 7724 037b 00        		.byte	0
 7725 037c 07        		.byte	7
 7726 037d 00        		.byte	0
 7727 037e 07        		.byte	7
 7728 037f 00        		.byte	0
 7729 0380 07        		.byte	7
 7730 0381 00        		.byte	0
 7731 0382 07        		.byte	7
 7732 0383 00        		.byte	0
 7733 0384 07        		.byte	7
 7734 0385 00        		.byte	0
 7735 0386 07        		.byte	7
 7736 0387 00        		.byte	0
 7737 0388 07        		.byte	7
 7738 0389 00        		.byte	0
 7739 038a 07        		.byte	7
 7740 038b 00        		.byte	0
 7741 038c 07        		.byte	7
 7742 038d 00        		.byte	0
 7743 038e 07        		.byte	7
 7744 038f 00        		.byte	0
 7745 0390 07        		.byte	7
 7746 0391 00        		.byte	0
 7747 0392 07        		.byte	7
 7748 0393 00        		.byte	0
 7749 0394 07        		.byte	7
 7750 0395 00        		.byte	0
 7751 0396 FF        		.byte	-1
 7752 0397 F8        		.byte	-8
 7753 0398 FF        		.byte	-1
 7754 0399 F8        		.byte	-8
 7755 039a FF        		.byte	-1
 7756 039b F8        		.byte	-8
 7757 039c 3F        		.byte	63
 7758 039d E0        		.byte	-32
 7759 039e 7F        		.byte	127
 7760 039f F0        		.byte	-16
 7761 03a0 FF        		.byte	-1
 7762 03a1 F8        		.byte	-8
 7763 03a2 E0        		.byte	-32
 7764 03a3 38        		.byte	56
 7765 03a4 00        		.byte	0
 7766 03a5 38        		.byte	56
 7767 03a6 00        		.byte	0
 7768 03a7 38        		.byte	56
 7769 03a8 00        		.byte	0
 7770 03a9 38        		.byte	56
 7771 03aa 00        		.byte	0
 7772 03ab 38        		.byte	56
 7773 03ac 00        		.byte	0
 7774 03ad 38        		.byte	56
 7775 03ae 3F        		.byte	63
 7776 03af F8        		.byte	-8
 7777 03b0 7F        		.byte	127
 7778 03b1 F0        		.byte	-16
 7779 03b2 FF        		.byte	-1
 7780 03b3 E0        		.byte	-32
 7781 03b4 E0        		.byte	-32
 7782 03b5 00        		.byte	0
 7783 03b6 E0        		.byte	-32
 7784 03b7 00        		.byte	0
 7785 03b8 E0        		.byte	-32
 7786 03b9 00        		.byte	0
 7787 03ba E0        		.byte	-32
 7788 03bb 00        		.byte	0
 7789 03bc E0        		.byte	-32
 7790 03bd 00        		.byte	0
 7791 03be E0        		.byte	-32
 7792 03bf 00        		.byte	0
 7793 03c0 FF        		.byte	-1
 7794 03c1 F8        		.byte	-8
 7795 03c2 FF        		.byte	-1
 7796 03c3 F8        		.byte	-8
 7797 03c4 FF        		.byte	-1
 7798 03c5 F8        		.byte	-8
 7799 03c6 3F        		.byte	63
 7800 03c7 E0        		.byte	-32
 7801 03c8 7F        		.byte	127
 7802 03c9 F0        		.byte	-16
 7803 03ca FF        		.byte	-1
 7804 03cb F8        		.byte	-8
 7805 03cc E0        		.byte	-32
 7806 03cd 38        		.byte	56
 7807 03ce 00        		.byte	0
 7808 03cf 38        		.byte	56
 7809 03d0 00        		.byte	0
 7810 03d1 38        		.byte	56
 7811 03d2 00        		.byte	0
 7812 03d3 38        		.byte	56
 7813 03d4 00        		.byte	0
 7814 03d5 38        		.byte	56
 7815 03d6 00        		.byte	0
 7816 03d7 38        		.byte	56
 7817 03d8 1F        		.byte	31
 7818 03d9 F0        		.byte	-16
 7819 03da 1F        		.byte	31
 7820 03db E0        		.byte	-32
 7821 03dc 1F        		.byte	31
 7822 03dd F0        		.byte	-16
 7823 03de 00        		.byte	0
 7824 03df 38        		.byte	56
 7825 03e0 00        		.byte	0
 7826 03e1 38        		.byte	56
 7827 03e2 00        		.byte	0
 7828 03e3 38        		.byte	56
 7829 03e4 00        		.byte	0
 7830 03e5 38        		.byte	56
 7831 03e6 00        		.byte	0
 7832 03e7 38        		.byte	56
 7833 03e8 E0        		.byte	-32
 7834 03e9 38        		.byte	56
 7835 03ea FF        		.byte	-1
 7836 03eb F8        		.byte	-8
 7837 03ec 7F        		.byte	127
 7838 03ed F0        		.byte	-16
 7839 03ee 3F        		.byte	63
 7840 03ef E0        		.byte	-32
 7841 03f0 E1        		.byte	-31
 7842 03f1 C0        		.byte	-64
 7843 03f2 E1        		.byte	-31
 7844 03f3 C0        		.byte	-64
 7845 03f4 E1        		.byte	-31
 7846 03f5 C0        		.byte	-64
 7847 03f6 E1        		.byte	-31
 7848 03f7 C0        		.byte	-64
 7849 03f8 E1        		.byte	-31
 7850 03f9 C0        		.byte	-64
 7851 03fa E1        		.byte	-31
 7852 03fb C0        		.byte	-64
 7853 03fc E1        		.byte	-31
 7854 03fd C0        		.byte	-64
 7855 03fe E1        		.byte	-31
 7856 03ff C0        		.byte	-64
 7857 0400 E1        		.byte	-31
 7858 0401 C0        		.byte	-64
 7859 0402 FF        		.byte	-1
 7860 0403 F8        		.byte	-8
 7861 0404 FF        		.byte	-1
 7862 0405 F8        		.byte	-8
 7863 0406 FF        		.byte	-1
 7864 0407 F8        		.byte	-8
 7865 0408 01        		.byte	1
 7866 0409 C0        		.byte	-64
 7867 040a 01        		.byte	1
 7868 040b C0        		.byte	-64
 7869 040c 01        		.byte	1
 7870 040d C0        		.byte	-64
 7871 040e 01        		.byte	1
 7872 040f C0        		.byte	-64
 7873 0410 01        		.byte	1
 7874 0411 C0        		.byte	-64
 7875 0412 01        		.byte	1
 7876 0413 C0        		.byte	-64
 7877 0414 01        		.byte	1
 7878 0415 C0        		.byte	-64
 7879 0416 01        		.byte	1
 7880 0417 C0        		.byte	-64
 7881 0418 01        		.byte	1
 7882 0419 C0        		.byte	-64
 7883 041a FF        		.byte	-1
 7884 041b F8        		.byte	-8
 7885 041c FF        		.byte	-1
 7886 041d F8        		.byte	-8
 7887 041e FF        		.byte	-1
 7888 041f F8        		.byte	-8
 7889 0420 E0        		.byte	-32
 7890 0421 00        		.byte	0
 7891 0422 E0        		.byte	-32
 7892 0423 00        		.byte	0
 7893 0424 E0        		.byte	-32
 7894 0425 00        		.byte	0
 7895 0426 E0        		.byte	-32
 7896 0427 00        		.byte	0
 7897 0428 E0        		.byte	-32
 7898 0429 00        		.byte	0
 7899 042a E0        		.byte	-32
 7900 042b 00        		.byte	0
 7901 042c FF        		.byte	-1
 7902 042d E0        		.byte	-32
 7903 042e FF        		.byte	-1
 7904 042f F0        		.byte	-16
 7905 0430 FF        		.byte	-1
 7906 0431 F8        		.byte	-8
 7907 0432 00        		.byte	0
 7908 0433 38        		.byte	56
 7909 0434 00        		.byte	0
 7910 0435 38        		.byte	56
 7911 0436 00        		.byte	0
 7912 0437 38        		.byte	56
 7913 0438 00        		.byte	0
 7914 0439 38        		.byte	56
 7915 043a 00        		.byte	0
 7916 043b 38        		.byte	56
 7917 043c E0        		.byte	-32
 7918 043d 38        		.byte	56
 7919 043e FF        		.byte	-1
 7920 043f F8        		.byte	-8
 7921 0440 7F        		.byte	127
 7922 0441 F0        		.byte	-16
 7923 0442 3F        		.byte	63
 7924 0443 E0        		.byte	-32
 7925 0444 E0        		.byte	-32
 7926 0445 00        		.byte	0
 7927 0446 E0        		.byte	-32
 7928 0447 00        		.byte	0
 7929 0448 E0        		.byte	-32
 7930 0449 00        		.byte	0
 7931 044a E0        		.byte	-32
 7932 044b 00        		.byte	0
 7933 044c E0        		.byte	-32
 7934 044d 00        		.byte	0
 7935 044e E0        		.byte	-32
 7936 044f 00        		.byte	0
 7937 0450 E0        		.byte	-32
 7938 0451 00        		.byte	0
 7939 0452 E0        		.byte	-32
 7940 0453 00        		.byte	0
 7941 0454 E0        		.byte	-32
 7942 0455 00        		.byte	0
 7943 0456 FF        		.byte	-1
 7944 0457 E0        		.byte	-32
 7945 0458 FF        		.byte	-1
 7946 0459 F0        		.byte	-16
 7947 045a FF        		.byte	-1
 7948 045b F8        		.byte	-8
 7949 045c E0        		.byte	-32
 7950 045d 38        		.byte	56
 7951 045e E0        		.byte	-32
 7952 045f 38        		.byte	56
 7953 0460 E0        		.byte	-32
 7954 0461 38        		.byte	56
 7955 0462 E0        		.byte	-32
 7956 0463 38        		.byte	56
 7957 0464 E0        		.byte	-32
 7958 0465 38        		.byte	56
 7959 0466 E0        		.byte	-32
 7960 0467 38        		.byte	56
 7961 0468 FF        		.byte	-1
 7962 0469 F8        		.byte	-8
 7963 046a 7F        		.byte	127
 7964 046b F0        		.byte	-16
 7965 046c 3F        		.byte	63
 7966 046d E0        		.byte	-32
 7967 046e FF        		.byte	-1
 7968 046f F8        		.byte	-8
 7969 0470 FF        		.byte	-1
 7970 0471 F8        		.byte	-8
 7971 0472 FF        		.byte	-1
 7972 0473 F8        		.byte	-8
 7973 0474 00        		.byte	0
 7974 0475 38        		.byte	56
 7975 0476 00        		.byte	0
 7976 0477 38        		.byte	56
 7977 0478 00        		.byte	0
 7978 0479 38        		.byte	56
 7979 047a 00        		.byte	0
 7980 047b 38        		.byte	56
 7981 047c 00        		.byte	0
 7982 047d 38        		.byte	56
 7983 047e 00        		.byte	0
 7984 047f 38        		.byte	56
 7985 0480 00        		.byte	0
 7986 0481 38        		.byte	56
 7987 0482 00        		.byte	0
 7988 0483 38        		.byte	56
 7989 0484 00        		.byte	0
 7990 0485 38        		.byte	56
 7991 0486 00        		.byte	0
 7992 0487 38        		.byte	56
 7993 0488 00        		.byte	0
 7994 0489 38        		.byte	56
 7995 048a 00        		.byte	0
 7996 048b 38        		.byte	56
 7997 048c 00        		.byte	0
 7998 048d 38        		.byte	56
 7999 048e 00        		.byte	0
 8000 048f 38        		.byte	56
 8001 0490 00        		.byte	0
 8002 0491 38        		.byte	56
 8003 0492 00        		.byte	0
 8004 0493 38        		.byte	56
 8005 0494 00        		.byte	0
 8006 0495 38        		.byte	56
 8007 0496 00        		.byte	0
 8008 0497 38        		.byte	56
 8009 0498 3F        		.byte	63
 8010 0499 E0        		.byte	-32
 8011 049a 7F        		.byte	127
 8012 049b F0        		.byte	-16
 8013 049c FF        		.byte	-1
 8014 049d F8        		.byte	-8
 8015 049e E0        		.byte	-32
 8016 049f 38        		.byte	56
 8017 04a0 E0        		.byte	-32
 8018 04a1 38        		.byte	56
 8019 04a2 E0        		.byte	-32
 8020 04a3 38        		.byte	56
 8021 04a4 E0        		.byte	-32
 8022 04a5 38        		.byte	56
 8023 04a6 E0        		.byte	-32
 8024 04a7 38        		.byte	56
 8025 04a8 70        		.byte	112
 8026 04a9 70        		.byte	112
 8027 04aa 3F        		.byte	63
 8028 04ab E0        		.byte	-32
 8029 04ac 1F        		.byte	31
 8030 04ad C0        		.byte	-64
 8031 04ae 3F        		.byte	63
 8032 04af E0        		.byte	-32
 8033 04b0 70        		.byte	112
 8034 04b1 70        		.byte	112
 8035 04b2 E0        		.byte	-32
 8036 04b3 38        		.byte	56
 8037 04b4 E0        		.byte	-32
 8038 04b5 38        		.byte	56
 8039 04b6 E0        		.byte	-32
 8040 04b7 38        		.byte	56
 8041 04b8 E0        		.byte	-32
 8042 04b9 38        		.byte	56
 8043 04ba E0        		.byte	-32
 8044 04bb 38        		.byte	56
 8045 04bc FF        		.byte	-1
 8046 04bd F8        		.byte	-8
 8047 04be 7F        		.byte	127
 8048 04bf F0        		.byte	-16
 8049 04c0 3F        		.byte	63
 8050 04c1 E0        		.byte	-32
 8051 04c2 3F        		.byte	63
 8052 04c3 E0        		.byte	-32
 8053 04c4 7F        		.byte	127
 8054 04c5 F0        		.byte	-16
 8055 04c6 FF        		.byte	-1
 8056 04c7 F8        		.byte	-8
 8057 04c8 E0        		.byte	-32
 8058 04c9 38        		.byte	56
 8059 04ca E0        		.byte	-32
 8060 04cb 38        		.byte	56
 8061 04cc E0        		.byte	-32
 8062 04cd 38        		.byte	56
 8063 04ce E0        		.byte	-32
 8064 04cf 38        		.byte	56
 8065 04d0 E0        		.byte	-32
 8066 04d1 38        		.byte	56
 8067 04d2 E0        		.byte	-32
 8068 04d3 38        		.byte	56
 8069 04d4 FF        		.byte	-1
 8070 04d5 F8        		.byte	-8
 8071 04d6 7F        		.byte	127
 8072 04d7 F8        		.byte	-8
 8073 04d8 3F        		.byte	63
 8074 04d9 F8        		.byte	-8
 8075 04da 00        		.byte	0
 8076 04db 38        		.byte	56
 8077 04dc 00        		.byte	0
 8078 04dd 38        		.byte	56
 8079 04de 00        		.byte	0
 8080 04df 38        		.byte	56
 8081 04e0 00        		.byte	0
 8082 04e1 38        		.byte	56
 8083 04e2 00        		.byte	0
 8084 04e3 38        		.byte	56
 8085 04e4 00        		.byte	0
 8086 04e5 38        		.byte	56
 8087 04e6 00        		.byte	0
 8088 04e7 38        		.byte	56
 8089 04e8 00        		.byte	0
 8090 04e9 38        		.byte	56
 8091 04ea 00        		.byte	0
 8092 04eb 38        		.byte	56
 8093               	.global	SCROLL
 8096               	SCROLL:
 8097 04ec 7C        		.byte	124
 8098 04ed 82        		.byte	-126
 8099 04ee 82        		.byte	-126
 8100 04ef 82        		.byte	-126
 8101 04f0 82        		.byte	-126
 8102 04f1 82        		.byte	-126
 8103 04f2 82        		.byte	-126
 8104 04f3 82        		.byte	-126
 8105 04f4 82        		.byte	-126
 8106 04f5 7C        		.byte	124
 8107 04f6 10        		.byte	16
 8108 04f7 30        		.byte	48
 8109 04f8 50        		.byte	80
 8110 04f9 10        		.byte	16
 8111 04fa 10        		.byte	16
 8112 04fb 10        		.byte	16
 8113 04fc 10        		.byte	16
 8114 04fd 10        		.byte	16
 8115 04fe 10        		.byte	16
 8116 04ff FE        		.byte	-2
 8117 0500 38        		.byte	56
 8118 0501 44        		.byte	68
 8119 0502 82        		.byte	-126
 8120 0503 82        		.byte	-126
 8121 0504 04        		.byte	4
 8122 0505 08        		.byte	8
 8123 0506 10        		.byte	16
 8124 0507 20        		.byte	32
 8125 0508 40        		.byte	64
 8126 0509 FE        		.byte	-2
 8127 050a 7C        		.byte	124
 8128 050b 82        		.byte	-126
 8129 050c 02        		.byte	2
 8130 050d 02        		.byte	2
 8131 050e 3C        		.byte	60
 8132 050f 02        		.byte	2
 8133 0510 02        		.byte	2
 8134 0511 82        		.byte	-126
 8135 0512 82        		.byte	-126
 8136 0513 7C        		.byte	124
 8137 0514 06        		.byte	6
 8138 0515 0C        		.byte	12
 8139 0516 14        		.byte	20
 8140 0517 24        		.byte	36
 8141 0518 44        		.byte	68
 8142 0519 84        		.byte	-124
 8143 051a FE        		.byte	-2
 8144 051b 04        		.byte	4
 8145 051c 04        		.byte	4
 8146 051d 04        		.byte	4
 8147 051e FE        		.byte	-2
 8148 051f 80        		.byte	-128
 8149 0520 80        		.byte	-128
 8150 0521 FC        		.byte	-4
 8151 0522 02        		.byte	2
 8152 0523 02        		.byte	2
 8153 0524 02        		.byte	2
 8154 0525 82        		.byte	-126
 8155 0526 82        		.byte	-126
 8156 0527 7C        		.byte	124
 8157 0528 7C        		.byte	124
 8158 0529 82        		.byte	-126
 8159 052a 80        		.byte	-128
 8160 052b 80        		.byte	-128
 8161 052c FC        		.byte	-4
 8162 052d 82        		.byte	-126
 8163 052e 82        		.byte	-126
 8164 052f 82        		.byte	-126
 8165 0530 82        		.byte	-126
 8166 0531 7C        		.byte	124
 8167 0532 7E        		.byte	126
 8168 0533 82        		.byte	-126
 8169 0534 02        		.byte	2
 8170 0535 04        		.byte	4
 8171 0536 08        		.byte	8
 8172 0537 10        		.byte	16
 8173 0538 20        		.byte	32
 8174 0539 20        		.byte	32
 8175 053a 20        		.byte	32
 8176 053b 20        		.byte	32
 8177 053c 7C        		.byte	124
 8178 053d 82        		.byte	-126
 8179 053e 82        		.byte	-126
 8180 053f 82        		.byte	-126
 8181 0540 7C        		.byte	124
 8182 0541 82        		.byte	-126
 8183 0542 82        		.byte	-126
 8184 0543 82        		.byte	-126
 8185 0544 82        		.byte	-126
 8186 0545 7C        		.byte	124
 8187 0546 7C        		.byte	124
 8188 0547 82        		.byte	-126
 8189 0548 82        		.byte	-126
 8190 0549 82        		.byte	-126
 8191 054a 82        		.byte	-126
 8192 054b 7E        		.byte	126
 8193 054c 02        		.byte	2
 8194 054d 02        		.byte	2
 8195 054e 82        		.byte	-126
 8196 054f 7C        		.byte	124
 8197 0550 40        		.byte	64
 8198 0551 7E        		.byte	126
 8199 0552 88        		.byte	-120
 8200 0553 7E        		.byte	126
 8201 0554 48        		.byte	72
 8202 0555 48        		.byte	72
 8203 0556 FE        		.byte	-2
 8204 0557 08        		.byte	8
 8205 0558 08        		.byte	8
 8206 0559 08        		.byte	8
 8207 055a 7E        		.byte	126
 8208 055b 42        		.byte	66
 8209 055c 42        		.byte	66
 8210 055d 7E        		.byte	126
 8211 055e 42        		.byte	66
 8212 055f 42        		.byte	66
 8213 0560 7E        		.byte	126
 8214 0561 42        		.byte	66
 8215 0562 46        		.byte	70
 8216 0563 82        		.byte	-126
 8217 0564 7E        		.byte	126
 8218 0565 92        		.byte	-110
 8219 0566 BA        		.byte	-70
 8220 0567 92        		.byte	-110
 8221 0568 BA        		.byte	-70
 8222 0569 82        		.byte	-126
 8223 056a BA        		.byte	-70
 8224 056b AA        		.byte	-86
 8225 056c BA        		.byte	-70
 8226 056d 86        		.byte	-122
 8227 056e 08        		.byte	8
 8228 056f 7E        		.byte	126
 8229 0570 54        		.byte	84
 8230 0571 7E        		.byte	126
 8231 0572 5C        		.byte	92
 8232 0573 40        		.byte	64
 8233 0574 5C        		.byte	92
 8234 0575 54        		.byte	84
 8235 0576 48        		.byte	72
 8236 0577 96        		.byte	-106
 8237 0578 00        		.byte	0
 8238 0579 00        		.byte	0
 8239 057a 00        		.byte	0
 8240 057b 00        		.byte	0
 8241 057c FE        		.byte	-2
 8242 057d 00        		.byte	0
 8243 057e 00        		.byte	0
 8244 057f 00        		.byte	0
 8245 0580 00        		.byte	0
 8246 0581 00        		.byte	0
 8247 0582 00        		.byte	0
 8248 0583 00        		.byte	0
 8249 0584 00        		.byte	0
 8250 0585 7E        		.byte	126
 8251 0586 00        		.byte	0
 8252 0587 00        		.byte	0
 8253 0588 00        		.byte	0
 8254 0589 FF        		.byte	-1
 8255 058a 00        		.byte	0
 8256 058b 00        		.byte	0
 8257 058c 00        		.byte	0
 8258 058d 7E        		.byte	126
 8259 058e 00        		.byte	0
 8260 058f 00        		.byte	0
 8261 0590 00        		.byte	0
 8262 0591 3C        		.byte	60
 8263 0592 00        		.byte	0
 8264 0593 00        		.byte	0
 8265 0594 00        		.byte	0
 8266 0595 FF        		.byte	-1
 8267 0596 FF        		.byte	-1
 8268 0597 A9        		.byte	-87
 8269 0598 A9        		.byte	-87
 8270 0599 A9        		.byte	-87
 8271 059a A9        		.byte	-87
 8272 059b A9        		.byte	-87
 8273 059c C7        		.byte	-57
 8274 059d 81        		.byte	-127
 8275 059e FF        		.byte	-1
 8276 059f 81        		.byte	-127
 8277 05a0 7E        		.byte	126
 8278 05a1 10        		.byte	16
 8279 05a2 10        		.byte	16
 8280 05a3 10        		.byte	16
 8281 05a4 7C        		.byte	124
 8282 05a5 14        		.byte	20
 8283 05a6 14        		.byte	20
 8284 05a7 14        		.byte	20
 8285 05a8 14        		.byte	20
 8286 05a9 FF        		.byte	-1
 8287 05aa 30        		.byte	48
 8288 05ab 18        		.byte	24
 8289 05ac 08        		.byte	8
 8290 05ad FF        		.byte	-1
 8291 05ae 00        		.byte	0
 8292 05af 24        		.byte	36
 8293 05b0 24        		.byte	36
 8294 05b1 66        		.byte	102
 8295 05b2 66        		.byte	102
 8296 05b3 C2        		.byte	-62
 8297 05b4 7F        		.byte	127
 8298 05b5 41        		.byte	65
 8299 05b6 41        		.byte	65
 8300 05b7 41        		.byte	65
 8301 05b8 7F        		.byte	127
 8302 05b9 41        		.byte	65
 8303 05ba 41        		.byte	65
 8304 05bb 41        		.byte	65
 8305 05bc 41        		.byte	65
 8306 05bd 7F        		.byte	127
 8307 05be 00        		.byte	0
 8308 05bf 00        		.byte	0
 8309 05c0 00        		.byte	0
 8310 05c1 00        		.byte	0
 8311 05c2 00        		.byte	0
 8312 05c3 00        		.byte	0
 8313 05c4 00        		.byte	0
 8314 05c5 00        		.byte	0
 8315 05c6 18        		.byte	24
 8316 05c7 18        		.byte	24
 8317 05c8 00        		.byte	0
 8318 05c9 00        		.byte	0
 8319 05ca 00        		.byte	0
 8320 05cb 00        		.byte	0
 8321 05cc 00        		.byte	0
 8322 05cd 00        		.byte	0
 8323 05ce 00        		.byte	0
 8324 05cf 00        		.byte	0
 8325 05d0 00        		.byte	0
 8326 05d1 00        		.byte	0
 8327 05d2 02        		.byte	2
 8328 05d3 E2        		.byte	-30
 8329 05d4 BF        		.byte	-65
 8330 05d5 A2        		.byte	-94
 8331 05d6 EA        		.byte	-22
 8332 05d7 AA        		.byte	-86
 8333 05d8 A2        		.byte	-94
 8334 05d9 AA        		.byte	-86
 8335 05da E6        		.byte	-26
 8336 05db 02        		.byte	2
 8337 05dc 38        		.byte	56
 8338 05dd 24        		.byte	36
 8339 05de 24        		.byte	36
 8340 05df 42        		.byte	66
 8341 05e0 BD        		.byte	-67
 8342 05e1 24        		.byte	36
 8343 05e2 24        		.byte	36
 8344 05e3 24        		.byte	36
 8345 05e4 44        		.byte	68
 8346 05e5 8C        		.byte	-116
 8347 05e6 10        		.byte	16
 8348 05e7 FF        		.byte	-1
 8349 05e8 3C        		.byte	60
 8350 05e9 24        		.byte	36
 8351 05ea 3C        		.byte	60
 8352 05eb FF        		.byte	-1
 8353 05ec 81        		.byte	-127
 8354 05ed 3C        		.byte	60
 8355 05ee 24        		.byte	36
 8356 05ef 47        		.byte	71
 8357 05f0 20        		.byte	32
 8358 05f1 3E        		.byte	62
 8359 05f2 40        		.byte	64
 8360 05f3 BE        		.byte	-66
 8361 05f4 2A        		.byte	42
 8362 05f5 FF        		.byte	-1
 8363 05f6 32        		.byte	50
 8364 05f7 7E        		.byte	126
 8365 05f8 02        		.byte	2
 8366 05f9 04        		.byte	4
 8367 05fa 40        		.byte	64
 8368 05fb 40        		.byte	64
 8369 05fc 40        		.byte	64
 8370 05fd F7        		.byte	-9
 8371 05fe 55        		.byte	85
 8372 05ff 55        		.byte	85
 8373 0600 55        		.byte	85
 8374 0601 57        		.byte	87
 8375 0602 50        		.byte	80
 8376 0603 B0        		.byte	-80
 8377 0604 5C        		.byte	92
 8378 0605 14        		.byte	20
 8379 0606 D4        		.byte	-44
 8380 0607 76        		.byte	118
 8381 0608 40        		.byte	64
 8382 0609 5C        		.byte	92
 8383 060a 54        		.byte	84
 8384 060b 54        		.byte	84
 8385 060c 68        		.byte	104
 8386 060d 56        		.byte	86
 8387 060e 7E        		.byte	126
 8388 060f 5A        		.byte	90
 8389 0610 7E        		.byte	126
 8390 0611 FF        		.byte	-1
 8391 0612 7E        		.byte	126
 8392 0613 42        		.byte	66
 8393 0614 7E        		.byte	126
 8394 0615 7E        		.byte	126
 8395 0616 42        		.byte	66
 8396 0617 FF        		.byte	-1
 8397 0618 00        		.byte	0
 8398 0619 00        		.byte	0
 8399 061a 00        		.byte	0
 8400 061b 00        		.byte	0
 8401 061c 00        		.byte	0
 8402 061d 60        		.byte	96
 8403 061e 60        		.byte	96
 8404 061f 00        		.byte	0
 8405 0620 60        		.byte	96
 8406 0621 60        		.byte	96
 8407 0622 10        		.byte	16
 8408 0623 10        		.byte	16
 8409 0624 7E        		.byte	126
 8410 0625 42        		.byte	66
 8411 0626 7E        		.byte	126
 8412 0627 42        		.byte	66
 8413 0628 7E        		.byte	126
 8414 0629 42        		.byte	66
 8415 062a 7E        		.byte	126
 8416 062b 42        		.byte	66
 8417 062c 04        		.byte	4
 8418 062d 7E        		.byte	126
 8419 062e 08        		.byte	8
 8420 062f 7E        		.byte	126
 8421 0630 08        		.byte	8
 8422 0631 FF        		.byte	-1
 8423 0632 08        		.byte	8
 8424 0633 08        		.byte	8
 8425 0634 28        		.byte	40
 8426 0635 18        		.byte	24
 8427 0636 02        		.byte	2
 8428 0637 02        		.byte	2
 8429 0638 BF        		.byte	-65
 8430 0639 62        		.byte	98
 8431 063a 3A        		.byte	58
 8432 063b 22        		.byte	34
 8433 063c 7A        		.byte	122
 8434 063d BB        		.byte	-69
 8435 063e 22        		.byte	34
 8436 063f 45        		.byte	69
 8437 0640 48        		.byte	72
 8438 0641 48        		.byte	72
 8439 0642 7E        		.byte	126
 8440 0643 D4        		.byte	-44
 8441 0644 62        		.byte	98
 8442 0645 54        		.byte	84
 8443 0646 D4        		.byte	-44
 8444 0647 48        		.byte	72
 8445 0648 54        		.byte	84
 8446 0649 62        		.byte	98
 8447 064a 10        		.byte	16
 8448 064b FE        		.byte	-2
 8449 064c 92        		.byte	-110
 8450 064d FE        		.byte	-2
 8451 064e 92        		.byte	-110
 8452 064f 92        		.byte	-110
 8453 0650 FE        		.byte	-2
 8454 0651 10        		.byte	16
 8455 0652 12        		.byte	18
 8456 0653 1E        		.byte	30
 8457 0654 FE        		.byte	-2
 8458 0655 04        		.byte	4
 8459 0656 08        		.byte	8
 8460 0657 10        		.byte	16
 8461 0658 FE        		.byte	-2
 8462 0659 10        		.byte	16
 8463 065a 10        		.byte	16
 8464 065b 10        		.byte	16
 8465 065c 50        		.byte	80
 8466 065d 30        		.byte	48
 8467 065e FE        		.byte	-2
 8468 065f 40        		.byte	64
 8469 0660 50        		.byte	80
 8470 0661 7E        		.byte	126
 8471 0662 52        		.byte	82
 8472 0663 52        		.byte	82
 8473 0664 52        		.byte	82
 8474 0665 52        		.byte	82
 8475 0666 52        		.byte	82
 8476 0667 A4        		.byte	-92
 8477 0668 00        		.byte	0
 8478 0669 00        		.byte	0
 8479 066a 00        		.byte	0
 8480 066b 00        		.byte	0
 8481 066c 7E        		.byte	126
 8482 066d 7E        		.byte	126
 8483 066e 00        		.byte	0
 8484 066f 00        		.byte	0
 8485 0670 00        		.byte	0
 8486 0671 00        		.byte	0
 8487 0672 7E        		.byte	126
 8488 0673 41        		.byte	65
 8489 0674 41        		.byte	65
 8490 0675 41        		.byte	65
 8491 0676 7E        		.byte	126
 8492 0677 41        		.byte	65
 8493 0678 41        		.byte	65
 8494 0679 41        		.byte	65
 8495 067a 41        		.byte	65
 8496 067b 7E        		.byte	126
 8497 067c 41        		.byte	65
 8498 067d 41        		.byte	65
 8499 067e 22        		.byte	34
 8500 067f 14        		.byte	20
 8501 0680 08        		.byte	8
 8502 0681 14        		.byte	20
 8503 0682 22        		.byte	34
 8504 0683 22        		.byte	34
 8505 0684 41        		.byte	65
 8506 0685 41        		.byte	65
 8507 0686 41        		.byte	65
 8508 0687 41        		.byte	65
 8509 0688 41        		.byte	65
 8510 0689 22        		.byte	34
 8511 068a 14        		.byte	20
 8512 068b 08        		.byte	8
 8513 068c 08        		.byte	8
 8514 068d 08        		.byte	8
 8515 068e 08        		.byte	8
 8516 068f 08        		.byte	8
 8517 0690 FE        		.byte	-2
 8518 0691 82        		.byte	-126
 8519 0692 82        		.byte	-126
 8520 0693 82        		.byte	-126
 8521 0694 FE        		.byte	-2
 8522 0695 82        		.byte	-126
 8523 0696 82        		.byte	-126
 8524 0697 82        		.byte	-126
 8525 0698 82        		.byte	-126
 8526 0699 FE        		.byte	-2
 8527 069a 84        		.byte	-124
 8528 069b 5F        		.byte	95
 8529 069c C4        		.byte	-60
 8530 069d 5F        		.byte	95
 8531 069e 55        		.byte	85
 8532 069f 5F        		.byte	95
 8533 06a0 44        		.byte	68
 8534 06a1 4E        		.byte	78
 8535 06a2 55        		.byte	85
 8536 06a3 BF        		.byte	-65
 8537 06a4 08        		.byte	8
 8538 06a5 FF        		.byte	-1
 8539 06a6 81        		.byte	-127
 8540 06a7 7E        		.byte	126
 8541 06a8 04        		.byte	4
 8542 06a9 FF        		.byte	-1
 8543 06aa 08        		.byte	8
 8544 06ab 08        		.byte	8
 8545 06ac 38        		.byte	56
 8546 06ad 08        		.byte	8
 8547 06ae 24        		.byte	36
 8548 06af 44        		.byte	68
 8549 06b0 FF        		.byte	-1
 8550 06b1 4E        		.byte	78
 8551 06b2 55        		.byte	85
 8552 06b3 55        		.byte	85
 8553 06b4 5F        		.byte	95
 8554 06b5 65        		.byte	101
 8555 06b6 44        		.byte	68
 8556 06b7 44        		.byte	68
 8557               	.global	SCROLL_STYLE1
 8560               	SCROLL_STYLE1:
 8561 06b8 7C        		.byte	124
 8562 06b9 82        		.byte	-126
 8563 06ba 82        		.byte	-126
 8564 06bb 82        		.byte	-126
 8565 06bc 82        		.byte	-126
 8566 06bd 82        		.byte	-126
 8567 06be 82        		.byte	-126
 8568 06bf 82        		.byte	-126
 8569 06c0 82        		.byte	-126
 8570 06c1 7C        		.byte	124
 8571 06c2 10        		.byte	16
 8572 06c3 30        		.byte	48
 8573 06c4 50        		.byte	80
 8574 06c5 10        		.byte	16
 8575 06c6 10        		.byte	16
 8576 06c7 10        		.byte	16
 8577 06c8 10        		.byte	16
 8578 06c9 10        		.byte	16
 8579 06ca 10        		.byte	16
 8580 06cb FE        		.byte	-2
 8581 06cc 38        		.byte	56
 8582 06cd 44        		.byte	68
 8583 06ce 82        		.byte	-126
 8584 06cf 82        		.byte	-126
 8585 06d0 04        		.byte	4
 8586 06d1 08        		.byte	8
 8587 06d2 10        		.byte	16
 8588 06d3 20        		.byte	32
 8589 06d4 40        		.byte	64
 8590 06d5 FE        		.byte	-2
 8591 06d6 7C        		.byte	124
 8592 06d7 82        		.byte	-126
 8593 06d8 02        		.byte	2
 8594 06d9 02        		.byte	2
 8595 06da 3C        		.byte	60
 8596 06db 02        		.byte	2
 8597 06dc 02        		.byte	2
 8598 06dd 82        		.byte	-126
 8599 06de 82        		.byte	-126
 8600 06df 7C        		.byte	124
 8601 06e0 06        		.byte	6
 8602 06e1 0C        		.byte	12
 8603 06e2 14        		.byte	20
 8604 06e3 24        		.byte	36
 8605 06e4 44        		.byte	68
 8606 06e5 84        		.byte	-124
 8607 06e6 FE        		.byte	-2
 8608 06e7 04        		.byte	4
 8609 06e8 04        		.byte	4
 8610 06e9 04        		.byte	4
 8611 06ea FE        		.byte	-2
 8612 06eb 80        		.byte	-128
 8613 06ec 80        		.byte	-128
 8614 06ed FC        		.byte	-4
 8615 06ee 02        		.byte	2
 8616 06ef 02        		.byte	2
 8617 06f0 02        		.byte	2
 8618 06f1 82        		.byte	-126
 8619 06f2 82        		.byte	-126
 8620 06f3 7C        		.byte	124
 8621 06f4 7C        		.byte	124
 8622 06f5 82        		.byte	-126
 8623 06f6 80        		.byte	-128
 8624 06f7 80        		.byte	-128
 8625 06f8 FC        		.byte	-4
 8626 06f9 82        		.byte	-126
 8627 06fa 82        		.byte	-126
 8628 06fb 82        		.byte	-126
 8629 06fc 82        		.byte	-126
 8630 06fd 7C        		.byte	124
 8631 06fe 7E        		.byte	126
 8632 06ff 82        		.byte	-126
 8633 0700 02        		.byte	2
 8634 0701 04        		.byte	4
 8635 0702 08        		.byte	8
 8636 0703 10        		.byte	16
 8637 0704 20        		.byte	32
 8638 0705 20        		.byte	32
 8639 0706 20        		.byte	32
 8640 0707 20        		.byte	32
 8641 0708 7C        		.byte	124
 8642 0709 82        		.byte	-126
 8643 070a 82        		.byte	-126
 8644 070b 82        		.byte	-126
 8645 070c 7C        		.byte	124
 8646 070d 82        		.byte	-126
 8647 070e 82        		.byte	-126
 8648 070f 82        		.byte	-126
 8649 0710 82        		.byte	-126
 8650 0711 7C        		.byte	124
 8651 0712 7C        		.byte	124
 8652 0713 82        		.byte	-126
 8653 0714 82        		.byte	-126
 8654 0715 82        		.byte	-126
 8655 0716 82        		.byte	-126
 8656 0717 7E        		.byte	126
 8657 0718 02        		.byte	2
 8658 0719 02        		.byte	2
 8659 071a 82        		.byte	-126
 8660 071b 7C        		.byte	124
 8661 071c 40        		.byte	64
 8662 071d 7E        		.byte	126
 8663 071e 88        		.byte	-120
 8664 071f 7E        		.byte	126
 8665 0720 48        		.byte	72
 8666 0721 48        		.byte	72
 8667 0722 FE        		.byte	-2
 8668 0723 08        		.byte	8
 8669 0724 08        		.byte	8
 8670 0725 08        		.byte	8
 8671 0726 7E        		.byte	126
 8672 0727 42        		.byte	66
 8673 0728 42        		.byte	66
 8674 0729 7E        		.byte	126
 8675 072a 42        		.byte	66
 8676 072b 42        		.byte	66
 8677 072c 7E        		.byte	126
 8678 072d 42        		.byte	66
 8679 072e 46        		.byte	70
 8680 072f 82        		.byte	-126
 8681 0730 7E        		.byte	126
 8682 0731 92        		.byte	-110
 8683 0732 BA        		.byte	-70
 8684 0733 92        		.byte	-110
 8685 0734 BA        		.byte	-70
 8686 0735 82        		.byte	-126
 8687 0736 BA        		.byte	-70
 8688 0737 AA        		.byte	-86
 8689 0738 BA        		.byte	-70
 8690 0739 86        		.byte	-122
 8691 073a 08        		.byte	8
 8692 073b 7E        		.byte	126
 8693 073c 54        		.byte	84
 8694 073d 7E        		.byte	126
 8695 073e 5C        		.byte	92
 8696 073f 40        		.byte	64
 8697 0740 5C        		.byte	92
 8698 0741 54        		.byte	84
 8699 0742 48        		.byte	72
 8700 0743 96        		.byte	-106
 8701 0744 00        		.byte	0
 8702 0745 00        		.byte	0
 8703 0746 00        		.byte	0
 8704 0747 00        		.byte	0
 8705 0748 FE        		.byte	-2
 8706 0749 00        		.byte	0
 8707 074a 00        		.byte	0
 8708 074b 00        		.byte	0
 8709 074c 00        		.byte	0
 8710 074d 00        		.byte	0
 8711 074e 00        		.byte	0
 8712 074f 00        		.byte	0
 8713 0750 00        		.byte	0
 8714 0751 7E        		.byte	126
 8715 0752 00        		.byte	0
 8716 0753 00        		.byte	0
 8717 0754 00        		.byte	0
 8718 0755 FF        		.byte	-1
 8719 0756 00        		.byte	0
 8720 0757 00        		.byte	0
 8721 0758 00        		.byte	0
 8722 0759 7E        		.byte	126
 8723 075a 00        		.byte	0
 8724 075b 00        		.byte	0
 8725 075c 00        		.byte	0
 8726 075d 3C        		.byte	60
 8727 075e 00        		.byte	0
 8728 075f 00        		.byte	0
 8729 0760 00        		.byte	0
 8730 0761 FF        		.byte	-1
 8731 0762 FF        		.byte	-1
 8732 0763 A9        		.byte	-87
 8733 0764 A9        		.byte	-87
 8734 0765 A9        		.byte	-87
 8735 0766 A9        		.byte	-87
 8736 0767 A9        		.byte	-87
 8737 0768 C7        		.byte	-57
 8738 0769 81        		.byte	-127
 8739 076a FF        		.byte	-1
 8740 076b 81        		.byte	-127
 8741 076c 7E        		.byte	126
 8742 076d 10        		.byte	16
 8743 076e 10        		.byte	16
 8744 076f 10        		.byte	16
 8745 0770 7C        		.byte	124
 8746 0771 14        		.byte	20
 8747 0772 14        		.byte	20
 8748 0773 14        		.byte	20
 8749 0774 14        		.byte	20
 8750 0775 FF        		.byte	-1
 8751 0776 30        		.byte	48
 8752 0777 18        		.byte	24
 8753 0778 08        		.byte	8
 8754 0779 FF        		.byte	-1
 8755 077a 00        		.byte	0
 8756 077b 24        		.byte	36
 8757 077c 24        		.byte	36
 8758 077d 66        		.byte	102
 8759 077e 66        		.byte	102
 8760 077f C2        		.byte	-62
 8761 0780 7F        		.byte	127
 8762 0781 41        		.byte	65
 8763 0782 41        		.byte	65
 8764 0783 41        		.byte	65
 8765 0784 7F        		.byte	127
 8766 0785 41        		.byte	65
 8767 0786 41        		.byte	65
 8768 0787 41        		.byte	65
 8769 0788 41        		.byte	65
 8770 0789 7F        		.byte	127
 8771 078a 00        		.byte	0
 8772 078b 00        		.byte	0
 8773 078c 00        		.byte	0
 8774 078d 00        		.byte	0
 8775 078e 00        		.byte	0
 8776 078f 00        		.byte	0
 8777 0790 00        		.byte	0
 8778 0791 00        		.byte	0
 8779 0792 18        		.byte	24
 8780 0793 18        		.byte	24
 8781 0794 00        		.byte	0
 8782 0795 00        		.byte	0
 8783 0796 00        		.byte	0
 8784 0797 00        		.byte	0
 8785 0798 00        		.byte	0
 8786 0799 00        		.byte	0
 8787 079a 00        		.byte	0
 8788 079b 00        		.byte	0
 8789 079c 00        		.byte	0
 8790 079d 00        		.byte	0
 8791               	.global	SCROLL_STYLE2
 8794               	SCROLL_STYLE2:
 8795 079e FE        		.byte	-2
 8796 079f 82        		.byte	-126
 8797 07a0 82        		.byte	-126
 8798 07a1 82        		.byte	-126
 8799 07a2 82        		.byte	-126
 8800 07a3 82        		.byte	-126
 8801 07a4 82        		.byte	-126
 8802 07a5 82        		.byte	-126
 8803 07a6 82        		.byte	-126
 8804 07a7 FE        		.byte	-2
 8805 07a8 10        		.byte	16
 8806 07a9 10        		.byte	16
 8807 07aa 10        		.byte	16
 8808 07ab 10        		.byte	16
 8809 07ac 10        		.byte	16
 8810 07ad 10        		.byte	16
 8811 07ae 10        		.byte	16
 8812 07af 10        		.byte	16
 8813 07b0 10        		.byte	16
 8814 07b1 10        		.byte	16
 8815 07b2 FE        		.byte	-2
 8816 07b3 02        		.byte	2
 8817 07b4 02        		.byte	2
 8818 07b5 02        		.byte	2
 8819 07b6 02        		.byte	2
 8820 07b7 FE        		.byte	-2
 8821 07b8 80        		.byte	-128
 8822 07b9 80        		.byte	-128
 8823 07ba 80        		.byte	-128
 8824 07bb FE        		.byte	-2
 8825 07bc FE        		.byte	-2
 8826 07bd 02        		.byte	2
 8827 07be 02        		.byte	2
 8828 07bf 02        		.byte	2
 8829 07c0 02        		.byte	2
 8830 07c1 FE        		.byte	-2
 8831 07c2 02        		.byte	2
 8832 07c3 02        		.byte	2
 8833 07c4 02        		.byte	2
 8834 07c5 FE        		.byte	-2
 8835 07c6 82        		.byte	-126
 8836 07c7 82        		.byte	-126
 8837 07c8 82        		.byte	-126
 8838 07c9 82        		.byte	-126
 8839 07ca 82        		.byte	-126
 8840 07cb FE        		.byte	-2
 8841 07cc 02        		.byte	2
 8842 07cd 02        		.byte	2
 8843 07ce 02        		.byte	2
 8844 07cf 02        		.byte	2
 8845 07d0 FE        		.byte	-2
 8846 07d1 80        		.byte	-128
 8847 07d2 80        		.byte	-128
 8848 07d3 80        		.byte	-128
 8849 07d4 80        		.byte	-128
 8850 07d5 FE        		.byte	-2
 8851 07d6 02        		.byte	2
 8852 07d7 02        		.byte	2
 8853 07d8 02        		.byte	2
 8854 07d9 FE        		.byte	-2
 8855 07da FE        		.byte	-2
 8856 07db 80        		.byte	-128
 8857 07dc 80        		.byte	-128
 8858 07dd 80        		.byte	-128
 8859 07de 80        		.byte	-128
 8860 07df FE        		.byte	-2
 8861 07e0 82        		.byte	-126
 8862 07e1 82        		.byte	-126
 8863 07e2 82        		.byte	-126
 8864 07e3 FE        		.byte	-2
 8865 07e4 FE        		.byte	-2
 8866 07e5 02        		.byte	2
 8867 07e6 02        		.byte	2
 8868 07e7 02        		.byte	2
 8869 07e8 02        		.byte	2
 8870 07e9 02        		.byte	2
 8871 07ea 02        		.byte	2
 8872 07eb 02        		.byte	2
 8873 07ec 02        		.byte	2
 8874 07ed 02        		.byte	2
 8875 07ee FE        		.byte	-2
 8876 07ef 82        		.byte	-126
 8877 07f0 82        		.byte	-126
 8878 07f1 82        		.byte	-126
 8879 07f2 82        		.byte	-126
 8880 07f3 FE        		.byte	-2
 8881 07f4 82        		.byte	-126
 8882 07f5 82        		.byte	-126
 8883 07f6 82        		.byte	-126
 8884 07f7 FE        		.byte	-2
 8885 07f8 FE        		.byte	-2
 8886 07f9 82        		.byte	-126
 8887 07fa 82        		.byte	-126
 8888 07fb 82        		.byte	-126
 8889 07fc 82        		.byte	-126
 8890 07fd FE        		.byte	-2
 8891 07fe 02        		.byte	2
 8892 07ff 02        		.byte	2
 8893 0800 02        		.byte	2
 8894 0801 FE        		.byte	-2
 8895 0802 80        		.byte	-128
 8896 0803 FE        		.byte	-2
 8897 0804 88        		.byte	-120
 8898 0805 7E        		.byte	126
 8899 0806 48        		.byte	72
 8900 0807 48        		.byte	72
 8901 0808 FE        		.byte	-2
 8902 0809 08        		.byte	8
 8903 080a 08        		.byte	8
 8904 080b 08        		.byte	8
 8905 080c 7E        		.byte	126
 8906 080d 42        		.byte	66
 8907 080e 42        		.byte	66
 8908 080f 7E        		.byte	126
 8909 0810 42        		.byte	66
 8910 0811 42        		.byte	66
 8911 0812 7E        		.byte	126
 8912 0813 42        		.byte	66
 8913 0814 42        		.byte	66
 8914 0815 46        		.byte	70
 8915 0816 FE        		.byte	-2
 8916 0817 92        		.byte	-110
 8917 0818 BA        		.byte	-70
 8918 0819 92        		.byte	-110
 8919 081a BA        		.byte	-70
 8920 081b 82        		.byte	-126
 8921 081c BA        		.byte	-70
 8922 081d AA        		.byte	-86
 8923 081e BA        		.byte	-70
 8924 081f 86        		.byte	-122
 8925 0820 DF        		.byte	-33
 8926 0821 D0        		.byte	-48
 8927 0822 10        		.byte	16
 8928 0823 10        		.byte	16
 8929 0824 10        		.byte	16
 8930 0825 10        		.byte	16
 8931 0826 10        		.byte	16
 8932 0827 10        		.byte	16
 8933 0828 10        		.byte	16
 8934 0829 1F        		.byte	31
 8935 082a 00        		.byte	0
 8936 082b 00        		.byte	0
 8937 082c 00        		.byte	0
 8938 082d 00        		.byte	0
 8939 082e FE        		.byte	-2
 8940 082f 00        		.byte	0
 8941 0830 00        		.byte	0
 8942 0831 00        		.byte	0
 8943 0832 00        		.byte	0
 8944 0833 00        		.byte	0
 8945 0834 00        		.byte	0
 8946 0835 7C        		.byte	124
 8947 0836 00        		.byte	0
 8948 0837 00        		.byte	0
 8949 0838 00        		.byte	0
 8950 0839 00        		.byte	0
 8951 083a 00        		.byte	0
 8952 083b 00        		.byte	0
 8953 083c 00        		.byte	0
 8954 083d FE        		.byte	-2
 8955 083e FE        		.byte	-2
 8956 083f 00        		.byte	0
 8957 0840 00        		.byte	0
 8958 0841 00        		.byte	0
 8959 0842 7C        		.byte	124
 8960 0843 00        		.byte	0
 8961 0844 00        		.byte	0
 8962 0845 00        		.byte	0
 8963 0846 00        		.byte	0
 8964 0847 FE        		.byte	-2
 8965 0848 FE        		.byte	-2
 8966 0849 AA        		.byte	-86
 8967 084a AA        		.byte	-86
 8968 084b AA        		.byte	-86
 8969 084c AA        		.byte	-86
 8970 084d EE        		.byte	-18
 8971 084e 82        		.byte	-126
 8972 084f 82        		.byte	-126
 8973 0850 82        		.byte	-126
 8974 0851 FE        		.byte	-2
 8975 0852 FE        		.byte	-2
 8976 0853 20        		.byte	32
 8977 0854 20        		.byte	32
 8978 0855 20        		.byte	32
 8979 0856 FC        		.byte	-4
 8980 0857 24        		.byte	36
 8981 0858 24        		.byte	36
 8982 0859 24        		.byte	36
 8983 085a 24        		.byte	36
 8984 085b FE        		.byte	-2
 8985 085c 20        		.byte	32
 8986 085d 10        		.byte	16
 8987 085e 10        		.byte	16
 8988 085f FE        		.byte	-2
 8989 0860 44        		.byte	68
 8990 0861 44        		.byte	68
 8991 0862 44        		.byte	68
 8992 0863 44        		.byte	68
 8993 0864 44        		.byte	68
 8994 0865 44        		.byte	68
 8995 0866 7E        		.byte	126
 8996 0867 42        		.byte	66
 8997 0868 42        		.byte	66
 8998 0869 42        		.byte	66
 8999 086a 7E        		.byte	126
 9000 086b 42        		.byte	66
 9001 086c 42        		.byte	66
 9002 086d 42        		.byte	66
 9003 086e 42        		.byte	66
 9004 086f 7E        		.byte	126
 9005 0870 00        		.byte	0
 9006 0871 00        		.byte	0
 9007 0872 00        		.byte	0
 9008 0873 00        		.byte	0
 9009 0874 00        		.byte	0
 9010 0875 00        		.byte	0
 9011 0876 00        		.byte	0
 9012 0877 00        		.byte	0
 9013 0878 18        		.byte	24
 9014 0879 18        		.byte	24
 9015 087a 00        		.byte	0
 9016 087b 00        		.byte	0
 9017 087c 00        		.byte	0
 9018 087d 00        		.byte	0
 9019 087e 00        		.byte	0
 9020 087f 00        		.byte	0
 9021 0880 00        		.byte	0
 9022 0881 00        		.byte	0
 9023 0882 00        		.byte	0
 9024 0883 00        		.byte	0
 9025               	.global	SCROLL_STYLE3
 9028               	SCROLL_STYLE3:
 9029 0884 7C        		.byte	124
 9030 0885 82        		.byte	-126
 9031 0886 82        		.byte	-126
 9032 0887 82        		.byte	-126
 9033 0888 82        		.byte	-126
 9034 0889 82        		.byte	-126
 9035 088a 82        		.byte	-126
 9036 088b 82        		.byte	-126
 9037 088c 82        		.byte	-126
 9038 088d 7C        		.byte	124
 9039 088e 10        		.byte	16
 9040 088f 30        		.byte	48
 9041 0890 50        		.byte	80
 9042 0891 10        		.byte	16
 9043 0892 10        		.byte	16
 9044 0893 10        		.byte	16
 9045 0894 10        		.byte	16
 9046 0895 10        		.byte	16
 9047 0896 10        		.byte	16
 9048 0897 FE        		.byte	-2
 9049 0898 7C        		.byte	124
 9050 0899 82        		.byte	-126
 9051 089a 02        		.byte	2
 9052 089b 02        		.byte	2
 9053 089c 02        		.byte	2
 9054 089d 7C        		.byte	124
 9055 089e 80        		.byte	-128
 9056 089f 80        		.byte	-128
 9057 08a0 80        		.byte	-128
 9058 08a1 FE        		.byte	-2
 9059 08a2 7C        		.byte	124
 9060 08a3 82        		.byte	-126
 9061 08a4 02        		.byte	2
 9062 08a5 02        		.byte	2
 9063 08a6 02        		.byte	2
 9064 08a7 7C        		.byte	124
 9065 08a8 02        		.byte	2
 9066 08a9 02        		.byte	2
 9067 08aa 82        		.byte	-126
 9068 08ab 7C        		.byte	124
 9069 08ac 88        		.byte	-120
 9070 08ad 88        		.byte	-120
 9071 08ae 88        		.byte	-120
 9072 08af 88        		.byte	-120
 9073 08b0 88        		.byte	-120
 9074 08b1 FE        		.byte	-2
 9075 08b2 08        		.byte	8
 9076 08b3 08        		.byte	8
 9077 08b4 08        		.byte	8
 9078 08b5 08        		.byte	8
 9079 08b6 FE        		.byte	-2
 9080 08b7 80        		.byte	-128
 9081 08b8 80        		.byte	-128
 9082 08b9 80        		.byte	-128
 9083 08ba 80        		.byte	-128
 9084 08bb FC        		.byte	-4
 9085 08bc 02        		.byte	2
 9086 08bd 02        		.byte	2
 9087 08be 82        		.byte	-126
 9088 08bf 7C        		.byte	124
 9089 08c0 80        		.byte	-128
 9090 08c1 80        		.byte	-128
 9091 08c2 80        		.byte	-128
 9092 08c3 80        		.byte	-128
 9093 08c4 80        		.byte	-128
 9094 08c5 FC        		.byte	-4
 9095 08c6 82        		.byte	-126
 9096 08c7 82        		.byte	-126
 9097 08c8 82        		.byte	-126
 9098 08c9 7C        		.byte	124
 9099 08ca FE        		.byte	-2
 9100 08cb 02        		.byte	2
 9101 08cc 02        		.byte	2
 9102 08cd 02        		.byte	2
 9103 08ce 02        		.byte	2
 9104 08cf 02        		.byte	2
 9105 08d0 02        		.byte	2
 9106 08d1 02        		.byte	2
 9107 08d2 02        		.byte	2
 9108 08d3 02        		.byte	2
 9109 08d4 7C        		.byte	124
 9110 08d5 82        		.byte	-126
 9111 08d6 82        		.byte	-126
 9112 08d7 82        		.byte	-126
 9113 08d8 82        		.byte	-126
 9114 08d9 7C        		.byte	124
 9115 08da 82        		.byte	-126
 9116 08db 82        		.byte	-126
 9117 08dc 82        		.byte	-126
 9118 08dd 7C        		.byte	124
 9119 08de 7C        		.byte	124
 9120 08df 82        		.byte	-126
 9121 08e0 82        		.byte	-126
 9122 08e1 82        		.byte	-126
 9123 08e2 82        		.byte	-126
 9124 08e3 7E        		.byte	126
 9125 08e4 02        		.byte	2
 9126 08e5 02        		.byte	2
 9127 08e6 02        		.byte	2
 9128 08e7 02        		.byte	2
 9129 08e8 40        		.byte	64
 9130 08e9 7E        		.byte	126
 9131 08ea 88        		.byte	-120
 9132 08eb 7E        		.byte	126
 9133 08ec 48        		.byte	72
 9134 08ed 48        		.byte	72
 9135 08ee FE        		.byte	-2
 9136 08ef 08        		.byte	8
 9137 08f0 08        		.byte	8
 9138 08f1 08        		.byte	8
 9139 08f2 7E        		.byte	126
 9140 08f3 42        		.byte	66
 9141 08f4 42        		.byte	66
 9142 08f5 7E        		.byte	126
 9143 08f6 42        		.byte	66
 9144 08f7 42        		.byte	66
 9145 08f8 7E        		.byte	126
 9146 08f9 42        		.byte	66
 9147 08fa 46        		.byte	70
 9148 08fb 82        		.byte	-126
 9149 08fc 7E        		.byte	126
 9150 08fd 92        		.byte	-110
 9151 08fe BA        		.byte	-70
 9152 08ff 92        		.byte	-110
 9153 0900 BA        		.byte	-70
 9154 0901 82        		.byte	-126
 9155 0902 BA        		.byte	-70
 9156 0903 AA        		.byte	-86
 9157 0904 BA        		.byte	-70
 9158 0905 86        		.byte	-122
 9159 0906 BC        		.byte	-68
 9160 0907 42        		.byte	66
 9161 0908 40        		.byte	64
 9162 0909 40        		.byte	64
 9163 090a 40        		.byte	64
 9164 090b 40        		.byte	64
 9165 090c 40        		.byte	64
 9166 090d 40        		.byte	64
 9167 090e 42        		.byte	66
 9168 090f 3C        		.byte	60
 9169 0910 00        		.byte	0
 9170 0911 00        		.byte	0
 9171 0912 00        		.byte	0
 9172 0913 00        		.byte	0
 9173 0914 FE        		.byte	-2
 9174 0915 00        		.byte	0
 9175 0916 00        		.byte	0
 9176 0917 00        		.byte	0
 9177 0918 00        		.byte	0
 9178 0919 00        		.byte	0
 9179 091a 00        		.byte	0
 9180 091b 00        		.byte	0
 9181 091c 00        		.byte	0
 9182 091d 7E        		.byte	126
 9183 091e 00        		.byte	0
 9184 091f 00        		.byte	0
 9185 0920 00        		.byte	0
 9186 0921 FF        		.byte	-1
 9187 0922 00        		.byte	0
 9188 0923 00        		.byte	0
 9189 0924 00        		.byte	0
 9190 0925 7E        		.byte	126
 9191 0926 00        		.byte	0
 9192 0927 00        		.byte	0
 9193 0928 00        		.byte	0
 9194 0929 3C        		.byte	60
 9195 092a 00        		.byte	0
 9196 092b 00        		.byte	0
 9197 092c 00        		.byte	0
 9198 092d FF        		.byte	-1
 9199 092e FF        		.byte	-1
 9200 092f A9        		.byte	-87
 9201 0930 A9        		.byte	-87
 9202 0931 A9        		.byte	-87
 9203 0932 A9        		.byte	-87
 9204 0933 A9        		.byte	-87
 9205 0934 C7        		.byte	-57
 9206 0935 81        		.byte	-127
 9207 0936 FF        		.byte	-1
 9208 0937 81        		.byte	-127
 9209 0938 7E        		.byte	126
 9210 0939 10        		.byte	16
 9211 093a 10        		.byte	16
 9212 093b 10        		.byte	16
 9213 093c 7C        		.byte	124
 9214 093d 14        		.byte	20
 9215 093e 14        		.byte	20
 9216 093f 14        		.byte	20
 9217 0940 14        		.byte	20
 9218 0941 FF        		.byte	-1
 9219 0942 20        		.byte	32
 9220 0943 10        		.byte	16
 9221 0944 FE        		.byte	-2
 9222 0945 00        		.byte	0
 9223 0946 44        		.byte	68
 9224 0947 44        		.byte	68
 9225 0948 44        		.byte	68
 9226 0949 44        		.byte	68
 9227 094a 44        		.byte	68
 9228 094b 82        		.byte	-126
 9229 094c 7E        		.byte	126
 9230 094d 42        		.byte	66
 9231 094e 42        		.byte	66
 9232 094f 42        		.byte	66
 9233 0950 7E        		.byte	126
 9234 0951 42        		.byte	66
 9235 0952 42        		.byte	66
 9236 0953 42        		.byte	66
 9237 0954 42        		.byte	66
 9238 0955 7E        		.byte	126
 9239 0956 00        		.byte	0
 9240 0957 00        		.byte	0
 9241 0958 00        		.byte	0
 9242 0959 00        		.byte	0
 9243 095a 00        		.byte	0
 9244 095b 00        		.byte	0
 9245 095c 00        		.byte	0
 9246 095d 00        		.byte	0
 9247 095e 18        		.byte	24
 9248 095f 18        		.byte	24
 9249 0960 00        		.byte	0
 9250 0961 00        		.byte	0
 9251 0962 00        		.byte	0
 9252 0963 00        		.byte	0
 9253 0964 00        		.byte	0
 9254 0965 00        		.byte	0
 9255 0966 00        		.byte	0
 9256 0967 00        		.byte	0
 9257 0968 00        		.byte	0
 9258 0969 00        		.byte	0
 9259               	.global	CHINESE
 9262               	CHINESE:
 9263 096a 08        		.byte	8
 9264 096b 40        		.byte	64
 9265 096c 49        		.byte	73
 9266 096d 40        		.byte	64
 9267 096e 2A        		.byte	42
 9268 096f 40        		.byte	64
 9269 0970 08        		.byte	8
 9270 0971 84        		.byte	-124
 9271 0972 FF        		.byte	-1
 9272 0973 FE        		.byte	-2
 9273 0974 19        		.byte	25
 9274 0975 08        		.byte	8
 9275 0976 2C        		.byte	44
 9276 0977 88        		.byte	-120
 9277 0978 4A        		.byte	74
 9278 0979 88        		.byte	-120
 9279 097a 10        		.byte	16
 9280 097b 88        		.byte	-120
 9281 097c FE        		.byte	-2
 9282 097d 90        		.byte	-112
 9283 097e 22        		.byte	34
 9284 097f 50        		.byte	80
 9285 0980 22        		.byte	34
 9286 0981 20        		.byte	32
 9287 0982 14        		.byte	20
 9288 0983 50        		.byte	80
 9289 0984 18        		.byte	24
 9290 0985 88        		.byte	-120
 9291 0986 25        		.byte	37
 9292 0987 0E        		.byte	14
 9293 0988 42        		.byte	66
 9294 0989 04        		.byte	4
 9295 098a 02        		.byte	2
 9296 098b 00        		.byte	0
 9297 098c 01        		.byte	1
 9298 098d 00        		.byte	0
 9299 098e 3F        		.byte	63
 9300 098f FC        		.byte	-4
 9301 0990 20        		.byte	32
 9302 0991 04        		.byte	4
 9303 0992 40        		.byte	64
 9304 0993 08        		.byte	8
 9305 0994 1F        		.byte	31
 9306 0995 E0        		.byte	-32
 9307 0996 00        		.byte	0
 9308 0997 40        		.byte	64
 9309 0998 00        		.byte	0
 9310 0999 80        		.byte	-128
 9311 099a 01        		.byte	1
 9312 099b 04        		.byte	4
 9313 099c FF        		.byte	-1
 9314 099d FE        		.byte	-2
 9315 099e 01        		.byte	1
 9316 099f 00        		.byte	0
 9317 09a0 01        		.byte	1
 9318 09a1 00        		.byte	0
 9319 09a2 01        		.byte	1
 9320 09a3 00        		.byte	0
 9321 09a4 01        		.byte	1
 9322 09a5 00        		.byte	0
 9323 09a6 05        		.byte	5
 9324 09a7 00        		.byte	0
 9325 09a8 02        		.byte	2
 9326 09a9 00        		.byte	0
 9327 09aa 00        		.byte	0
 9328 09ab 08        		.byte	8
 9329 09ac 04        		.byte	4
 9330 09ad 08        		.byte	8
 9331 09ae 7E        		.byte	126
 9332 09af 08        		.byte	8
 9333 09b0 44        		.byte	68
 9334 09b1 08        		.byte	8
 9335 09b2 47        		.byte	71
 9336 09b3 FE        		.byte	-2
 9337 09b4 44        		.byte	68
 9338 09b5 08        		.byte	8
 9339 09b6 44        		.byte	68
 9340 09b7 08        		.byte	8
 9341 09b8 7C        		.byte	124
 9342 09b9 88        		.byte	-120
 9343 09ba 44        		.byte	68
 9344 09bb 48        		.byte	72
 9345 09bc 44        		.byte	68
 9346 09bd 48        		.byte	72
 9347 09be 44        		.byte	68
 9348 09bf 08        		.byte	8
 9349 09c0 44        		.byte	68
 9350 09c1 08        		.byte	8
 9351 09c2 7C        		.byte	124
 9352 09c3 08        		.byte	8
 9353 09c4 44        		.byte	68
 9354 09c5 48        		.byte	72
 9355 09c6 00        		.byte	0
 9356 09c7 28        		.byte	40
 9357 09c8 00        		.byte	0
 9358 09c9 10        		.byte	16
 9359 09ca 10        		.byte	16
 9360 09cb 20        		.byte	32
 9361 09cc 10        		.byte	16
 9362 09cd 20        		.byte	32
 9363 09ce 10        		.byte	16
 9364 09cf 20        		.byte	32
 9365 09d0 1C        		.byte	28
 9366 09d1 24        		.byte	36
 9367 09d2 21        		.byte	33
 9368 09d3 FE        		.byte	-2
 9369 09d4 21        		.byte	33
 9370 09d5 24        		.byte	36
 9371 09d6 7D        		.byte	125
 9372 09d7 24        		.byte	36
 9373 09d8 91        		.byte	-111
 9374 09d9 24        		.byte	36
 9375 09da 11        		.byte	17
 9376 09db 24        		.byte	36
 9377 09dc FD        		.byte	-3
 9378 09dd FC        		.byte	-4
 9379 09de 11        		.byte	17
 9380 09df 24        		.byte	36
 9381 09e0 10        		.byte	16
 9382 09e1 20        		.byte	32
 9383 09e2 14        		.byte	20
 9384 09e3 20        		.byte	32
 9385 09e4 18        		.byte	24
 9386 09e5 20        		.byte	32
 9387 09e6 10        		.byte	16
 9388 09e7 20        		.byte	32
 9389 09e8 00        		.byte	0
 9390 09e9 20        		.byte	32
 9391 09ea 00        		.byte	0
 9392 09eb 04        		.byte	4
 9393 09ec 7F        		.byte	127
 9394 09ed FE        		.byte	-2
 9395 09ee 44        		.byte	68
 9396 09ef 08        		.byte	8
 9397 09f0 48        		.byte	72
 9398 09f1 08        		.byte	8
 9399 09f2 48        		.byte	72
 9400 09f3 28        		.byte	40
 9401 09f4 51        		.byte	81
 9402 09f5 F8        		.byte	-8
 9403 09f6 49        		.byte	73
 9404 09f7 28        		.byte	40
 9405 09f8 49        		.byte	73
 9406 09f9 28        		.byte	40
 9407 09fa 45        		.byte	69
 9408 09fb 28        		.byte	40
 9409 09fc 45        		.byte	69
 9410 09fd 28        		.byte	40
 9411 09fe 45        		.byte	69
 9412 09ff 28        		.byte	40
 9413 0a00 69        		.byte	105
 9414 0a01 E8        		.byte	-24
 9415 0a02 51        		.byte	81
 9416 0a03 28        		.byte	40
 9417 0a04 40        		.byte	64
 9418 0a05 08        		.byte	8
 9419 0a06 40        		.byte	64
 9420 0a07 28        		.byte	40
 9421 0a08 40        		.byte	64
 9422 0a09 10        		.byte	16
 9423 0a0a 02        		.byte	2
 9424 0a0b 00        		.byte	0
 9425 0a0c 02        		.byte	2
 9426 0a0d 00        		.byte	0
 9427 0a0e 02        		.byte	2
 9428 0a0f 08        		.byte	8
 9429 0a10 FF        		.byte	-1
 9430 0a11 FC        		.byte	-4
 9431 0a12 04        		.byte	4
 9432 0a13 00        		.byte	0
 9433 0a14 09        		.byte	9
 9434 0a15 00        		.byte	0
 9435 0a16 11        		.byte	17
 9436 0a17 08        		.byte	8
 9437 0a18 3F        		.byte	63
 9438 0a19 FC        		.byte	-4
 9439 0a1a 51        		.byte	81
 9440 0a1b 08        		.byte	8
 9441 0a1c 91        		.byte	-111
 9442 0a1d 08        		.byte	8
 9443 0a1e 11        		.byte	17
 9444 0a1f 08        		.byte	8
 9445 0a20 11        		.byte	17
 9446 0a21 08        		.byte	8
 9447 0a22 11        		.byte	17
 9448 0a23 28        		.byte	40
 9449 0a24 11        		.byte	17
 9450 0a25 10        		.byte	16
 9451 0a26 01        		.byte	1
 9452 0a27 00        		.byte	0
 9453 0a28 01        		.byte	1
 9454 0a29 00        		.byte	0
 9455 0a2a 02        		.byte	2
 9456 0a2b 00        		.byte	0
 9457 0a2c 02        		.byte	2
 9458 0a2d 00        		.byte	0
 9459 0a2e 02        		.byte	2
 9460 0a2f 10        		.byte	16
 9461 0a30 7F        		.byte	127
 9462 0a31 F8        		.byte	-8
 9463 0a32 42        		.byte	66
 9464 0a33 10        		.byte	16
 9465 0a34 42        		.byte	66
 9466 0a35 10        		.byte	16
 9467 0a36 7F        		.byte	127
 9468 0a37 F0        		.byte	-16
 9469 0a38 42        		.byte	66
 9470 0a39 10        		.byte	16
 9471 0a3a 42        		.byte	66
 9472 0a3b 10        		.byte	16
 9473 0a3c 7F        		.byte	127
 9474 0a3d F0        		.byte	-16
 9475 0a3e 42        		.byte	66
 9476 0a3f 10        		.byte	16
 9477 0a40 02        		.byte	2
 9478 0a41 00        		.byte	0
 9479 0a42 02        		.byte	2
 9480 0a43 04        		.byte	4
 9481 0a44 02        		.byte	2
 9482 0a45 04        		.byte	4
 9483 0a46 01        		.byte	1
 9484 0a47 FC        		.byte	-4
 9485 0a48 00        		.byte	0
 9486 0a49 00        		.byte	0
 9487 0a4a 00        		.byte	0
 9488 0a4b 00        		.byte	0
 9489 0a4c 3F        		.byte	63
 9490 0a4d F0        		.byte	-16
 9491 0a4e 00        		.byte	0
 9492 0a4f 10        		.byte	16
 9493 0a50 00        		.byte	0
 9494 0a51 20        		.byte	32
 9495 0a52 00        		.byte	0
 9496 0a53 40        		.byte	64
 9497 0a54 01        		.byte	1
 9498 0a55 80        		.byte	-128
 9499 0a56 01        		.byte	1
 9500 0a57 04        		.byte	4
 9501 0a58 FF        		.byte	-1
 9502 0a59 FE        		.byte	-2
 9503 0a5a 01        		.byte	1
 9504 0a5b 00        		.byte	0
 9505 0a5c 01        		.byte	1
 9506 0a5d 00        		.byte	0
 9507 0a5e 01        		.byte	1
 9508 0a5f 00        		.byte	0
 9509 0a60 01        		.byte	1
 9510 0a61 00        		.byte	0
 9511 0a62 01        		.byte	1
 9512 0a63 00        		.byte	0
 9513 0a64 01        		.byte	1
 9514 0a65 00        		.byte	0
 9515 0a66 05        		.byte	5
 9516 0a67 00        		.byte	0
 9517 0a68 02        		.byte	2
 9518 0a69 00        		.byte	0
 9519 0a6a 01        		.byte	1
 9520 0a6b F0        		.byte	-16
 9521 0a6c 21        		.byte	33
 9522 0a6d 10        		.byte	16
 9523 0a6e 11        		.byte	17
 9524 0a6f 10        		.byte	16
 9525 0a70 11        		.byte	17
 9526 0a71 10        		.byte	16
 9527 0a72 01        		.byte	1
 9528 0a73 10        		.byte	16
 9529 0a74 02        		.byte	2
 9530 0a75 0E        		.byte	14
 9531 0a76 F4        		.byte	-12
 9532 0a77 00        		.byte	0
 9533 0a78 13        		.byte	19
 9534 0a79 F8        		.byte	-8
 9535 0a7a 11        		.byte	17
 9536 0a7b 08        		.byte	8
 9537 0a7c 11        		.byte	17
 9538 0a7d 10        		.byte	16
 9539 0a7e 10        		.byte	16
 9540 0a7f 90        		.byte	-112
 9541 0a80 10        		.byte	16
 9542 0a81 A0        		.byte	-96
 9543 0a82 14        		.byte	20
 9544 0a83 40        		.byte	64
 9545 0a84 18        		.byte	24
 9546 0a85 B0        		.byte	-80
 9547 0a86 13        		.byte	19
 9548 0a87 0E        		.byte	14
 9549 0a88 0C        		.byte	12
 9550 0a89 04        		.byte	4
 9551 0a8a 3F        		.byte	63
 9552 0a8b F8        		.byte	-8
 9553 0a8c 24        		.byte	36
 9554 0a8d 48        		.byte	72
 9555 0a8e 3F        		.byte	63
 9556 0a8f F8        		.byte	-8
 9557 0a90 01        		.byte	1
 9558 0a91 00        		.byte	0
 9559 0a92 7F        		.byte	127
 9560 0a93 FC        		.byte	-4
 9561 0a94 01        		.byte	1
 9562 0a95 00        		.byte	0
 9563 0a96 1F        		.byte	31
 9564 0a97 F0        		.byte	-16
 9565 0a98 10        		.byte	16
 9566 0a99 10        		.byte	16
 9567 0a9a 1F        		.byte	31
 9568 0a9b F0        		.byte	-16
 9569 0a9c 10        		.byte	16
 9570 0a9d 10        		.byte	16
 9571 0a9e 1F        		.byte	31
 9572 0a9f F0        		.byte	-16
 9573 0aa0 10        		.byte	16
 9574 0aa1 10        		.byte	16
 9575 0aa2 1F        		.byte	31
 9576 0aa3 F0        		.byte	-16
 9577 0aa4 10        		.byte	16
 9578 0aa5 14        		.byte	20
 9579 0aa6 FF        		.byte	-1
 9580 0aa7 FE        		.byte	-2
 9581 0aa8 00        		.byte	0
 9582 0aa9 00        		.byte	0
 9583 0aaa 00        		.byte	0
 9584 0aab 40        		.byte	64
 9585 0aac 40        		.byte	64
 9586 0aad 44        		.byte	68
 9587 0aae 37        		.byte	55
 9588 0aaf FE        		.byte	-2
 9589 0ab0 10        		.byte	16
 9590 0ab1 40        		.byte	64
 9591 0ab2 07        		.byte	7
 9592 0ab3 FC        		.byte	-4
 9593 0ab4 04        		.byte	4
 9594 0ab5 44        		.byte	68
 9595 0ab6 F4        		.byte	-12
 9596 0ab7 44        		.byte	68
 9597 0ab8 17        		.byte	23
 9598 0ab9 FC        		.byte	-4
 9599 0aba 14        		.byte	20
 9600 0abb 44        		.byte	68
 9601 0abc 10        		.byte	16
 9602 0abd E0        		.byte	-32
 9603 0abe 11        		.byte	17
 9604 0abf 58        		.byte	88
 9605 0ac0 12        		.byte	18
 9606 0ac1 48        		.byte	72
 9607 0ac2 14        		.byte	20
 9608 0ac3 40        		.byte	64
 9609 0ac4 28        		.byte	40
 9610 0ac5 46        		.byte	70
 9611 0ac6 47        		.byte	71
 9612 0ac7 FC        		.byte	-4
 9613 0ac8 00        		.byte	0
 9614 0ac9 00        		.byte	0
 9615 0aca 01        		.byte	1
 9616 0acb 00        		.byte	0
 9617 0acc 00        		.byte	0
 9618 0acd 84        		.byte	-124
 9619 0ace 3F        		.byte	63
 9620 0acf FE        		.byte	-2
 9621 0ad0 22        		.byte	34
 9622 0ad1 20        		.byte	32
 9623 0ad2 22        		.byte	34
 9624 0ad3 28        		.byte	40
 9625 0ad4 3F        		.byte	63
 9626 0ad5 FC        		.byte	-4
 9627 0ad6 22        		.byte	34
 9628 0ad7 20        		.byte	32
 9629 0ad8 23        		.byte	35
 9630 0ad9 E0        		.byte	-32
 9631 0ada 20        		.byte	32
 9632 0adb 00        		.byte	0
 9633 0adc 2F        		.byte	47
 9634 0add F0        		.byte	-16
 9635 0ade 22        		.byte	34
 9636 0adf 20        		.byte	32
 9637 0ae0 21        		.byte	33
 9638 0ae1 40        		.byte	64
 9639 0ae2 20        		.byte	32
 9640 0ae3 80        		.byte	-128
 9641 0ae4 43        		.byte	67
 9642 0ae5 60        		.byte	96
 9643 0ae6 8C        		.byte	-116
 9644 0ae7 1E        		.byte	30
 9645 0ae8 30        		.byte	48
 9646 0ae9 04        		.byte	4
 9647 0aea 01        		.byte	1
 9648 0aeb 08        		.byte	8
 9649 0aec 7F        		.byte	127
 9650 0aed FC        		.byte	-4
 9651 0aee 00        		.byte	0
 9652 0aef 10        		.byte	16
 9653 0af0 1F        		.byte	31
 9654 0af1 F8        		.byte	-8
 9655 0af2 10        		.byte	16
 9656 0af3 10        		.byte	16
 9657 0af4 10        		.byte	16
 9658 0af5 10        		.byte	16
 9659 0af6 1F        		.byte	31
 9660 0af7 F0        		.byte	-16
 9661 0af8 00        		.byte	0
 9662 0af9 00        		.byte	0
 9663 0afa 7F        		.byte	127
 9664 0afb FE        		.byte	-2
 9665 0afc 40        		.byte	64
 9666 0afd 22        		.byte	34
 9667 0afe 8F        		.byte	-113
 9668 0aff F4        		.byte	-12
 9669 0b00 08        		.byte	8
 9670 0b01 20        		.byte	32
 9671 0b02 08        		.byte	8
 9672 0b03 20        		.byte	32
 9673 0b04 08        		.byte	8
 9674 0b05 22        		.byte	34
 9675 0b06 10        		.byte	16
 9676 0b07 22        		.byte	34
 9677 0b08 60        		.byte	96
 9678 0b09 1E        		.byte	30
 9679 0b0a 00        		.byte	0
 9680 0b0b 08        		.byte	8
 9681 0b0c 04        		.byte	4
 9682 0b0d 08        		.byte	8
 9683 0b0e 7E        		.byte	126
 9684 0b0f 08        		.byte	8
 9685 0b10 44        		.byte	68
 9686 0b11 08        		.byte	8
 9687 0b12 47        		.byte	71
 9688 0b13 FE        		.byte	-2
 9689 0b14 44        		.byte	68
 9690 0b15 08        		.byte	8
 9691 0b16 44        		.byte	68
 9692 0b17 08        		.byte	8
 9693 0b18 7C        		.byte	124
 9694 0b19 88        		.byte	-120
 9695 0b1a 44        		.byte	68
 9696 0b1b 48        		.byte	72
 9697 0b1c 44        		.byte	68
 9698 0b1d 48        		.byte	72
 9699 0b1e 44        		.byte	68
 9700 0b1f 08        		.byte	8
 9701 0b20 44        		.byte	68
 9702 0b21 08        		.byte	8
 9703 0b22 7C        		.byte	124
 9704 0b23 08        		.byte	8
 9705 0b24 44        		.byte	68
 9706 0b25 48        		.byte	72
 9707 0b26 00        		.byte	0
 9708 0b27 28        		.byte	40
 9709 0b28 00        		.byte	0
 9710 0b29 10        		.byte	16
 9711 0b2a 20        		.byte	32
 9712 0b2b 04        		.byte	4
 9713 0b2c 1B        		.byte	27
 9714 0b2d FE        		.byte	-2
 9715 0b2e 08        		.byte	8
 9716 0b2f 04        		.byte	4
 9717 0b30 40        		.byte	64
 9718 0b31 24        		.byte	36
 9719 0b32 4F        		.byte	79
 9720 0b33 F4        		.byte	-12
 9721 0b34 48        		.byte	72
 9722 0b35 24        		.byte	36
 9723 0b36 48        		.byte	72
 9724 0b37 24        		.byte	36
 9725 0b38 48        		.byte	72
 9726 0b39 24        		.byte	36
 9727 0b3a 4F        		.byte	79
 9728 0b3b E4        		.byte	-28
 9729 0b3c 48        		.byte	72
 9730 0b3d 24        		.byte	36
 9731 0b3e 48        		.byte	72
 9732 0b3f 24        		.byte	36
 9733 0b40 48        		.byte	72
 9734 0b41 24        		.byte	36
 9735 0b42 4F        		.byte	79
 9736 0b43 E4        		.byte	-28
 9737 0b44 48        		.byte	72
 9738 0b45 24        		.byte	36
 9739 0b46 40        		.byte	64
 9740 0b47 14        		.byte	20
 9741 0b48 40        		.byte	64
 9742 0b49 08        		.byte	8
 9743 0b4a 08        		.byte	8
 9744 0b4b 00        		.byte	0
 9745 0b4c 08        		.byte	8
 9746 0b4d 08        		.byte	8
 9747 0b4e 1F        		.byte	31
 9748 0b4f FC        		.byte	-4
 9749 0b50 11        		.byte	17
 9750 0b51 00        		.byte	0
 9751 0b52 21        		.byte	33
 9752 0b53 00        		.byte	0
 9753 0b54 41        		.byte	65
 9754 0b55 10        		.byte	16
 9755 0b56 1F        		.byte	31
 9756 0b57 F8        		.byte	-8
 9757 0b58 11        		.byte	17
 9758 0b59 00        		.byte	0
 9759 0b5a 11        		.byte	17
 9760 0b5b 00        		.byte	0
 9761 0b5c 11        		.byte	17
 9762 0b5d 04        		.byte	4
 9763 0b5e FF        		.byte	-1
 9764 0b5f FE        		.byte	-2
 9765 0b60 01        		.byte	1
 9766 0b61 00        		.byte	0
 9767 0b62 01        		.byte	1
 9768 0b63 00        		.byte	0
 9769 0b64 01        		.byte	1
 9770 0b65 00        		.byte	0
 9771 0b66 01        		.byte	1
 9772 0b67 00        		.byte	0
 9773 0b68 01        		.byte	1
 9774 0b69 00        		.byte	0
 9775 0b6a 00        		.byte	0
 9776 0b6b 10        		.byte	16
 9777 0b6c 0F        		.byte	15
 9778 0b6d F8        		.byte	-8
 9779 0b6e 08        		.byte	8
 9780 0b6f 10        		.byte	16
 9781 0b70 08        		.byte	8
 9782 0b71 10        		.byte	16
 9783 0b72 08        		.byte	8
 9784 0b73 10        		.byte	16
 9785 0b74 0F        		.byte	15
 9786 0b75 F0        		.byte	-16
 9787 0b76 08        		.byte	8
 9788 0b77 10        		.byte	16
 9789 0b78 08        		.byte	8
 9790 0b79 10        		.byte	16
 9791 0b7a 08        		.byte	8
 9792 0b7b 10        		.byte	16
 9793 0b7c 0F        		.byte	15
 9794 0b7d F0        		.byte	-16
 9795 0b7e 08        		.byte	8
 9796 0b7f 10        		.byte	16
 9797 0b80 08        		.byte	8
 9798 0b81 10        		.byte	16
 9799 0b82 10        		.byte	16
 9800 0b83 10        		.byte	16
 9801 0b84 10        		.byte	16
 9802 0b85 10        		.byte	16
 9803 0b86 20        		.byte	32
 9804 0b87 50        		.byte	80
 9805 0b88 40        		.byte	64
 9806 0b89 20        		.byte	32
 9807 0b8a 00        		.byte	0
 9808 0b8b 10        		.byte	16
 9809 0b8c 1F        		.byte	31
 9810 0b8d F8        		.byte	-8
 9811 0b8e 10        		.byte	16
 9812 0b8f 10        		.byte	16
 9813 0b90 10        		.byte	16
 9814 0b91 10        		.byte	16
 9815 0b92 10        		.byte	16
 9816 0b93 10        		.byte	16
 9817 0b94 10        		.byte	16
 9818 0b95 10        		.byte	16
 9819 0b96 10        		.byte	16
 9820 0b97 10        		.byte	16
 9821 0b98 1F        		.byte	31
 9822 0b99 F0        		.byte	-16
 9823 0b9a 10        		.byte	16
 9824 0b9b 10        		.byte	16
 9825 0b9c 10        		.byte	16
 9826 0b9d 10        		.byte	16
 9827 0b9e 10        		.byte	16
 9828 0b9f 10        		.byte	16
 9829 0ba0 10        		.byte	16
 9830 0ba1 10        		.byte	16
 9831 0ba2 10        		.byte	16
 9832 0ba3 10        		.byte	16
 9833 0ba4 1F        		.byte	31
 9834 0ba5 F0        		.byte	-16
 9835 0ba6 10        		.byte	16
 9836 0ba7 10        		.byte	16
 9837 0ba8 00        		.byte	0
 9838 0ba9 00        		.byte	0
 9839 0baa 00        		.byte	0
 9840 0bab 80        		.byte	-128
 9841 0bac 04        		.byte	4
 9842 0bad 80        		.byte	-128
 9843 0bae 04        		.byte	4
 9844 0baf 40        		.byte	64
 9845 0bb0 08        		.byte	8
 9846 0bb1 40        		.byte	64
 9847 0bb2 08        		.byte	8
 9848 0bb3 20        		.byte	32
 9849 0bb4 10        		.byte	16
 9850 0bb5 10        		.byte	16
 9851 0bb6 20        		.byte	32
 9852 0bb7 08        		.byte	8
 9853 0bb8 4F        		.byte	79
 9854 0bb9 EE        		.byte	-18
 9855 0bba 84        		.byte	-124
 9856 0bbb 24        		.byte	36
 9857 0bbc 04        		.byte	4
 9858 0bbd 20        		.byte	32
 9859 0bbe 04        		.byte	4
 9860 0bbf 20        		.byte	32
 9861 0bc0 04        		.byte	4
 9862 0bc1 20        		.byte	32
 9863 0bc2 04        		.byte	4
 9864 0bc3 20        		.byte	32
 9865 0bc4 08        		.byte	8
 9866 0bc5 20        		.byte	32
 9867 0bc6 11        		.byte	17
 9868 0bc7 40        		.byte	64
 9869 0bc8 20        		.byte	32
 9870 0bc9 80        		.byte	-128
 9871 0bca 04        		.byte	4
 9872 0bcb 20        		.byte	32
 9873 0bcc 0E        		.byte	14
 9874 0bcd 20        		.byte	32
 9875 0bce 78        		.byte	120
 9876 0bcf 20        		.byte	32
 9877 0bd0 08        		.byte	8
 9878 0bd1 20        		.byte	32
 9879 0bd2 08        		.byte	8
 9880 0bd3 A8        		.byte	-88
 9881 0bd4 FE        		.byte	-2
 9882 0bd5 A6        		.byte	-90
 9883 0bd6 08        		.byte	8
 9884 0bd7 A2        		.byte	-94
 9885 0bd8 1D        		.byte	29
 9886 0bd9 20        		.byte	32
 9887 0bda 1A        		.byte	26
 9888 0bdb 24        		.byte	36
 9889 0bdc 28        		.byte	40
 9890 0bdd 24        		.byte	36
 9891 0bde 28        		.byte	40
 9892 0bdf 28        		.byte	40
 9893 0be0 48        		.byte	72
 9894 0be1 10        		.byte	16
 9895 0be2 88        		.byte	-120
 9896 0be3 20        		.byte	32
 9897 0be4 08        		.byte	8
 9898 0be5 40        		.byte	64
 9899 0be6 08        		.byte	8
 9900 0be7 80        		.byte	-128
 9901 0be8 0B        		.byte	11
 9902 0be9 00        		.byte	0
 9903 0bea 08        		.byte	8
 9904 0beb 20        		.byte	32
 9905 0bec 09        		.byte	9
 9906 0bed 20        		.byte	32
 9907 0bee 09        		.byte	9
 9908 0bef 20        		.byte	32
 9909 0bf0 11        		.byte	17
 9910 0bf1 10        		.byte	16
 9911 0bf2 12        		.byte	18
 9912 0bf3 10        		.byte	16
 9913 0bf4 32        		.byte	50
 9914 0bf5 0E        		.byte	14
 9915 0bf6 54        		.byte	84
 9916 0bf7 04        		.byte	4
 9917 0bf8 9B        		.byte	-101
 9918 0bf9 F0        		.byte	-16
 9919 0bfa 11        		.byte	17
 9920 0bfb 10        		.byte	16
 9921 0bfc 11        		.byte	17
 9922 0bfd 10        		.byte	16
 9923 0bfe 11        		.byte	17
 9924 0bff 10        		.byte	16
 9925 0c00 11        		.byte	17
 9926 0c01 10        		.byte	16
 9927 0c02 12        		.byte	18
 9928 0c03 10        		.byte	16
 9929 0c04 12        		.byte	18
 9930 0c05 10        		.byte	16
 9931 0c06 14        		.byte	20
 9932 0c07 A0        		.byte	-96
 9933 0c08 10        		.byte	16
 9934 0c09 40        		.byte	64
 9935 0c0a 00        		.byte	0
 9936 0c0b 08        		.byte	8
 9937 0c0c 3F        		.byte	63
 9938 0c0d FC        		.byte	-4
 9939 0c0e 20        		.byte	32
 9940 0c0f 08        		.byte	8
 9941 0c10 3F        		.byte	63
 9942 0c11 F8        		.byte	-8
 9943 0c12 20        		.byte	32
 9944 0c13 08        		.byte	8
 9945 0c14 3F        		.byte	63
 9946 0c15 F8        		.byte	-8
 9947 0c16 01        		.byte	1
 9948 0c17 00        		.byte	0
 9949 0c18 21        		.byte	33
 9950 0c19 08        		.byte	8
 9951 0c1a 3F        		.byte	63
 9952 0c1b FC        		.byte	-4
 9953 0c1c 21        		.byte	33
 9954 0c1d 00        		.byte	0
 9955 0c1e 41        		.byte	65
 9956 0c1f 10        		.byte	16
 9957 0c20 BF        		.byte	-65
 9958 0c21 F8        		.byte	-8
 9959 0c22 01        		.byte	1
 9960 0c23 00        		.byte	0
 9961 0c24 01        		.byte	1
 9962 0c25 04        		.byte	4
 9963 0c26 FF        		.byte	-1
 9964 0c27 FE        		.byte	-2
 9965 0c28 00        		.byte	0
 9966 0c29 00        		.byte	0
 9967 0c2a 22        		.byte	34
 9968 0c2b 04        		.byte	4
 9969 0c2c 22        		.byte	34
 9970 0c2d 7E        		.byte	126
 9971 0c2e 22        		.byte	34
 9972 0c2f 44        		.byte	68
 9973 0c30 7F        		.byte	127
 9974 0c31 44        		.byte	68
 9975 0c32 22        		.byte	34
 9976 0c33 44        		.byte	68
 9977 0c34 3E        		.byte	62
 9978 0c35 7C        		.byte	124
 9979 0c36 22        		.byte	34
 9980 0c37 44        		.byte	68
 9981 0c38 3E        		.byte	62
 9982 0c39 44        		.byte	68
 9983 0c3a 22        		.byte	34
 9984 0c3b 44        		.byte	68
 9985 0c3c 22        		.byte	34
 9986 0c3d 7C        		.byte	124
 9987 0c3e FF        		.byte	-1
 9988 0c3f C4        		.byte	-60
 9989 0c40 00        		.byte	0
 9990 0c41 44        		.byte	68
 9991 0c42 24        		.byte	36
 9992 0c43 44        		.byte	68
 9993 0c44 22        		.byte	34
 9994 0c45 84        		.byte	-124
 9995 0c46 41        		.byte	65
 9996 0c47 14        		.byte	20
 9997 0c48 82        		.byte	-126
 9998 0c49 08        		.byte	8
 9999 0c4a 00        		.byte	0
 10000 0c4b 08        		.byte	8
 10001 0c4c 3F        		.byte	63
 10002 0c4d FC        		.byte	-4
 10003 0c4e 21        		.byte	33
 10004 0c4f 08        		.byte	8
 10005 0c50 21        		.byte	33
 10006 0c51 48        		.byte	72
 10007 0c52 2F        		.byte	47
 10008 0c53 E8        		.byte	-24
 10009 0c54 21        		.byte	33
 10010 0c55 08        		.byte	8
 10011 0c56 21        		.byte	33
 10012 0c57 28        		.byte	40
 10013 0c58 3F        		.byte	63
 10014 0c59 F8        		.byte	-8
 10015 0c5a 20        		.byte	32
 10016 0c5b 48        		.byte	72
 10017 0c5c 27        		.byte	39
 10018 0c5d E8        		.byte	-24
 10019 0c5e 24        		.byte	36
 10020 0c5f 48        		.byte	72
 10021 0c60 24        		.byte	36
 10022 0c61 48        		.byte	72
 10023 0c62 24        		.byte	36
 10024 0c63 48        		.byte	72
 10025 0c64 47        		.byte	71
 10026 0c65 C8        		.byte	-56
 10027 0c66 84        		.byte	-124
 10028 0c67 28        		.byte	40
 10029 0c68 00        		.byte	0
 10030 0c69 10        		.byte	16
 10031 0c6a 01        		.byte	1
 10032 0c6b 00        		.byte	0
 10033 0c6c 02        		.byte	2
 10034 0c6d 00        		.byte	0
 10035 0c6e 04        		.byte	4
 10036 0c6f 10        		.byte	16
 10037 0c70 1F        		.byte	31
 10038 0c71 F8        		.byte	-8
 10039 0c72 10        		.byte	16
 10040 0c73 10        		.byte	16
 10041 0c74 10        		.byte	16
 10042 0c75 10        		.byte	16
 10043 0c76 1F        		.byte	31
 10044 0c77 F0        		.byte	-16
 10045 0c78 10        		.byte	16
 10046 0c79 10        		.byte	16
 10047 0c7a 10        		.byte	16
 10048 0c7b 10        		.byte	16
 10049 0c7c 10        		.byte	16
 10050 0c7d 10        		.byte	16
 10051 0c7e 1F        		.byte	31
 10052 0c7f F0        		.byte	-16
 10053 0c80 10        		.byte	16
 10054 0c81 10        		.byte	16
 10055 0c82 10        		.byte	16
 10056 0c83 10        		.byte	16
 10057 0c84 10        		.byte	16
 10058 0c85 10        		.byte	16
 10059 0c86 1F        		.byte	31
 10060 0c87 F0        		.byte	-16
 10061 0c88 10        		.byte	16
 10062 0c89 10        		.byte	16
 10063 0c8a 00        		.byte	0
 10064 0c8b 10        		.byte	16
 10065 0c8c 00        		.byte	0
 10066 0c8d F8        		.byte	-8
 10067 0c8e 7F        		.byte	127
 10068 0c8f 00        		.byte	0
 10069 0c90 01        		.byte	1
 10070 0c91 00        		.byte	0
 10071 0c92 01        		.byte	1
 10072 0c93 10        		.byte	16
 10073 0c94 3F        		.byte	63
 10074 0c95 F8        		.byte	-8
 10075 0c96 01        		.byte	1
 10076 0c97 00        		.byte	0
 10077 0c98 01        		.byte	1
 10078 0c99 00        		.byte	0
 10079 0c9a 01        		.byte	1
 10080 0c9b 04        		.byte	4
 10081 0c9c FF        		.byte	-1
 10082 0c9d FE        		.byte	-2
 10083 0c9e 01        		.byte	1
 10084 0c9f 00        		.byte	0
 10085 0ca0 01        		.byte	1
 10086 0ca1 00        		.byte	0
 10087 0ca2 01        		.byte	1
 10088 0ca3 00        		.byte	0
 10089 0ca4 01        		.byte	1
 10090 0ca5 00        		.byte	0
 10091 0ca6 05        		.byte	5
 10092 0ca7 00        		.byte	0
 10093 0ca8 02        		.byte	2
 10094 0ca9 00        		.byte	0
 10095 0caa 00        		.byte	0
 10096 0cab 40        		.byte	64
 10097 0cac 08        		.byte	8
 10098 0cad 40        		.byte	64
 10099 0cae 7C        		.byte	124
 10100 0caf 40        		.byte	64
 10101 0cb0 00        		.byte	0
 10102 0cb1 44        		.byte	68
 10103 0cb2 05        		.byte	5
 10104 0cb3 FE        		.byte	-2
 10105 0cb4 FE        		.byte	-2
 10106 0cb5 44        		.byte	68
 10107 0cb6 10        		.byte	16
 10108 0cb7 44        		.byte	68
 10109 0cb8 10        		.byte	16
 10110 0cb9 44        		.byte	68
 10111 0cba 20        		.byte	32
 10112 0cbb 44        		.byte	68
 10113 0cbc 24        		.byte	36
 10114 0cbd 44        		.byte	68
 10115 0cbe 42        		.byte	66
 10116 0cbf 84        		.byte	-124
 10117 0cc0 FE        		.byte	-2
 10118 0cc1 84        		.byte	-124
 10119 0cc2 41        		.byte	65
 10120 0cc3 04        		.byte	4
 10121 0cc4 01        		.byte	1
 10122 0cc5 04        		.byte	4
 10123 0cc6 02        		.byte	2
 10124 0cc7 28        		.byte	40
 10125 0cc8 04        		.byte	4
 10126 0cc9 10        		.byte	16
 10127 0cca 02        		.byte	2
 10128 0ccb 00        		.byte	0
 10129 0ccc 01        		.byte	1
 10130 0ccd 00        		.byte	0
 10131 0cce 3F        		.byte	63
 10132 0ccf FC        		.byte	-4
 10133 0cd0 20        		.byte	32
 10134 0cd1 04        		.byte	4
 10135 0cd2 40        		.byte	64
 10136 0cd3 08        		.byte	8
 10137 0cd4 1F        		.byte	31
 10138 0cd5 E0        		.byte	-32
 10139 0cd6 00        		.byte	0
 10140 0cd7 40        		.byte	64
 10141 0cd8 00        		.byte	0
 10142 0cd9 80        		.byte	-128
 10143 0cda 01        		.byte	1
 10144 0cdb 04        		.byte	4
 10145 0cdc FF        		.byte	-1
 10146 0cdd FE        		.byte	-2
 10147 0cde 01        		.byte	1
 10148 0cdf 00        		.byte	0
 10149 0ce0 01        		.byte	1
 10150 0ce1 00        		.byte	0
 10151 0ce2 01        		.byte	1
 10152 0ce3 00        		.byte	0
 10153 0ce4 01        		.byte	1
 10154 0ce5 00        		.byte	0
 10155 0ce6 05        		.byte	5
 10156 0ce7 00        		.byte	0
 10157 0ce8 02        		.byte	2
 10158 0ce9 00        		.byte	0
 10159 0cea 10        		.byte	16
 10160 0ceb 80        		.byte	-128
 10161 0cec 10        		.byte	16
 10162 0ced 80        		.byte	-128
 10163 0cee 10        		.byte	16
 10164 0cef 80        		.byte	-128
 10165 0cf0 20        		.byte	32
 10166 0cf1 88        		.byte	-120
 10167 0cf2 2F        		.byte	47
 10168 0cf3 FC        		.byte	-4
 10169 0cf4 62        		.byte	98
 10170 0cf5 A0        		.byte	-96
 10171 0cf6 A2        		.byte	-94
 10172 0cf7 A0        		.byte	-96
 10173 0cf8 24        		.byte	36
 10174 0cf9 90        		.byte	-112
 10175 0cfa 24        		.byte	36
 10176 0cfb 90        		.byte	-112
 10177 0cfc 28        		.byte	40
 10178 0cfd 88        		.byte	-120
 10179 0cfe 2B        		.byte	43
 10180 0cff EE        		.byte	-18
 10181 0d00 30        		.byte	48
 10182 0d01 84        		.byte	-124
 10183 0d02 20        		.byte	32
 10184 0d03 80        		.byte	-128
 10185 0d04 20        		.byte	32
 10186 0d05 80        		.byte	-128
 10187 0d06 20        		.byte	32
 10188 0d07 80        		.byte	-128
 10189 0d08 20        		.byte	32
 10190 0d09 80        		.byte	-128
 10191 0d0a 10        		.byte	16
 10192 0d0b 40        		.byte	64
 10193 0d0c 10        		.byte	16
 10194 0d0d 20        		.byte	32
 10195 0d0e 10        		.byte	16
 10196 0d0f 04        		.byte	4
 10197 0d10 13        		.byte	19
 10198 0d11 FE        		.byte	-2
 10199 0d12 FC        		.byte	-4
 10200 0d13 00        		.byte	0
 10201 0d14 10        		.byte	16
 10202 0d15 88        		.byte	-120
 10203 0d16 31        		.byte	49
 10204 0d17 06        		.byte	6
 10205 0d18 3A        		.byte	58
 10206 0d19 8A        		.byte	-118
 10207 0d1a 54        		.byte	84
 10208 0d1b 88        		.byte	-120
 10209 0d1c 50        		.byte	80
 10210 0d1d 50        		.byte	80
 10211 0d1e 90        		.byte	-112
 10212 0d1f 50        		.byte	80
 10213 0d20 10        		.byte	16
 10214 0d21 20        		.byte	32
 10215 0d22 10        		.byte	16
 10216 0d23 50        		.byte	80
 10217 0d24 10        		.byte	16
 10218 0d25 88        		.byte	-120
 10219 0d26 13        		.byte	19
 10220 0d27 0E        		.byte	14
 10221 0d28 1C        		.byte	28
 10222 0d29 04        		.byte	4
 10223 0d2a 10        		.byte	16
 10224 0d2b 00        		.byte	0
 10225 0d2c 10        		.byte	16
 10226 0d2d 00        		.byte	0
 10227 0d2e 10        		.byte	16
 10228 0d2f 04        		.byte	4
 10229 0d30 12        		.byte	18
 10230 0d31 7E        		.byte	126
 10231 0d32 FF        		.byte	-1
 10232 0d33 44        		.byte	68
 10233 0d34 12        		.byte	18
 10234 0d35 44        		.byte	68
 10235 0d36 12        		.byte	18
 10236 0d37 44        		.byte	68
 10237 0d38 12        		.byte	18
 10238 0d39 44        		.byte	68
 10239 0d3a 12        		.byte	18
 10240 0d3b 44        		.byte	68
 10241 0d3c 22        		.byte	34
 10242 0d3d 44        		.byte	68
 10243 0d3e 22        		.byte	34
 10244 0d3f 44        		.byte	68
 10245 0d40 22        		.byte	34
 10246 0d41 44        		.byte	68
 10247 0d42 22        		.byte	34
 10248 0d43 44        		.byte	68
 10249 0d44 4A        		.byte	74
 10250 0d45 7C        		.byte	124
 10251 0d46 84        		.byte	-124
 10252 0d47 44        		.byte	68
 10253 0d48 00        		.byte	0
 10254 0d49 00        		.byte	0
 10255 0d4a 00        		.byte	0
 10256 0d4b 10        		.byte	16
 10257 0d4c 40        		.byte	64
 10258 0d4d 18        		.byte	24
 10259 0d4e 30        		.byte	48
 10260 0d4f 14        		.byte	20
 10261 0d50 17        		.byte	23
 10262 0d51 FE        		.byte	-2
 10263 0d52 04        		.byte	4
 10264 0d53 10        		.byte	16
 10265 0d54 04        		.byte	4
 10266 0d55 10        		.byte	16
 10267 0d56 0D        		.byte	13
 10268 0d57 D0        		.byte	-48
 10269 0d58 14        		.byte	20
 10270 0d59 14        		.byte	20
 10271 0d5a 25        		.byte	37
 10272 0d5b D4        		.byte	-44
 10273 0d5c E5        		.byte	-27
 10274 0d5d 54        		.byte	84
 10275 0d5e 25        		.byte	37
 10276 0d5f 54        		.byte	84
 10277 0d60 25        		.byte	37
 10278 0d61 58        		.byte	88
 10279 0d62 25        		.byte	37
 10280 0d63 D0        		.byte	-48
 10281 0d64 25        		.byte	37
 10282 0d65 2A        		.byte	42
 10283 0d66 08        		.byte	8
 10284 0d67 46        		.byte	70
 10285 0d68 10        		.byte	16
 10286 0d69 82        		.byte	-126
 10287 0d6a 10        		.byte	16
 10288 0d6b 00        		.byte	0
 10289 0d6c 10        		.byte	16
 10290 0d6d 08        		.byte	8
 10291 0d6e 1F        		.byte	31
 10292 0d6f FC        		.byte	-4
 10293 0d70 20        		.byte	32
 10294 0d71 10        		.byte	16
 10295 0d72 5F        		.byte	95
 10296 0d73 F8        		.byte	-8
 10297 0d74 12        		.byte	18
 10298 0d75 10        		.byte	16
 10299 0d76 11        		.byte	17
 10300 0d77 10        		.byte	16
 10301 0d78 10        		.byte	16
 10302 0d79 14        		.byte	20
 10303 0d7a FF        		.byte	-1
 10304 0d7b FE        		.byte	-2
 10305 0d7c 12        		.byte	18
 10306 0d7d 10        		.byte	16
 10307 0d7e 21        		.byte	33
 10308 0d7f 10        		.byte	16
 10309 0d80 20        		.byte	32
 10310 0d81 10        		.byte	16
 10311 0d82 3F        		.byte	63
 10312 0d83 F8        		.byte	-8
 10313 0d84 00        		.byte	0
 10314 0d85 20        		.byte	32
 10315 0d86 00        		.byte	0
 10316 0d87 A0        		.byte	-96
 10317 0d88 00        		.byte	0
 10318 0d89 40        		.byte	64
 10319 0d8a 10        		.byte	16
 10320 0d8b 04        		.byte	4
 10321 0d8c 09        		.byte	9
 10322 0d8d FE        		.byte	-2
 10323 0d8e 7F        		.byte	127
 10324 0d8f 20        		.byte	32
 10325 0d90 22        		.byte	34
 10326 0d91 44        		.byte	68
 10327 0d92 14        		.byte	20
 10328 0d93 FE        		.byte	-2
 10329 0d94 7F        		.byte	127
 10330 0d95 84        		.byte	-124
 10331 0d96 44        		.byte	68
 10332 0d97 94        		.byte	-108
 10333 0d98 48        		.byte	72
 10334 0d99 94        		.byte	-108
 10335 0d9a 52        		.byte	82
 10336 0d9b 94        		.byte	-108
 10337 0d9c 44        		.byte	68
 10338 0d9d A4        		.byte	-92
 10339 0d9e 48        		.byte	72
 10340 0d9f A4        		.byte	-92
 10341 0da0 52        		.byte	82
 10342 0da1 A4        		.byte	-92
 10343 0da2 44        		.byte	68
 10344 0da3 A4        		.byte	-92
 10345 0da4 48        		.byte	72
 10346 0da5 48        		.byte	72
 10347 0da6 90        		.byte	-112
 10348 0da7 86        		.byte	-122
 10349 0da8 21        		.byte	33
 10350 0da9 02        		.byte	2
 10351 0daa 04        		.byte	4
 10352 0dab 00        		.byte	0
 10353 0dac 04        		.byte	4
 10354 0dad 00        		.byte	0
 10355 0dae 07        		.byte	7
 10356 0daf F0        		.byte	-16
 10357 0db0 08        		.byte	8
 10358 0db1 20        		.byte	32
 10359 0db2 08        		.byte	8
 10360 0db3 48        		.byte	72
 10361 0db4 1F        		.byte	31
 10362 0db5 FC        		.byte	-4
 10363 0db6 28        		.byte	40
 10364 0db7 88        		.byte	-120
 10365 0db8 48        		.byte	72
 10366 0db9 88        		.byte	-120
 10367 0dba 08        		.byte	8
 10368 0dbb 88        		.byte	-120
 10369 0dbc 0F        		.byte	15
 10370 0dbd F8        		.byte	-8
 10371 0dbe 08        		.byte	8
 10372 0dbf 08        		.byte	8
 10373 0dc0 08        		.byte	8
 10374 0dc1 00        		.byte	0
 10375 0dc2 08        		.byte	8
 10376 0dc3 02        		.byte	2
 10377 0dc4 08        		.byte	8
 10378 0dc5 02        		.byte	2
 10379 0dc6 07        		.byte	7
 10380 0dc7 FE        		.byte	-2
 10381 0dc8 00        		.byte	0
 10382 0dc9 00        		.byte	0
 10383 0dca 10        		.byte	16
 10384 0dcb 10        		.byte	16
 10385 0dcc 08        		.byte	8
 10386 0dcd 20        		.byte	32
 10387 0dce 04        		.byte	4
 10388 0dcf 48        		.byte	72
 10389 0dd0 3F        		.byte	63
 10390 0dd1 FC        		.byte	-4
 10391 0dd2 21        		.byte	33
 10392 0dd3 08        		.byte	8
 10393 0dd4 21        		.byte	33
 10394 0dd5 08        		.byte	8
 10395 0dd6 3F        		.byte	63
 10396 0dd7 F8        		.byte	-8
 10397 0dd8 21        		.byte	33
 10398 0dd9 08        		.byte	8
 10399 0dda 21        		.byte	33
 10400 0ddb 08        		.byte	8
 10401 0ddc 3F        		.byte	63
 10402 0ddd F8        		.byte	-8
 10403 0dde 21        		.byte	33
 10404 0ddf 00        		.byte	0
 10405 0de0 01        		.byte	1
 10406 0de1 04        		.byte	4
 10407 0de2 FF        		.byte	-1
 10408 0de3 FE        		.byte	-2
 10409 0de4 01        		.byte	1
 10410 0de5 00        		.byte	0
 10411 0de6 01        		.byte	1
 10412 0de7 00        		.byte	0
 10413 0de8 01        		.byte	1
 10414 0de9 00        		.byte	0
 10415 0dea 10        		.byte	16
 10416 0deb 00        		.byte	0
 10417 0dec 10        		.byte	16
 10418 0ded 08        		.byte	8
 10419 0dee 23        		.byte	35
 10420 0def FC        		.byte	-4
 10421 0df0 20        		.byte	32
 10422 0df1 20        		.byte	32
 10423 0df2 44        		.byte	68
 10424 0df3 20        		.byte	32
 10425 0df4 F8        		.byte	-8
 10426 0df5 20        		.byte	32
 10427 0df6 10        		.byte	16
 10428 0df7 20        		.byte	32
 10429 0df8 20        		.byte	32
 10430 0df9 20        		.byte	32
 10431 0dfa 40        		.byte	64
 10432 0dfb 20        		.byte	32
 10433 0dfc FC        		.byte	-4
 10434 0dfd 20        		.byte	32
 10435 0dfe 40        		.byte	64
 10436 0dff 20        		.byte	32
 10437 0e00 00        		.byte	0
 10438 0e01 20        		.byte	32
 10439 0e02 1C        		.byte	28
 10440 0e03 20        		.byte	32
 10441 0e04 E0        		.byte	-32
 10442 0e05 24        		.byte	36
 10443 0e06 47        		.byte	71
 10444 0e07 FE        		.byte	-2
 10445 0e08 00        		.byte	0
 10446 0e09 00        		.byte	0
 10447 0e0a 10        		.byte	16
 10448 0e0b 08        		.byte	8
 10449 0e0c 13        		.byte	19
 10450 0e0d FC        		.byte	-4
 10451 0e0e 20        		.byte	32
 10452 0e0f 08        		.byte	8
 10453 0e10 21        		.byte	33
 10454 0e11 F8        		.byte	-8
 10455 0e12 44        		.byte	68
 10456 0e13 08        		.byte	8
 10457 0e14 FF        		.byte	-1
 10458 0e15 FE        		.byte	-2
 10459 0e16 10        		.byte	16
 10460 0e17 40        		.byte	64
 10461 0e18 22        		.byte	34
 10462 0e19 44        		.byte	68
 10463 0e1a 41        		.byte	65
 10464 0e1b 4C        		.byte	76
 10465 0e1c F9        		.byte	-7
 10466 0e1d 50        		.byte	80
 10467 0e1e 00        		.byte	0
 10468 0e1f E0        		.byte	-32
 10469 0e20 01        		.byte	1
 10470 0e21 50        		.byte	80
 10471 0e22 1A        		.byte	26
 10472 0e23 48        		.byte	72
 10473 0e24 E4        		.byte	-28
 10474 0e25 4E        		.byte	78
 10475 0e26 41        		.byte	65
 10476 0e27 44        		.byte	68
 10477 0e28 00        		.byte	0
 10478 0e29 80        		.byte	-128
 10479 0e2a 04        		.byte	4
 10480 0e2b 40        		.byte	64
 10481 0e2c 04        		.byte	4
 10482 0e2d 50        		.byte	80
 10483 0e2e 3F        		.byte	63
 10484 0e2f F8        		.byte	-8
 10485 0e30 04        		.byte	4
 10486 0e31 40        		.byte	64
 10487 0e32 04        		.byte	4
 10488 0e33 44        		.byte	68
 10489 0e34 FF        		.byte	-1
 10490 0e35 FE        		.byte	-2
 10491 0e36 01        		.byte	1
 10492 0e37 10        		.byte	16
 10493 0e38 1F        		.byte	31
 10494 0e39 F8        		.byte	-8
 10495 0e3a 11        		.byte	17
 10496 0e3b 10        		.byte	16
 10497 0e3c 1F        		.byte	31
 10498 0e3d F0        		.byte	-16
 10499 0e3e 11        		.byte	17
 10500 0e3f 10        		.byte	16
 10501 0e40 1F        		.byte	31
 10502 0e41 F0        		.byte	-16
 10503 0e42 10        		.byte	16
 10504 0e43 00        		.byte	0
 10505 0e44 04        		.byte	4
 10506 0e45 60        		.byte	96
 10507 0e46 18        		.byte	24
 10508 0e47 18        		.byte	24
 10509 0e48 60        		.byte	96
 10510 0e49 04        		.byte	4
 10511 0e4a 02        		.byte	2
 10512 0e4b 00        		.byte	0
 10513 0e4c 01        		.byte	1
 10514 0e4d 04        		.byte	4
 10515 0e4e 3F        		.byte	63
 10516 0e4f FE        		.byte	-2
 10517 0e50 20        		.byte	32
 10518 0e51 00        		.byte	0
 10519 0e52 20        		.byte	32
 10520 0e53 70        		.byte	112
 10521 0e54 2F        		.byte	47
 10522 0e55 80        		.byte	-128
 10523 0e56 28        		.byte	40
 10524 0e57 80        		.byte	-128
 10525 0e58 28        		.byte	40
 10526 0e59 88        		.byte	-120
 10527 0e5a 2F        		.byte	47
 10528 0e5b FC        		.byte	-4
 10529 0e5c 28        		.byte	40
 10530 0e5d 80        		.byte	-128
 10531 0e5e 28        		.byte	40
 10532 0e5f 80        		.byte	-128
 10533 0e60 28        		.byte	40
 10534 0e61 40        		.byte	64
 10535 0e62 4A        		.byte	74
 10536 0e63 40        		.byte	64
 10537 0e64 4D        		.byte	77
 10538 0e65 A4        		.byte	-92
 10539 0e66 88        		.byte	-120
 10540 0e67 94        		.byte	-108
 10541 0e68 00        		.byte	0
 10542 0e69 0C        		.byte	12
 10543 0e6a 00        		.byte	0
 10544 0e6b 08        		.byte	8
 10545 0e6c 4F        		.byte	79
 10546 0e6d FC        		.byte	-4
 10547 0e6e 21        		.byte	33
 10548 0e6f 00        		.byte	0
 10549 0e70 21        		.byte	33
 10550 0e71 10        		.byte	16
 10551 0e72 07        		.byte	7
 10552 0e73 F8        		.byte	-8
 10553 0e74 02        		.byte	2
 10554 0e75 10        		.byte	16
 10555 0e76 E2        		.byte	-30
 10556 0e77 14        		.byte	20
 10557 0e78 3F        		.byte	63
 10558 0e79 FE        		.byte	-2
 10559 0e7a 20        		.byte	32
 10560 0e7b 00        		.byte	0
 10561 0e7c 20        		.byte	32
 10562 0e7d 08        		.byte	8
 10563 0e7e 27        		.byte	39
 10564 0e7f FC        		.byte	-4
 10565 0e80 24        		.byte	36
 10566 0e81 08        		.byte	8
 10567 0e82 2C        		.byte	44
 10568 0e83 08        		.byte	8
 10569 0e84 34        		.byte	52
 10570 0e85 08        		.byte	8
 10571 0e86 27        		.byte	39
 10572 0e87 F8        		.byte	-8
 10573 0e88 04        		.byte	4
 10574 0e89 08        		.byte	8
 10575 0e8a 02        		.byte	2
 10576 0e8b 00        		.byte	0
 10577 0e8c 01        		.byte	1
 10578 0e8d 10        		.byte	16
 10579 0e8e 3F        		.byte	63
 10580 0e8f F8        		.byte	-8
 10581 0e90 08        		.byte	8
 10582 0e91 20        		.byte	32
 10583 0e92 04        		.byte	4
 10584 0e93 20        		.byte	32
 10585 0e94 04        		.byte	4
 10586 0e95 44        		.byte	68
 10587 0e96 FF        		.byte	-1
 10588 0e97 FE        		.byte	-2
 10589 0e98 00        		.byte	0
 10590 0e99 10        		.byte	16
 10591 0e9a 1F        		.byte	31
 10592 0e9b F8        		.byte	-8
 10593 0e9c 10        		.byte	16
 10594 0e9d 10        		.byte	16
 10595 0e9e 10        		.byte	16
 10596 0e9f 10        		.byte	16
 10597 0ea0 1F        		.byte	31
 10598 0ea1 F0        		.byte	-16
 10599 0ea2 10        		.byte	16
 10600 0ea3 10        		.byte	16
 10601 0ea4 10        		.byte	16
 10602 0ea5 10        		.byte	16
 10603 0ea6 1F        		.byte	31
 10604 0ea7 F0        		.byte	-16
 10605 0ea8 10        		.byte	16
 10606 0ea9 10        		.byte	16
 10607 0eaa 10        		.byte	16
 10608 0eab 08        		.byte	8
 10609 0eac 11        		.byte	17
 10610 0ead FC        		.byte	-4
 10611 0eae 11        		.byte	17
 10612 0eaf 08        		.byte	8
 10613 0eb0 11        		.byte	17
 10614 0eb1 08        		.byte	8
 10615 0eb2 FD        		.byte	-3
 10616 0eb3 28        		.byte	40
 10617 0eb4 11        		.byte	17
 10618 0eb5 10        		.byte	16
 10619 0eb6 15        		.byte	21
 10620 0eb7 00        		.byte	0
 10621 0eb8 19        		.byte	25
 10622 0eb9 F8        		.byte	-8
 10623 0eba 31        		.byte	49
 10624 0ebb 08        		.byte	8
 10625 0ebc D1        		.byte	-47
 10626 0ebd 90        		.byte	-112
 10627 0ebe 11        		.byte	17
 10628 0ebf 50        		.byte	80
 10629 0ec0 11        		.byte	17
 10630 0ec1 20        		.byte	32
 10631 0ec2 11        		.byte	17
 10632 0ec3 50        		.byte	80
 10633 0ec4 11        		.byte	17
 10634 0ec5 8E        		.byte	-114
 10635 0ec6 51        		.byte	81
 10636 0ec7 04        		.byte	4
 10637 0ec8 21        		.byte	33
 10638 0ec9 00        		.byte	0
 10639 0eca 00        		.byte	0
 10640 0ecb 08        		.byte	8
 10641 0ecc 7F        		.byte	127
 10642 0ecd FC        		.byte	-4
 10643 0ece 01        		.byte	1
 10644 0ecf 00        		.byte	0
 10645 0ed0 01        		.byte	1
 10646 0ed1 00        		.byte	0
 10647 0ed2 01        		.byte	1
 10648 0ed3 00        		.byte	0
 10649 0ed4 01        		.byte	1
 10650 0ed5 00        		.byte	0
 10651 0ed6 11        		.byte	17
 10652 0ed7 10        		.byte	16
 10653 0ed8 11        		.byte	17
 10654 0ed9 F8        		.byte	-8
 10655 0eda 11        		.byte	17
 10656 0edb 00        		.byte	0
 10657 0edc 11        		.byte	17
 10658 0edd 00        		.byte	0
 10659 0ede 11        		.byte	17
 10660 0edf 00        		.byte	0
 10661 0ee0 11        		.byte	17
 10662 0ee1 00        		.byte	0
 10663 0ee2 11        		.byte	17
 10664 0ee3 00        		.byte	0
 10665 0ee4 11        		.byte	17
 10666 0ee5 04        		.byte	4
 10667 0ee6 FF        		.byte	-1
 10668 0ee7 FE        		.byte	-2
 10669 0ee8 00        		.byte	0
 10670 0ee9 00        		.byte	0
 10671 0eea 01        		.byte	1
 10672 0eeb 00        		.byte	0
 10673 0eec 11        		.byte	17
 10674 0eed 10        		.byte	16
 10675 0eee 09        		.byte	9
 10676 0eef 20        		.byte	32
 10677 0ef0 7F        		.byte	127
 10678 0ef1 FE        		.byte	-2
 10679 0ef2 40        		.byte	64
 10680 0ef3 02        		.byte	2
 10681 0ef4 8F        		.byte	-113
 10682 0ef5 E4        		.byte	-28
 10683 0ef6 08        		.byte	8
 10684 0ef7 20        		.byte	32
 10685 0ef8 0F        		.byte	15
 10686 0ef9 E0        		.byte	-32
 10687 0efa 01        		.byte	1
 10688 0efb 10        		.byte	16
 10689 0efc 1F        		.byte	31
 10690 0efd F8        		.byte	-8
 10691 0efe 11        		.byte	17
 10692 0eff 10        		.byte	16
 10693 0f00 11        		.byte	17
 10694 0f01 10        		.byte	16
 10695 0f02 11        		.byte	17
 10696 0f03 10        		.byte	16
 10697 0f04 11        		.byte	17
 10698 0f05 50        		.byte	80
 10699 0f06 01        		.byte	1
 10700 0f07 20        		.byte	32
 10701 0f08 01        		.byte	1
 10702 0f09 00        		.byte	0
 10703 0f0a 10        		.byte	16
 10704 0f0b 00        		.byte	0
 10705 0f0c 10        		.byte	16
 10706 0f0d 00        		.byte	0
 10707 0f0e 10        		.byte	16
 10708 0f0f 04        		.byte	4
 10709 0f10 1F        		.byte	31
 10710 0f11 FE        		.byte	-2
 10711 0f12 24        		.byte	36
 10712 0f13 44        		.byte	68
 10713 0f14 44        		.byte	68
 10714 0f15 44        		.byte	68
 10715 0f16 84        		.byte	-124
 10716 0f17 44        		.byte	68
 10717 0f18 08        		.byte	8
 10718 0f19 44        		.byte	68
 10719 0f1a 08        		.byte	8
 10720 0f1b 84        		.byte	-124
 10721 0f1c 08        		.byte	8
 10722 0f1d 84        		.byte	-124
 10723 0f1e 10        		.byte	16
 10724 0f1f 84        		.byte	-124
 10725 0f20 11        		.byte	17
 10726 0f21 04        		.byte	4
 10727 0f22 21        		.byte	33
 10728 0f23 04        		.byte	4
 10729 0f24 42        		.byte	66
 10730 0f25 04        		.byte	4
 10731 0f26 04        		.byte	4
 10732 0f27 28        		.byte	40
 10733 0f28 08        		.byte	8
 10734 0f29 10        		.byte	16
 10735 0f2a 10        		.byte	16
 10736 0f2b 40        		.byte	64
 10737 0f2c 10        		.byte	16
 10738 0f2d 50        		.byte	80
 10739 0f2e 10        		.byte	16
 10740 0f2f 48        		.byte	72
 10741 0f30 10        		.byte	16
 10742 0f31 40        		.byte	64
 10743 0f32 FC        		.byte	-4
 10744 0f33 44        		.byte	68
 10745 0f34 13        		.byte	19
 10746 0f35 FE        		.byte	-2
 10747 0f36 14        		.byte	20
 10748 0f37 40        		.byte	64
 10749 0f38 18        		.byte	24
 10750 0f39 60        		.byte	96
 10751 0f3a 30        		.byte	48
 10752 0f3b A0        		.byte	-96
 10753 0f3c D0        		.byte	-48
 10754 0f3d A0        		.byte	-96
 10755 0f3e 10        		.byte	16
 10756 0f3f A0        		.byte	-96
 10757 0f40 10        		.byte	16
 10758 0f41 A0        		.byte	-96
 10759 0f42 11        		.byte	17
 10760 0f43 22        		.byte	34
 10761 0f44 11        		.byte	17
 10762 0f45 22        		.byte	34
 10763 0f46 52        		.byte	82
 10764 0f47 1E        		.byte	30
 10765 0f48 24        		.byte	36
 10766 0f49 00        		.byte	0
 10767 0f4a 10        		.byte	16
 10768 0f4b 10        		.byte	16
 10769 0f4c 08        		.byte	8
 10770 0f4d 18        		.byte	24
 10771 0f4e 04        		.byte	4
 10772 0f4f 20        		.byte	32
 10773 0f50 04        		.byte	4
 10774 0f51 48        		.byte	72
 10775 0f52 7F        		.byte	127
 10776 0f53 FC        		.byte	-4
 10777 0f54 01        		.byte	1
 10778 0f55 00        		.byte	0
 10779 0f56 01        		.byte	1
 10780 0f57 00        		.byte	0
 10781 0f58 01        		.byte	1
 10782 0f59 04        		.byte	4
 10783 0f5a FF        		.byte	-1
 10784 0f5b FE        		.byte	-2
 10785 0f5c 01        		.byte	1
 10786 0f5d 00        		.byte	0
 10787 0f5e 02        		.byte	2
 10788 0f5f 80        		.byte	-128
 10789 0f60 02        		.byte	2
 10790 0f61 80        		.byte	-128
 10791 0f62 04        		.byte	4
 10792 0f63 40        		.byte	64
 10793 0f64 08        		.byte	8
 10794 0f65 30        		.byte	48
 10795 0f66 30        		.byte	48
 10796 0f67 0E        		.byte	14
 10797 0f68 C0        		.byte	-64
 10798 0f69 04        		.byte	4
 10799 0f6a 20        		.byte	32
 10800 0f6b 04        		.byte	4
 10801 0f6c 1B        		.byte	27
 10802 0f6d FE        		.byte	-2
 10803 0f6e 08        		.byte	8
 10804 0f6f 04        		.byte	4
 10805 0f70 40        		.byte	64
 10806 0f71 84        		.byte	-124
 10807 0f72 40        		.byte	64
 10808 0f73 A4        		.byte	-92
 10809 0f74 5F        		.byte	95
 10810 0f75 F4        		.byte	-12
 10811 0f76 40        		.byte	64
 10812 0f77 84        		.byte	-124
 10813 0f78 41        		.byte	65
 10814 0f79 84        		.byte	-124
 10815 0f7a 42        		.byte	66
 10816 0f7b 84        		.byte	-124
 10817 0f7c 44        		.byte	68
 10818 0f7d 84        		.byte	-124
 10819 0f7e 48        		.byte	72
 10820 0f7f 84        		.byte	-124
 10821 0f80 50        		.byte	80
 10822 0f81 84        		.byte	-124
 10823 0f82 40        		.byte	64
 10824 0f83 84        		.byte	-124
 10825 0f84 42        		.byte	66
 10826 0f85 84        		.byte	-124
 10827 0f86 41        		.byte	65
 10828 0f87 14        		.byte	20
 10829 0f88 40        		.byte	64
 10830 0f89 08        		.byte	8
 10831               	.global	time
 10832               		.data
 10835               	time:
 10836 001d 40        		.byte	64
 10837 001e 59        		.byte	89
 10838 001f 23        		.byte	35
 10839 0020 29        		.byte	41
 10840 0021 05        		.byte	5
 10841 0022 02        		.byte	2
 10842 0023 08        		.byte	8
 10843               	.global	freshTimeCount
 10844               	.global	freshTimeCount
 10845               		.section .bss
 10848               	freshTimeCount:
 10849 0000 0000      		.skip 2,0
 10850               		.comm ReadDS18B20Count,2,1
 10851               		.comm init_f,1,1
 10852               		.comm display_cnt,1,1
 10853               		.comm display_buffer,496,1
 10854               		.comm display_buffer_temp,8,1
 10855               		.comm halfSecondCount,2,1
 10856               		.comm isSecondCountShow,1,1
 10857               		.comm currentMoveLeft,1,1
 10858               		.comm moveSpeedTimerCount,2,1
 10859               		.comm FreshDisplayBufferCount,2,1
 10860               		.comm syserr,1,1
 10861               		.comm write_buff,8,1
 10862               		.comm read_buff,8,1
 10863               		.comm PLUSE_Number,1,1
 10864               		.comm PLUSE_Delay,1,1
 10865               		.comm PLUSE_Status,1,1
 10866               		.comm SPEEK_TIME_Delay,2,1
 10867               		.comm SPEEK_TIME_Status,1,1
 10868               		.comm inVoice,1,1
 10869               		.comm KEY_Time_count,2,1
 10870               		.comm KEY_Time_count_speed_color,2,1
 10871               		.comm AD_time_count,2,1
 11360               	.Letext0:
DEFINED SYMBOLS
                            *ABS*:00000000 LED3264.c
C:\DOCUME~1\shawn\LOCALS~1\Temp/ccZ6vDJx.s:2      *ABS*:0000003f __SREG__
C:\DOCUME~1\shawn\LOCALS~1\Temp/ccZ6vDJx.s:3      *ABS*:0000003e __SP_H__
C:\DOCUME~1\shawn\LOCALS~1\Temp/ccZ6vDJx.s:4      *ABS*:0000003d __SP_L__
C:\DOCUME~1\shawn\LOCALS~1\Temp/ccZ6vDJx.s:5      *ABS*:00000034 __CCP__
C:\DOCUME~1\shawn\LOCALS~1\Temp/ccZ6vDJx.s:6      *ABS*:00000000 __tmp_reg__
C:\DOCUME~1\shawn\LOCALS~1\Temp/ccZ6vDJx.s:7      *ABS*:00000001 __zero_reg__
C:\DOCUME~1\shawn\LOCALS~1\Temp/ccZ6vDJx.s:18     .text:00000000 s_10us
C:\DOCUME~1\shawn\LOCALS~1\Temp/ccZ6vDJx.s:31     .text:00000002 _delay_100ms
C:\DOCUME~1\shawn\LOCALS~1\Temp/ccZ6vDJx.s:44     .text:00000004 ds1820_reset
                            *COM*:00000001 init_f
C:\DOCUME~1\shawn\LOCALS~1\Temp/ccZ6vDJx.s:83     .text:0000001e ds1820_read_byte
C:\DOCUME~1\shawn\LOCALS~1\Temp/ccZ6vDJx.s:137    .text:00000044 ds1820_write_byte
C:\DOCUME~1\shawn\LOCALS~1\Temp/ccZ6vDJx.s:189    .text:00000068 ds1820_start
C:\DOCUME~1\shawn\LOCALS~1\Temp/ccZ6vDJx.s:209    .text:0000007a ReadTemputer
C:\DOCUME~1\shawn\LOCALS~1\Temp/ccZ6vDJx.s:6790   .data:00000000 RunParameter
C:\DOCUME~1\shawn\LOCALS~1\Temp/ccZ6vDJx.s:330    .text:0000013a SaveRunParameter
C:\DOCUME~1\shawn\LOCALS~1\Temp/ccZ6vDJx.s:674    .text:00000272 ReadRunParameter
C:\DOCUME~1\shawn\LOCALS~1\Temp/ccZ6vDJx.s:982    .text:00000352 LED_SCREEN_INI
                            *COM*:00000001 display_cnt
                            *COM*:00000002 halfSecondCount
                            *COM*:00000001 isSecondCountShow
                            *COM*:00000001 currentMoveLeft
                            *COM*:00000002 moveSpeedTimerCount
                            *COM*:00000002 FreshDisplayBufferCount
C:\DOCUME~1\shawn\LOCALS~1\Temp/ccZ6vDJx.s:1035   .text:00000392 writeCloclColon
                            *COM*:000001f0 display_buffer
C:\DOCUME~1\shawn\LOCALS~1\Temp/ccZ6vDJx.s:1150   .text:00000486 writeOneChinese
C:\DOCUME~1\shawn\LOCALS~1\Temp/ccZ6vDJx.s:9262   .progmem.data:0000096a CHINESE
C:\DOCUME~1\shawn\LOCALS~1\Temp/ccZ6vDJx.s:1230   .text:000004da writeOneUnSCROLL
C:\DOCUME~1\shawn\LOCALS~1\Temp/ccZ6vDJx.s:8096   .progmem.data:000004ec SCROLL
C:\DOCUME~1\shawn\LOCALS~1\Temp/ccZ6vDJx.s:1290   .text:0000051a writeOneSCROLL
C:\DOCUME~1\shawn\LOCALS~1\Temp/ccZ6vDJx.s:8560   .progmem.data:000006b8 SCROLL_STYLE1
C:\DOCUME~1\shawn\LOCALS~1\Temp/ccZ6vDJx.s:8794   .progmem.data:0000079e SCROLL_STYLE2
C:\DOCUME~1\shawn\LOCALS~1\Temp/ccZ6vDJx.s:9028   .progmem.data:00000884 SCROLL_STYLE3
C:\DOCUME~1\shawn\LOCALS~1\Temp/ccZ6vDJx.s:1459   .text:000005ea wirteOneBigNumber
C:\DOCUME~1\shawn\LOCALS~1\Temp/ccZ6vDJx.s:6824   .progmem.data:00000000 BIG_NUMBER_STYLE1
C:\DOCUME~1\shawn\LOCALS~1\Temp/ccZ6vDJx.s:7248   .progmem.data:000001a4 BIG_NUMBER_STYLE2
C:\DOCUME~1\shawn\LOCALS~1\Temp/ccZ6vDJx.s:7672   .progmem.data:00000348 BIG_NUMBER_STYLE3
C:\DOCUME~1\shawn\LOCALS~1\Temp/ccZ6vDJx.s:1748   .text:00000740 display
                            *COM*:00000008 display_buffer_temp
C:\DOCUME~1\shawn\LOCALS~1\Temp/ccZ6vDJx.s:2482   .text:00000b5e twi_init
C:\DOCUME~1\shawn\LOCALS~1\Temp/ccZ6vDJx.s:2506   .text:00000b6e i2cstart
C:\DOCUME~1\shawn\LOCALS~1\Temp/ccZ6vDJx.s:2526   .text:00000b7a i2cwt
C:\DOCUME~1\shawn\LOCALS~1\Temp/ccZ6vDJx.s:2559   .text:00000b8e i2crd
C:\DOCUME~1\shawn\LOCALS~1\Temp/ccZ6vDJx.s:2581   .text:00000b9c i2cstop
C:\DOCUME~1\shawn\LOCALS~1\Temp/ccZ6vDJx.s:2596   .text:00000ba2 clear
C:\DOCUME~1\shawn\LOCALS~1\Temp/ccZ6vDJx.s:2621   .text:00000bb0 PCF8536_wt
                            *COM*:00000001 syserr
C:\DOCUME~1\shawn\LOCALS~1\Temp/ccZ6vDJx.s:2735   .text:00000c04 PCF8536_wt_p
C:\DOCUME~1\shawn\LOCALS~1\Temp/ccZ6vDJx.s:2876   .text:00000c68 PCF8536_rd
C:\DOCUME~1\shawn\LOCALS~1\Temp/ccZ6vDJx.s:3067   .text:00000cfe PCF8563_init
                            *COM*:00000008 write_buff
                            *COM*:00000008 read_buff
C:\DOCUME~1\shawn\LOCALS~1\Temp/ccZ6vDJx.s:3121   .text:00000d30 Updata_time
C:\DOCUME~1\shawn\LOCALS~1\Temp/ccZ6vDJx.s:10835  .data:0000001d time
C:\DOCUME~1\shawn\LOCALS~1\Temp/ccZ6vDJx.s:3216   .text:00000de6 Write_time
C:\DOCUME~1\shawn\LOCALS~1\Temp/ccZ6vDJx.s:3294   .text:00000e84 AjustTimerMonthly
C:\DOCUME~1\shawn\LOCALS~1\Temp/ccZ6vDJx.s:3397   .text:00000f30 Voice_Init
C:\DOCUME~1\shawn\LOCALS~1\Temp/ccZ6vDJx.s:3417   .text:00000f3a SPEEK_Time
                            *COM*:00000001 SPEEK_TIME_Status
                            *COM*:00000001 inVoice
                            *COM*:00000001 PLUSE_Number
                            *COM*:00000001 PLUSE_Status
                            *COM*:00000002 SPEEK_TIME_Delay
C:\DOCUME~1\shawn\LOCALS~1\Temp/ccZ6vDJx.s:4018   .text:00001334 PLUSE_Out
                            *COM*:00000001 PLUSE_Delay
C:\DOCUME~1\shawn\LOCALS~1\Temp/ccZ6vDJx.s:4132   .text:000013de Key_Init
C:\DOCUME~1\shawn\LOCALS~1\Temp/ccZ6vDJx.s:4160   .text:000013f0 Key_Operation
                            *COM*:00000002 KEY_Time_count
C:\DOCUME~1\shawn\LOCALS~1\Temp/ccZ6vDJx.s:4343   .text:000014c2 StartAD
C:\DOCUME~1\shawn\LOCALS~1\Temp/ccZ6vDJx.s:4363   .text:000014ce GetDispalyLight
C:\DOCUME~1\shawn\LOCALS~1\Temp/ccZ6vDJx.s:4419   .text:0000151a timer0_init
C:\DOCUME~1\shawn\LOCALS~1\Temp/ccZ6vDJx.s:4453   .text:00001540 timer2_init
C:\DOCUME~1\shawn\LOCALS~1\Temp/ccZ6vDJx.s:4482   .text:00001558 __vector_4
                            *COM*:00000002 ReadDS18B20Count
                            *COM*:00000002 AD_time_count
                            *COM*:00000002 KEY_Time_count_speed_color
C:\DOCUME~1\shawn\LOCALS~1\Temp/ccZ6vDJx.s:4618   .text:00001654 fullScreen
C:\DOCUME~1\shawn\LOCALS~1\Temp/ccZ6vDJx.s:4638   .text:00001666 clearScreen
C:\DOCUME~1\shawn\LOCALS~1\Temp/ccZ6vDJx.s:4661   .text:0000167c init_devices
C:\DOCUME~1\shawn\LOCALS~1\Temp/ccZ6vDJx.s:4782   .text:00001704 Show_welcome
C:\DOCUME~1\shawn\LOCALS~1\Temp/ccZ6vDJx.s:4871   .text:0000178e FreshDisplayBufferNormal
C:\DOCUME~1\shawn\LOCALS~1\Temp/ccZ6vDJx.s:5009   .text:000018a2 FreshDisplayBufferAjustProofTime
C:\DOCUME~1\shawn\LOCALS~1\Temp/ccZ6vDJx.s:5215   .text:00001976 FreshDisplayBufferChangeFont
C:\DOCUME~1\shawn\LOCALS~1\Temp/ccZ6vDJx.s:5296   .text:000019d6 FreshDisplayBufferAjustLightMode
C:\DOCUME~1\shawn\LOCALS~1\Temp/ccZ6vDJx.s:5393   .text:00001a50 FreshDisplayBufferAjustLight
C:\DOCUME~1\shawn\LOCALS~1\Temp/ccZ6vDJx.s:5480   .text:00001ac0 FreshDisplayBufferVoiceMode
C:\DOCUME~1\shawn\LOCALS~1\Temp/ccZ6vDJx.s:5594   .text:00001b5a FreshDisplayBufferAjustSpeed
C:\DOCUME~1\shawn\LOCALS~1\Temp/ccZ6vDJx.s:5675   .text:00001bbc FreshDisplayBufferAjustWeek
C:\DOCUME~1\shawn\LOCALS~1\Temp/ccZ6vDJx.s:5756   .text:00001c1e FreshDisplayComment
C:\DOCUME~1\shawn\LOCALS~1\Temp/ccZ6vDJx.s:5830   .text:00001c84 FreshDisplayBufferAjustMinute
C:\DOCUME~1\shawn\LOCALS~1\Temp/ccZ6vDJx.s:5850   .text:00001c96 FreshDisplayBufferAjustHour
C:\DOCUME~1\shawn\LOCALS~1\Temp/ccZ6vDJx.s:5870   .text:00001ca8 FreshDisplayBufferAjustDay
C:\DOCUME~1\shawn\LOCALS~1\Temp/ccZ6vDJx.s:5890   .text:00001cba FreshDisplayBufferAjustMonth
C:\DOCUME~1\shawn\LOCALS~1\Temp/ccZ6vDJx.s:5910   .text:00001ccc FreshDisplayBufferAjustYear
C:\DOCUME~1\shawn\LOCALS~1\Temp/ccZ6vDJx.s:5930   .text:00001cde Scan_Key
C:\DOCUME~1\shawn\LOCALS~1\Temp/ccZ6vDJx.s:6614   .text:00002080 main
C:\DOCUME~1\shawn\LOCALS~1\Temp/ccZ6vDJx.s:10848  .bss:00000000 freshTimeCount

UNDEFINED SYMBOLS
__udivmodhi4
__udivmodqi4
memset
__do_copy_data
__do_clear_bss
